qc:_glClearStencil
ROf:_Array_InternalArray__ICollection_Add_TisMark_t2724874473_m1613484179_gshared
N6b:__ZN5physx2Gu19gjkLocalPenetrationINS0_8CapsuleVENS0_17ShrunkConvexHullVEEEjRKT_RKT0_RKNS_6shdfnd3aos6FloatVERNSB_5Vec3VESG_SG_RSC_PhSI_Rhb
Tef:_RuntimeTypeHandle_GetObjectData_m3567098501
xZh:__ZN6il2cpp2vm5Array13GetByteLengthEP11Il2CppArray
hcg:__ZL61IRemotingFormatter_t4112065742_CustomAttributesCacheGeneratorP21CustomAttributesCache
J7g:__Z37RuntimeInvoker_Enumerator_t1593300101PK10MethodInfoPvPS2_
x$f:_UInt64_System_IConvertible_ToDecimal_m4205696037
Pla:__Z21SourceMipLevelForBlitiiii
Rmf:_GenericTypeParameterBuilder_GetEvent_m4210567427
wef:_RuntimeFieldHandle_get_Value_m3963757144
$9g:__Z55RuntimeInvoker_ILTokenInfo_t149559338_Int32_t2071877448PK10MethodInfoPvPS2_
Vzd:__ZN11UnityEngine7Connect14AppUpdateEventD0Ev
AZc:__ZNK5physx2Sc5Scene24getContactModifyCallbackEv
UE:__ZdlPv
ar:__ZN11UnityEngine9Animation28GenericAnimationBindingCacheD2Ev
G0c:__ZN5physx2Sq10AABBPruner10addObjectsEPjPKNS_9PxBounds3EPKNS0_13PrunerPayloadEj
ocg:__ZL68RemotingSurrogateSelector_t2821375126_CustomAttributesCacheGeneratorP21CustomAttributesCache
j9g:__Z76RuntimeInvoker_Void_t1841601450_Int32_t2071877448_KeyValuePair_2_t3716250094PK10MethodInfoPvPS2_
DHg:_List_1_System_Collections_IList_IndexOf_m39706221_gshared
B6d:_Decimal_op_Implicit_m2971610317
Bb:invoke_viiiifiiiiif
BPa:__Z18RestoreRenderStateR20CameraRenderOldStateR17ShaderPassContext
O$d:_SynchronizedArrayListWrapper_get_Item_m3309425850
Rwb:__Z18Transfer_BlittableI18StreamedBinaryReadILb1EELb1E5RectTIfEEvRK29SerializationCommandArgumentsR31RuntimeSerializationCommandInfo
Btb:__Z18Transfer_BlittableI24GenerateTypeTreeTransferLb0E11ColorRGBA32EvRK29SerializationCommandArgumentsR31RuntimeSerializationCommandInfo
CP:__Z25scripting_class_from_name17ScriptingImagePtrPKcS1_
gJh:__ZN14dense_hash_mapI10KeyWrapperINSt3__24pairIPK12PropertyInfoP11Il2CppClassEEEj17ReflectionMapHashIS8_ENS9_14EqualsComparerINS1_8equal_toIS8_EEEENS1_9allocatorINS2_IKS9_jEEEEE15set_deleted_keyERSH_
qnb:__Z29scripting_class_enum_basetype17ScriptingClassPtr
Tfc:__ZN5physx6shdfnd8PoolBaseINS_2Sc10NPhaseCore16ClothListElementENS0_19ReflectionAllocatorIS4_EEE17releaseEmptySlabsEv
Cji:_emscripten_glDeleteBuffers__wrapper
ddh:_Collision_t2876846408_marshal_pinvoke_back
Djd:__ZN5physx2Sc14ConstraintCore10breakApartEv
Cnf:_GenericTypeParameterBuilder_GetHashCode_m867619899
x9g:__Z79RuntimeInvoker_Void_t1841601450_Int32_t2071877448_ParameterModifier_t1820634920PK10MethodInfoPvPS2_
Uod:__ZN5physx2Gu15EdgeListBuilderC2Ev
hKf:_EqualityComparer_1__cctor_m3397254040_gshared
bH:__ZNK20LocalFileSystemPosix6ParentERK13FileEntryDataRN4core12basic_stringIcNS3_20StringStorageDefaultIcEEEE
J4g:__Z37RuntimeInvoker_ContentType_t859870085PK10MethodInfoPvPS2_
rqd:__ZN5physx7Cooking20loadTriangleMeshDescERKNS_18PxTriangleMeshDescERNS_19TriangleMeshBuilderE
ize:_MonoType_CheckMethodSecurity_m4116906190
Wic:__ZN5physx9NpFactory21releaseConnectorArrayEPNS_16NpConnectorArrayE
Huc:__ZNK5physx14NpShapeManager9getShapesEPPNS_7PxShapeEjj
H3c:__ZNK5physx2Gu29EPASupportMapPairRelativeImplINS0_9TriangleVENS0_4BoxVEE6getDirEv
mba:__ZN17PersistentManager22CheckInstanceIDsLoadedEPii
Hja:__ZN7ApiGLES17CopyBufferSubDataEjjlll
tph:__ZNSt3__26vectorIPK10Il2CppTypeNS_9allocatorIS3_EEE7reserveEj
tOg:_U3CCreateWhereIteratorU3Ec__Iterator1D_1_Reset_m1773515612_gshared
tHa:__ZN25CameraStackRenderingState20GetOrCreateBuiltinRTE24BuiltinRenderTextureTypeii17DepthBufferFormat19RenderTextureFormatj22RenderTextureReadWrite14VRTextureUsagei
e5a:__Z32TransferEnumWithNameForceIntSizeI14SafeBinaryRead16LightmappingMaskEvRT_RT0_PKc17TransferMetaFlags
vz:__ZN11AudioModule26SetDefaultMicrophoneDriverEPv
lIc:__ZNK5physx15NpActorTemplateINS_15PxParticleFluidEE22getClientBehaviorFlagsEv
Skh:_AesManaged_CreateEncryptor_m1729287824
sdb:__ZNK14Texture2DArray26CanReuploadDataToGfxDeviceEv
VLa:__ZN17PrePassRenderLoop14RenderBasePassEP13RenderTextureRK14LightingLayersR13dynamic_arrayI16RenderObjectDataLj4EERbR10MinMaxAABB
l1a:__ZN17GlobalGameManager23VirtualRedirectTransferER17RemapPPtrTransfer
YYd:_Char_System_IConvertible_ToInt16_m2741348777_AdjustorThunk
i0a:__ZN21ArchiveStorageCreator10InitializeERKN4core12basic_stringIcNS0_20StringStorageDefaultIcEEEEb
EMg:_ReadOnlyCollection_1_System_Collections_Generic_IListU3CTU3E_set_Item_m1547026160_gshared
J5f:__ZL61MarshalAsAttribute_t2900773360_CustomAttributesCacheGeneratorP21CustomAttributesCache
oY:__ZN7Texture13SetFilterModeEi
W_h:__ZN6il2cpp8metadata13GenericMethod9GetMethodEPK19Il2CppGenericMethod
aq:__ZNSt3__26vectorIN4core12basic_stringIcNS1_20StringStorageDefaultIcEEEENS_9allocatorIS5_EEE7reserveEj
V8d:_Convert_ToUInt16_m2130758075
M2e:_X509BasicConstraintsExtension_Encode_m3505127076
tea:__ZN13GfxDeviceGLES11SetViewportERK5RectTIiE
Mce:_Decimal_System_IConvertible_ToInt64_m2504363272
sb:invoke_vifiiii
fUd:_Array_GetValue_m3182152438
Jd:_emscripten_glDepthRange
Tgf:_DESTransform_CipherFunct_m3559419566
L1b:__ZN5physx2Gu24contactConvexHeightfieldERKNS0_13GeometryUnionES3_RKNS_11PxTransformES6_RKfRNS0_5CacheERNS0_13ContactBufferE
xkc:__ZN5physx6shdfnd5ArrayIPvNS0_19ReflectionAllocatorINS_2Cm5BlockIS2_Lj8EEEEEE15growAndPushBackERKS2_
Z3d:_Enumerator_get_Key_m2908810861
aCb:__Z14resize_trimmedINSt3__26vectorIN9ShaderLab20SerializedSubProgram12UAVParameterENS0_9allocatorIS4_EEEEEvRT_j
U9e:_SerializationInfo_AddValue_m1781549036
ISe:_TlsServerKeyExchange_verifySignature_m3641534563
nla:__ZN4crndL20crnd_default_reallocEPvjPjbS0_
YMf:_Array_BinarySearch_TisInt32_t2071877448_m51233948_gshared
Rbi:__ZNSt3__212basic_stringIcNS_11char_traitsIcEENS_9allocatorIcEEEC2ERKS5_
J8c:__ZN5physx24PxsComputeAABBLocalSpaceERKNS_18PxcAABBDataDynamicERNS_9PxBounds3E
fTa:__ZNSt3__26vectorINS_4pairIN4core12basic_stringIcNS2_20StringStorageDefaultIcEEEEPK17MessageIdentifierEENS_9allocatorISA_EEE12__move_rangeEPSA_SE_SE_
gTd:_UTF32Encoding_GetPreamble_m767706727
DSc:__ZN5physx2Sc24ElementInteractionMarker11updateStateEb
WFa:__ZN23ScriptableRenderContextC2Ev
K2a:__ZN4PPtrI13RenderTextureE8TransferI18StreamedBinaryReadILb0EEEEvRT_
l6d:_DateTime_AbsoluteDays_m3061694073
X7g:__Z56RuntimeInvoker_Boolean_t3825574718_LabelData_t3712112744PK10MethodInfoPvPS2_
lxb:__Z18Transfer_BlittableI18StreamedBinaryReadILb1EELb1EdEvRK29SerializationCommandArgumentsR31RuntimeSerializationCommandInfo
yFf:_Enumerator_System_Collections_IEnumerator_get_Current_m229223308_gshared
Dmg:__ZL202U3CCreateWhereIteratorU3Ec__Iterator1D_1_t2523986802_CustomAttributesCacheGenerator_U3CCreateWhereIteratorU3Ec__Iterator1D_1_System_Collections_Generic_IEnumerableU3CTSourceU3E_GetEnumerator_m2392330777P21CustomAttributesCache
i1c:__ZN5physx6shdfnd8internal8HashBaseINS0_4PairIKNS_2Sq13PrunerPayloadEjEES5_NS0_4HashIS5_EENS1_11HashMapBaseIS5_jS9_NS0_9AllocatorEE6GetKeyESB_Lb1EE5eraseERS6_
Cnb:__Z26BuildSerializationCacheFor17ScriptingClassPtrRb
ald:__ZN5physx13GuMeshFactory16createConvexMeshERNS_13PxInputStreamE
Vtd:__ZN5physx6shdfnd8internal8HashBaseINS0_4PairIKPKcjEES5_NS0_4HashIS5_EENS1_11HashMapBaseIS5_jS9_NS_7profile26WrapperReflectionAllocatorIjEEE6GetKeyESD_Lb1EE6createERS6_Rb
Iag:__ZL55GCHandleType_t1970708122_CustomAttributesCacheGeneratorP21CustomAttributesCache
S3b:__ZN5physx2Gu3Box6createERKNS0_7CapsuleE
X_a:__ZN10FileSystem12MountHandlerEP17FileSystemHandler
x$d:_FixedSizeArrayListWrapper_AddRange_m2071800418
qW:__Z9InitInputv
sIh:__ZN30dense_hashtable_const_iteratorINSt3__24pairIK10KeyWrapperIPK22Il2CppGenericParameterEPK24MonoGenericParameterInfoEES6_N6il2cpp5utils11PointerHashIS4_EEN14dense_hash_mapIS6_SA_SF_NS6_14EqualsComparerINS0_8equal_toIS5_EEEENS0_9allocatorISB_EEE9SelectKeyESK_SM_E30advance_past_empty_and_deletedEv
tub:__Z29Transfer_Blittable_ArrayFieldI24GenerateTypeTreeTransfer11ColorRGBA32EvRT_R9ArrayInfoRK23StaticTransferFieldInfo
_kd:__ZNK5physx13GuMeshFactory15getConvexMeshesEPPNS_12PxConvexMeshEjj
HEh:__ZN6il2cpp2gc19AppendOnlyGCHashMapINSt3__24pairIPK10MethodInfoP11Il2CppClassEEP22Il2CppReflectionMethod17ReflectionMapHashIS9_ENS2_8equal_toIS9_EEE3AddERKS9_SB_
_Va:__ZN16MemoryFileSystem6DeleteER13FileEntryDatab
k9:__ZL21BlitScaleStbImageImplRK14ImageReferenceRS_NS_10ColorSpaceE
Azc:__ZN5physx10NpMaterial17setStaticFrictionEf
nZe:_TlsStream_set_Position_m378064217
Uq:__ZN18StreamedBinaryReadILb0EE21TransferSTLStyleArrayI13dynamic_arrayIjLj4EEEEvRT_17TransferMetaFlags
ZTc:__ZNK5physx7NpScene19getFilterShaderDataEv
iqb:__Z29Transfer_Blittable_ArrayFieldI14SafeBinaryReadyEvRT_R9ArrayInfoRK23StaticTransferFieldInfo
sae:_DateTime_System_IConvertible_ToUInt32_m1363211018
Cuc:__ZN5physx2Sc19ShapeInstancePairLL26onPoseChangedWhileSleepingEv
VKd:_Evidence_Equals_m2325859915
R2c:__ZN5physx22PxcSweepCapsuleCapsuleERKNS_11PxsCCDShapeES2_PKNS_12PxsRigidBodyES5_RKNS_11PxTransformES8_S8_S8_fRNS_6PxVec3ESA_RNS_10PxcNpCacheERNS_18PxcNpThreadContextEf
afg:__ZL93WindowsIdentity_t373339331_CustomAttributesCacheGenerator_WindowsIdentity_Dispose_m2649088337P21CustomAttributesCache
yjf:_Default__ctor_m172834064
kAf:_InternalEnumerator_1_MoveNext_m3389738333_AdjustorThunk
Ckb:__ZN20ArchiveStorageReader17MakeStorageUnusedEv
Pvg:_Regex_IsMatch_m2159202025
Obc:__ZNK5physx3Cct17CapsuleController21getHalfHeightInternalEv
Cua:__ZNK25MultiBlocksMemoryFileData5CloneEv
kNg:_ReadOnlyCollection_1_System_Collections_IList_IndexOf_m3466286536_gshared
C3h:_GC_add_ext_descriptor
Zac:__ZN5physx21PxQueryFilterCallbackD2Ev
Z4h:__ZN6il2cpp2os14WindowsRuntime22GetRestrictedErrorInfoEv
jbf:_RemotingServices_GetMethodBaseFromName_m3271095947
R3g:__Z71RuntimeInvoker_TimeSpan_t3430258949_Double_t4078015681_Int64_t909078037PK10MethodInfoPvPS2_
swa:__ZN17ArchiveFileSystem11CreateAsDirER13FileEntryData
wxh:__ZL25UnresolvedVirtualCall_114P12Il2CppObjectssaaaPK10MethodInfo
cic:__ZL30GeomOverlapCallback_CapsuleBoxRKN5physx10PxGeometryERKNS_11PxTransformES2_S5_PNS_2Gu12TriggerCacheE
Udi:dynCall_iiiiiiiiiiii
mQd:_ASCIIEncoding_GetBytes_m3617160053
sDf:_InternalEnumerator_1_MoveNext_m2289229080_AdjustorThunk
yWg:__Z72RuntimeInvoker_Boolean_t3825574718_Decimal_t724701077_Decimal_t724701077PK10MethodInfoPvPS2_
ORe:_CipherSuiteCollection_System_Collections_IList_RemoveAt_m143866082
TCg:_Context_get_HasGlobalDynamicSinks_m3205328884
qda:__ZN22VertexDeclarationCacheD0Ev
u4:__ZN6prcoreL17RemapGenericFloatI16TexFormatRGFloat17TexFormatRGBAHalfEEvPKNS_9InnerInfoE
s$a:__ZNK21AssetBundleFileSystem8PositionERK13FileEntryData
Gs:__ZN12AudioManager22CreateFMODSoundFromWWWEP10IWWWStream15FMOD_SOUND_TYPE17FMOD_SOUND_FORMATjjbbP10SampleClip
eLb:__ZNK32RendererMaterialAnimationBinding15GenerateBindingERKN4core12basic_stringIcNS0_20StringStorageDefaultIcEEEEbRN11UnityEngine9Animation14GenericBindingE
OFh:__ZN24dense_hashtable_iteratorINSt3__24pairIK10KeyWrapperINS1_IPK11Il2CppImageP11Il2CppClassEEEjEES9_17ReflectionMapHashIS8_EN14dense_hash_mapIS9_jSD_NS9_14EqualsComparerINS0_8equal_toIS8_EEEENS0_9allocatorISB_EEE9SelectKeyESI_SK_E30advance_past_empty_and_deletedEv
Wfh:_UnityEventBase_UnityEngine_ISerializationCallbackReceiver_OnBeforeSerialize_m1773826808
SO:__ZN8Remapper23GetOrGenerateInstanceIDERK26SerializedObjectIdentifier
awe:_StreamWriter_Flush_m3426120024
ywa:__ZN17FileSystemHandler10AtomicMoveER13FileEntryDataS1_
Gte:_MemoryStream__ctor_m1489366847
pLd:_SecurityElement_IsValidTag_m64902195
BFf:_Enumerator_System_Collections_IEnumerator_get_Current_m229223308_AdjustorThunk
Atf:_PropertyInfo_SetValue_m2961483868
Z8g:__Z60RuntimeInvoker_Void_t1841601450_ResourceCacheItem_t333236149PK10MethodInfoPvPS2_
vQg:_UnityEvent_3_FindMethod_Impl_m1889846153_gshared
SFg:_DictionaryEnumerator_get_Value_m1915638953
Wjf:_ConstructorInfo_Invoke_m2144827141
Kcb:__ZN6Sprite8TransferI24GenerateTypeTreeTransferEEvRT_
e8g:__Z56RuntimeInvoker_Boolean_t3825574718_UriScheme_t1876590943PK10MethodInfoPvPS2_
Mcb:__ZN7SubMesh8TransferI24GenerateTypeTreeTransferEEvRT_
FHh:__ZN14dense_hash_mapI10KeyWrapperIPK14Il2CppAssemblyEPK16MonoAssemblyNameN6il2cpp5utils11PointerHashIS2_EENS4_14EqualsComparerINSt3__28equal_toIS3_EEEENSD_9allocatorINSD_4pairIKS4_S7_EEEEE13set_empty_keyERSJ_
L0b:__ZN5physx3Cct10Controller6setPosERKNS_14PxExtendedVec3E
S2b:__ZN5physx2GuL14testFaceNormalERKNS0_13PolygonalDataES3_PNS0_12SupportLocalES5_RKNS_6shdfnd3aos15PsMatTransformVESA_RKNS7_6FloatVERSB_RjRNS7_5Vec3VENS0_13FeatureStatusERSI_
L7g:__Z36RuntimeInvoker_Enumerator_t132208513PK10MethodInfoPvPS2_
i8g:__Z112RuntimeInvoker_Int32_t2071877448_Il2CppObject_Int32_t2071877448_Int32_t2071877448_Int32_t2071877448_Il2CppObjectPK10MethodInfoPvPS2_
Vai:_poll
rte:_Stream_BeginRead_m1985960185
pJb:__ZN13ProduceHelperI14Texture2DArrayLb0EE7ProduceE18MemLabelIdentifier18ObjectCreationMode
dPe:_MD4Managed_GG_m1462438360
E9e:_SerializationInfoEnumerator_get_Value_m3437991400
iic:__ZL32GeomOverlapCallback_ConvexConvexRKN5physx10PxGeometryERKNS_11PxTransformES2_S5_PNS_2Gu12TriggerCacheE
ROe:_MD4_Create_m2582504069
pTh:__ZN6il2cpp8metadata15GenericMetadata15GetGenericClassEiPK17Il2CppGenericInst
KWd:_Boolean_System_IConvertible_ToInt16_m977801621
bpb:__Z18Transfer_BlittableI14SafeBinaryReadLb0E10Matrix4x4fEvRK29SerializationCommandArgumentsR31RuntimeSerializationCommandInfo
lya:__Z24GetFixedBehaviourManagerv
tEa:__ZN12FlareManager9UpdateJobEP25FlareManagerUpdateJobData
bzh:__ZN6il2cpp2vm10ThreadPool4WaitEP17Il2CppAsyncResultPPv
k9h:_vfprintf
W9e:_SerializationException__ctor_m1019897788
Qeh:_Debug_get_logger_m4173808038
x2:__ZL13SortTexByNameRKNSt3__24pairIN9ShaderLab16FastPropertyNameEN18UnityPropertySheet11UnityTexEnvEEES7_
iFa:__ZN20DynamicPropertySheetD0Ev
OTa:__ZN14SafeBinaryRead17RegisterConverterEPKcS1_PFbPvRS_E
yJ:__ZN35RegisterRuntimeInitializeAndCleanup8RegisterEPFvPvES2_iS0_
CNc:__ZNK5physx19NpRigidBodyTemplateINS_14PxRigidDynamicEE17getRigidBodyFlagsEv
BVd:_AsyncCallback__ctor_m3071689932
V2c:__ZN5physx25PxcSweepConvexHeightfieldERKNS_11PxsCCDShapeES2_PKNS_12PxsRigidBodyES5_RKNS_11PxTransformES8_S8_S8_fRNS_6PxVec3ESA_RNS_10PxcNpCacheERNS_18PxcNpThreadContextEf
mGe:_DSAManaged_NormalizeArray_m2287089393
vUb:__Z21Object_CUSTOM_DestroyP12Il2CppObjectf
pya:__ZN8Material26ResetAllCachedMaterialDataEP6Shader
aa:invoke_diddi
p7d:_Double_TryParseStringConstant_m2585405703
Bob:__Z18Transfer_BlittableI14SafeBinaryReadLb0EiEvRK29SerializationCommandArgumentsR31RuntimeSerializationCommandInfo
dvh:__ZN6il2cpp2vm13MetadataCache30GetPropertyDefinitionFromIndexEi
iuf:_ResourceEnumerator__ctor_m1679839941
wFd:_RijndaelTransform_Clear_m1652144089
GMc:__ZN5physx14NpRigidDynamic7releaseEv
Vre:_MonoIO_GetException_m2577367044
LBd:__ZN22BaseUnityConnectClient17InitializeSessionERKN4core12basic_stringIcNS0_20StringStorageDefaultIcEEEES6_N19CloudServiceHandler13InitModeFlagsE
$Tg:__Z57RuntimeInvoker_Void_t1841601450_Il2CppObject_Il2CppObjectPK10MethodInfoPvPS2_
EAe:_NumberFormatter_get_IsZero_m1325357749
j$c:__ZN5physx6shdfnd8PoolBaseINS_21PxsBodyTransformVault13PxsBody2WorldENS0_19ReflectionAllocatorIS3_EEE15disposeElementsEv
zge:_Enum_ToObject_m322320225
NTb:__ZN13MonoBehaviour34StopCoroutineFromEnumeratorManagedE18ScriptingObjectPtr
qJd:_X509Certificate__ctor_m3860837120
Rch:_Camera_RaycastTry2D_m755036866
U8b:__ZN5physx2Gu30computeCapsule_TriangleMeshMTDERKNS_22PxTriangleMeshGeometryERKNS_11PxTransformERNS0_8CapsuleVEffbRNS_10PxSweepHitE
ekb:__ZN30RuntimeInitializeOnLoadManager8TransferI18StreamedBinaryReadILb0EEEEvRT_
qIf:_Dictionary_2__ctor_m1206668798_gshared
dlb:__ZN21ArchiveStorageCreator14StoreDirectoryEv
GQb:__ZL34GetComponentsImplementationRecurseILb1ELi0ELi2EEbR10GameObjectbRK17CompareParametersRK39GetComponentsImplementation_ReturnValue
w6h:__ZN6il2cpp6icalls8mscorlib6System9Threading5Mutex20CreateMutex_internalEbP12Il2CppStringPb
Q1g:__Z50RuntimeInvoker_Int16_t4041245914_Int16_t4041245914PK10MethodInfoPvPS2_
f$d:_ArrayListWrapper_Remove_m1105489978
uEa:__ZNK6Camera18WorldToScreenPointERK8Vector3fPb
$8c:__ZN5physx2Cm12DelegateTaskINS_10PxsContextEXadL_ZNS2_28mergeCMDiscreteUpdateResultsEPNS_10PxBaseTaskEEEE11runInternalEv
hXd:_Boolean_CompareTo_m3691698947_AdjustorThunk
Opd:__ZN5physx19TriangleMeshBuilder10importMeshERKNS_18PxTriangleMeshDescERKNS_15PxCookingParamsEb
R2d:_HashKeys_CopyTo_m3566668422
eZd:_Convert_ToSByte_m2665932200
fO:__ZNSt3__227__insertion_sort_incompleteIRPFbRKN18AwakeFromLoadQueue4ItemES4_EPS2_EEbT0_S9_T_
plf:_ILGenerator_label_fixup_m1325994348
Gai:_strrchr
HFc:__ZN5physx6shdfnd5ArrayINS_18PxClothFabricPhaseENS0_19ReflectionAllocatorIS2_EEE8recreateEj
S9a:__ZN26EnlightenSystemInformation8TransferI14SafeBinaryReadEEvRT_
uSf:_Array_InternalArray__get_Item_TisLink_t2723257478_m2281261655_gshared
iVc:__ZN5physx2Sq17SceneQueryManager11shiftOriginERKNS_6PxVec3E
Wfb:__ZN12MeshRendererD0Ev
Y6b:__ZN5physx2Gu16sweepBoxTriangleERKNS_10PxTriangleERKNS_9PxBounds3ERKNS_6PxVec3ES9_RS7_SA_Rf
nxg:_ExpressionAssertion_IsComplex_m783019628
U1d:_Hashtable__ctor_m2702360557
th:_utime
yqd:__ZN5physx10writeChunkEaaaaRNS_14PxOutputStreamE
zke:_DateTimeFormatInfo_get_RawAbbreviatedDayNames_m3998113647
Kzh:__ZN6il2cpp6icalls8mscorlib6System8MonoType18IsGenericParameterEPK10Il2CppType
BNh:__ZNSt3__26vectorIN6il2cpp2vm17TypeNameParseInfoENS_9allocatorIS3_EEE8allocateEj
DNe:_PrimalityTest_Invoke_m4058801829
Zaf:_RemotingConfiguration_SetCustomErrorsMode_m1844153208
kn:FUNCTION_TABLE_viiiiii
j8g:__Z84RuntimeInvoker_Int32_t2071877448_Il2CppObject_CustomAttributeNamedArgument_t94157543PK10MethodInfoPvPS2_
twc:__ZN5physx2Sc9RigidCore13onShapeChangeERNS0_9ShapeCoreENS_7PxFlagsINS0_21ShapeChangeNotifyFlag4EnumEjEENS4_INS_11PxShapeFlag4EnumEhEE
pSf:_Array_InternalArray__get_Item_TisChar_t3454481338_m3646615547_gshared
xlh:_ScriptableObject_CreateInstance_m3271154163
eKc:__ZN5physx6shdfnd5ArrayIPvNS0_15InlineAllocatorILj256ENS0_19ReflectionAllocatorINS_2Sc19ParticlePacketShapeEEEEEE15growAndPushBackERKS2_
y5c:__ZN5physx17solveContactBlockEPKNS_23PxcSolverConstraintDescEjRNS_16PxcSolverContextE
Hqd:__ZN5physx6shdfnd10FoundationD2Ev
RNf:_Array_InternalArray__IndexOf_TisResourceCacheItem_t333236149_m761772858_gshared
Xig:__ZL79Convert_t2607082565_CustomAttributesCacheGenerator_Convert_ToUInt64_m1896191125P21CustomAttributesCache
Rhg:__ZL76Convert_t2607082565_CustomAttributesCacheGenerator_Convert_ToInt64_m44696721P21CustomAttributesCache
tbf:_TrackingServices__cctor_m3639412334
gPg:_InvokableCall_1_add_Delegate_m3068046591_gshared
Xgf:_DESTransform_ECB_m2629024873
HKd:_StrongNamePublicKeyBlob_Equals_m2407250401
j1a:__ZN17GlobalGameManager23VirtualRedirectTransferER19StreamedBinaryWriteILb0EE
G$c:__ZN5physx2Sc10NPhaseCoreD2Ev
fkc:__ZN5physx2Sc7BodySim18onConstraintDetachEv
aMb:__ZZL23RegisterLightPropertiesR22GenericPropertyBindingEN20Wrapper_LightColorr013SetFloatValueEPvf
Xh:_emscripten_glGetTexParameteriv
dUc:__ZN5physx7NpScene8simulateEfPNS_10PxBaseTaskEPvjb
K1b:__ZN5physx2Gu13GeometryUnion3setERKNS_10PxGeometryE
kpe:_Int32_ToString_m1064459878_AdjustorThunk
aKe:_DeriveBytes__ctor_m3089550878
$ud:__ZN5physx7profile12MemoryBufferINS0_21WrapperNamedAllocatorEE5writeIyEEvRKT_
iBg:_ChannelData_CopyFrom_m4049054607
WHb:__Z13RegisterClassI4MeshEvv
gNf:_Array_FindLastIndex_TisIl2CppObject_m869210470_gshared
Xt:__ZN12AudioManager8TransferI19StreamedBinaryWriteILb0EEEEvRT_
Zte:_WriteDelegate_Invoke_m2103848735
sTg:_X509Crl_get_IssuerName_m756409840
ayb:__ZN18StreamedBinaryReadILb1EE21TransferSTLStyleArrayI13dynamic_arrayI11ColorRGBA32Lj4EEEEvRT_17TransferMetaFlags
MGf:_Transform_1_EndInvoke_m687617772_gshared
C9g:__Z66RuntimeInvoker_Void_t1841601450_Int32_t2071877448_Mark_t2724874473PK10MethodInfoPvPS2_
lkh:_Locale_GetText_m512920887
dLb:__ZNK32RendererMaterialAnimationBinding12GetPPtrValueERKN11UnityEngine9Animation10BoundCurveE
Pyb:__Z18Transfer_BlittableI18StreamedBinaryReadILb0EELb0E8Vector2fEvRK29SerializationCommandArgumentsR31RuntimeSerializationCommandInfo
htc:__ZN5physx18NpArticulationLink10clearForceENS_11PxForceMode4EnumE
Haf:_RemotingConfiguration_get_ProcessId_m3870172209
I3b:__ZN5physx2Gu30distanceSegmentTriangleSquaredERKNS_6PxVec3ES3_S3_S3_S3_PfS4_S4_
Ybi:__ZNSt3__212basic_stringIcNS_11char_traitsIcEENS_9allocatorIcEEE21__grow_by_and_replaceEjjjjjjPKc
$le:_SortKey_ToString_m2406913228
tH:__ZN22LocalFileSystemHandler9MakeLocalER13FileEntryDatab
g0h:__ZN6il2cpp2vm8Profiler10AllocationEP12Il2CppObjectP11Il2CppClass
w6d:_Convert_ToDateTime_m1020507389
Tre:_Path_IsPathRooted_m1347207448
Fcf:_ObjectManager_RegisterObjectInternal_m879109503
JDc:__ZNK5physx15NpActorTemplateINS_7PxClothEE12getAggregateEv
oba:__ZNSt3__26__sortIRNS_4lessIiEEPiEEvT0_S5_T_
qIb:__Z13RegisterClassI15QualitySettingsEvv
n$h:__ZN6il2cpp2vm6String21InitializeEmptyStringEP11Il2CppClass
KLa:__ZN25DeferredRenderLoopScratchD0Ev
Sfg:__ZL90UTF7Encoding_t741406939_CustomAttributesCacheGenerator_UTF7Encoding_GetHashCode_m359766848P21CustomAttributesCache
YWg:__Z52RuntimeInvoker_Decimal_t724701077_Single_t2076509932PK10MethodInfoPvPS2_
_1c:__ZNK5physx2Cm12DelegateTaskINS_13PxsCCDContextEXadL_ZNS2_14postCCDAdvanceEPNS_10PxBaseTaskEEEE7getNameEv
PBb:__ZN15dense_hashtableINSt3__24pairIKiN4core17string_with_labelILi1EEEEEi18SInt32HashFunctionN14dense_hash_mapIiS5_S7_NS0_8equal_toIiEE13stl_allocatorIS6_L18MemLabelIdentifier1ELi16EEE9SelectKeyESA_SD_E9copy_fromERKSG_j
x_:__ZN6Camera11ResetAspectEv
jZf:_Type_get_IsGenericType_m3396841573
sDa:__ZNSt3__227__insertion_sort_incompleteIRPFbP10GUIElementS2_EPS2_EEbT0_S7_T_
O2e:_X509BasicConstraintsExtension_get_HasPathLengthConstraint_m3788532759
M4a:__ZNK17InstancedPropInfo22FillInstancePropertiesER19ShaderPropertySheetjPK17BatchInstanceDatajRK15RenderNodeQueue
X$:__ZN22CreateGpuProgramOutputD2Ev
Occ:__ZNK5physx3Cct15ObstacleContext14getNbObstaclesEv
bvb:__Z18Transfer_BlittableI19StreamedBinaryWriteILb0EELb1EsEvRK29SerializationCommandArgumentsR31RuntimeSerializationCommandInfo
SGd:_RSACryptoServiceProvider_EncryptValue_m802714447
ZQh:__ZN6il2cpp6icalls8mscorlib6System2IO6MonoIO9SetLengthE12Il2CppIntPtrxPi
s7h:__ZN6il2cpp8metadata22Il2CppSignatureCompare6EqualsERK13dynamic_arrayIPK10Il2CppTypeLj4EES8_
ynd:__ZN5physx6shdfnd8PoolBaseINS_11NpAggregateENS0_19ReflectionAllocatorIS2_EEE12allocateSlabEv
pMc:__ZN5physx16NpParticleSystem23setParticleReadDataFlagENS_22PxParticleReadDataFlag4EnumEb
_Kc:__ZN5physx7NpScene26removeFromParticleBaseListERNS_14PxParticleBaseE
eje:_DateTimeFormatInfo_GetInstance_m3133223810
XMe:_ModulusRing_BarrettReduction_m2802101099
CYg:__Z57RuntimeInvoker_ExtenderType_t1556892101_Int32_t2071877448PK10MethodInfoPvPS2_
pGc:__ZN5physx2Sc9ClothCore23setSelfCollisionIndicesEPKjj
dva:__ZN12HandlerChain4OpenER13FileEntryData14FilePermission16FileAutoBehavior
Lqf:_MonoMethodInfo_GetParametersInfo_m3456861922
LEh:__ZN15dense_hashtableINSt3__24pairIK10KeyWrapperINS1_IPK10MethodInfoP11Il2CppClassEEEjEES9_17ReflectionMapHashIS8_EN14dense_hash_mapIS9_jSD_NS9_14EqualsComparerINS0_8equal_toIS8_EEEENS0_9allocatorISB_EEE9SelectKeyESI_SK_E6insertERKSB_
TQ:__ZN14FileCacherReadD2Ev
taa:__ZN13RendererScene23UpdatePreviousFrameDataEii
kHd:_RSAPKCS1SignatureDeformatter_VerifySignature_m1825067195
RSb:__Z50Register_UnityEngine_CullingGroup_FinalizerFailurev
AGg:_KeyValuePair_2_ToString_m2613351884_gshared
c6:__ZN27UnloadUnusedAssetsOperationD0Ev
Y2a:__ZN6Camera15ThreadedCleanupEv
u3g:__Z172RuntimeInvoker_Void_t1841601450_UInt64U2AU26_t2027109114_Int32U2AU26_t347619176_CharU2AU26_t4068306018_CharU2AU26_t4068306018_Int64U2AU26_t3929841737_Int32U2AU26_t347619176PK10MethodInfoPvPS2_
YLg:_Collection_1_System_Collections_IList_IndexOf_m1667133881_gshared
VQh:__ZN6il2cpp6icalls8mscorlib6System2IO6MonoIO9GetLengthE12Il2CppIntPtrPi
Idf:_ObjectRecord_get_HasPendingFixups_m670959802
y2c:__ZN5physx10PxsCCDPair12updateShapesEv
PHd:_SHA256Managed_HashCore_m4111458495
Lie:_CultureInfo_get_CompareInfo_m3085280862
Rzg:_DllImportAttribute__ctor_m1165454237
Gdf:_ObjectManager_RecordDelayedFixup_m1895730844
MSh:__ZNK15dense_hashtableINSt3__24pairIK10KeyWrapperIP14Il2CppIUnknownEjEES5_N6il2cpp5utils11PointerHashIS3_EEN14dense_hash_mapIS5_jSB_NS5_14EqualsComparerINS0_8equal_toIS4_EEEENS0_9allocatorIS7_EEE9SelectKeyESG_SI_E12test_deletedERK24dense_hashtable_iteratorIS7_S5_SB_SK_SG_SI_E
FUd:_ArrayTypeMismatchException__ctor_m1898555879
Xr:__ZN9AudioClip23VirtualRedirectTransferER18StreamedBinaryReadILb0EE
mTe:_ClientSessionInfo_CheckDisposed_m1394638186
Iff:_SByte_Parse_m2544167007
wya:__ZNSt3__26vectorIPN9ShaderLab9SubShaderENS_9allocatorIS3_EEE21__push_back_slow_pathIKS3_EEvRT_
zee:_StackFrame_GetILOffset_m115192054
pZa:__ZN24GenerateTypeTreeTransfer8TransferIN11AssetBundle9AssetInfoEEEvRT_PKc17TransferMetaFlags
PGc:__ZN5physx2Sc9ClothCore22removeCollisionCapsuleEj
Xef:_RuntimeTypeHandle_GetHashCode_m3697629454_AdjustorThunk
BDe:_BigInteger__ctor_m2945783161
YUe:_TlsClientHello_Update_m1723542631
xcg:__ZL96ProxyAttribute_t4031752430_CustomAttributesCacheGenerator_ProxyAttribute_IsContextOK_m2391079277P21CustomAttributesCache
ene:_IndexOutOfRangeException__ctor_m3497760912
nlc:__ZN5physx16PxsIslandManager25setArticulationLinkHandleEjPvRKNS_20PxsIslandManagerHookIjLj4294967295EEE
uj:_glCopyTexSubImage2D
zaf:_RealProxy_InternalGetTransparentProxy_m3415358600
mLb:__ZNK24RendererAnimationBinding13GetFloatValueERKN11UnityEngine9Animation10BoundCurveE
jgc:__ZN5physx2Sc10NPhaseCore39pool_deleteParticleElementRbElementPairEPNS0_35ParticleElementRbElementInteractionEjj
omi:_glActiveTexture__wrapper
ELg:_Collection_1_Insert_m3594407958_gshared
cAa:_UNITY_png_write_zTXt
oG:__ZN18ScreenManagerWebGL13SetShowCursorEb
j0h:__ZN6il2cpp6icalls8mscorlib6System7Convert24InternalFromBase64StringEP12Il2CppStringb
zxa:__ZZ23InitPlayerLoopCallbacksvEN37EarlyUpdateProcessMouseInWindowstruct7ForwardEv
v9h:_frexp
Zif:_AssemblyCompanyAttribute__ctor_m1217508649
cvc:__ZN5physx6shdfnd5ArrayIPNS_3Scb5ShapeENS0_15InlineAllocatorILj16ENS0_19ReflectionAllocatorIS4_EEEEE15growAndPushBackERKS4_
$ob:__Z18Transfer_BlittableI14SafeBinaryReadLb0E5RectTIfEEvRK29SerializationCommandArgumentsR31RuntimeSerializationCommandInfo
Yga:__ZN9GfxDevice18InsertCustomMarkerEi
p9h:_fmt_u
kje:_DateTimeFormatInfo_GetFormat_m3676195179
eka:__ZN14GfxContextGLES14GetFramebufferEv
Tji:_emscripten_glGenVertexArrays__wrapper
C6g:__Z36RuntimeInvoker_HideFlags_t1434274199PK10MethodInfoPvPS2_
j3:__ZN6prcoreL21CreateRemapAnyBlitterE13TextureFormatS0_
h8h:__ZN6il2cpp2os5Event4WaitEjb
uPb:__ZN17AnimationCurveTplIfE16StripInvalidKeysEv
sOf:_Array_InternalArray__ICollection_Add_TisKeyValuePair_2_t3716250094_m2381539361_gshared
MKe:_X509Extension_WriteLine_m2850991173
v3f:__ZL40UIntPtr_t_CustomAttributesCacheGeneratorP21CustomAttributesCache
rCh:_il2cpp_method_has_attribute
HNb:__Z13RegisterClassI17GlobalGameManagerEvv
DLf:_Array_InternalArray__ICollection_Remove_TisInt64_t909078037_m2653583130_gshared
HUf:_Thread_get_ExecutionContext_m922067206
DC:__ZN11UnityEngine15CloudWebService13WWWRestClient18GetEditableHeadersEv
YSe:_RecordProtocol_get_Context_m2688493529
i1:__ZN4PPtrI7TextureE8TransferI14SafeBinaryReadEEvRT_
Vdd:__ZN5physx2Sc8ClothSim16addCollisionMeshEPKNS0_8ShapeSimE
dn:FUNCTION_TABLE_iiiiiiiiiiiiii
Yid:__ZN5physx6shdfnd5ArrayIPKNS_10PxsCCDBodyENS0_19ReflectionAllocatorIS4_EEE8recreateEj
Yuc:__ZN5physx6shdfnd4sortINS_2Cm19PreallocatingRegionENS0_4LessIS3_EENS0_19ReflectionAllocatorIS3_EEEEvPT_jRKT0_RKT1_j
QBd:__ZN19UnityConnectService18OnPlayerQuitStaticEPS_
_5a:__ZN11Tetrahedron8TransferI24GenerateTypeTreeTransferEEvRT_
KQd:_DecoderExceptionFallback_GetHashCode_m2972426052
GRa:__ZN16ReflectionProbes8ScheduleEN18ReflectionProbeJob7JobTypeEP15ReflectionProbei
_hg:__ZL77Convert_t2607082565_CustomAttributesCacheGenerator_Convert_ToSByte_m883113940P21CustomAttributesCache
MR:__ZN16MessageForwarder13HandleMessageEPviR11MessageData
JH:__Z18IsDirectoryCreatedRKN4core12basic_stringIcNS_20StringStorageDefaultIcEEEE
yNc:__ZN5physx19NpRigidBodyTemplateINS_14PxRigidDynamicEE20setRigidDynamicFlagsENS_7PxFlagsINS_15PxRigidBodyFlag4EnumEhEE
qnf:_GenericTypeParameterBuilder_get_DeclaringType_m1652924692
Z1e:_X509KeyUsageExtension_ToString_m1992050580
mLc:__ZNK5physx16PxParticleSystem19getConcreteTypeNameEv
TAg:_ConstructionCall__ctor_m1143766850
hMc:__ZN5physx22NpParticleBaseTemplateINS_16PxParticleSystemENS_16NpParticleSystemEE20setMaxMotionDistanceEf
Rcf:_ObjectReader_ReadArrayOfString_m3752210963
f6c:__ZN5physx18ComputeSortedListsEPNS_2Cm10BitMapBaseINS_6shdfnd9AllocatorEEEjjPKjPPNS_8SapBox1DES7_PjSB_jRKNS_2Gu4AxesESB_RjSB_SG_RbSH_
Wjh:_Rect_Equals_m3806390726
Ich:_Camera_INTERNAL_CALL_ScreenPointToRay_m2752248646
S3g:__Z77RuntimeInvoker_TimeSpan_t3430258949_TimeSpan_t3430258949_TimeSpan_t3430258949PK10MethodInfoPvPS2_
Nte:_FileStream_Seek_m950719389
H6d:_Decimal_stripStyles_m294582157
AUf:_UTF8Decoder_GetChars_m3819660582
Oda:__ZN9GfxDevice20SetMaxBufferedFramesEi
Nw:__ZN24AudioScriptBufferManagerD2Ev
hei:dynCall_vdd
hVa:__Z23ConvertIntegerToTypePtrIsEbPvR14SafeBinaryRead
lqc:__ZNK5physx14NpArticulation17releaseDriveCacheERNS_24PxArticulationDriveCacheE
hNe:_BigInteger_Incr2_m505983313
lch:_PCMReaderCallback_BeginInvoke_m3119095492
i_d:_ArrayList_get_Count_m523955479
B$d:_FixedSizeArrayListWrapper_Remove_m1359458911
r3:__ZN6prcoreL29inner_stretch_rgb565_bilinearEPKNS_9InnerInfoE
qGc:__ZNK5physx2Sc9ClothCore25getSelfCollisionStiffnessEv
R4g:__Z47RuntimeInvoker_SecurityProtocolType_t3099771628PK10MethodInfoPvPS2_
SKa:__ZNK14RenderSettings19GetFlatAmbientColorEv
CRa:__ZN6prcoreL10inner_flipILj4EEEvPhS1_j
Phb:__ZN18StreamedBinaryReadILb0EE21TransferSTLStyleArrayI10vector_mapIPKN5Unity4TypeE7Hash128NSt3__24lessIS6_EENS8_9allocatorINS8_4pairIS6_S7_EEEEEEEvRT_17TransferMetaFlags
mPd:_String_Concat_m56707527
OXe:_SslClientStream_get_HaveRemoteValidation2Callback_m3555576758
Adb:__ZN14Texture2DArray17UploadToGfxDeviceEv
Iv:__Z14FMODMemoryFreePvjPKc
$Ha:__Z20IsRunningNativeTestsv
uwf:_InternalEnumerator_1_System_Collections_IEnumerator_Reset_m3731327620_AdjustorThunk
a$a:__ZN15dense_hashtableINSt3__24pairIKN4core12basic_stringIcNS2_20StringStorageDefaultIcEEEES6_EES6_20StringHash32FunctionIS6_EN14dense_hash_mapIS6_S6_SA_NS0_8equal_toIS6_EE13stl_allocatorIS8_L18MemLabelIdentifier54ELi16EEE9SelectKeyESD_SG_EC2ERKSJ_j
Imh:_YieldInstruction_t3462875981_marshal_pinvoke_cleanup
aYc:__ZN5physx3Scb4Body9syncStateEv
U7f:__ZL47File_t1930543328_CustomAttributesCacheGeneratorP21CustomAttributesCache
ube:_DateTimeOffset__ctor_m1796624924
WDg:_Identity_get_ChannelSink_m3989446673
O8c:__ZN5physx20SingleAABBUpdateTaskD0Ev
vuc:__ZN5physx12PxsRigidBody23updatePoseDependenciesVERNS_10PxsContextE
tLf:_Array_InternalArray__ICollection_Remove_TisKeyValuePair_2_t3716250094_m2566517826_gshared
bCf:_InternalEnumerator_1_MoveNext_m1741571735_gshared
Cmd:__ZN5physx2Gu12TriangleMesh4loadERNS_13PxInputStreamE
H3f:__ZL82Enum_t2459695545_CustomAttributesCacheGenerator_Enum_GetUnderlyingType_m3513899012P21CustomAttributesCache
K3h:_GC_is_heap_ptr
EOh:__GLOBAL__sub_I_Assembly_cpp
xVe:_TlsServerSettings_set_CertificateRequest_m3419519893
N5:__Z21PlayerStartFirstSceneb
nZf:_Type_get_IsGenericParameter_m161434704
Unf:_MethodBuilder_get_Attributes_m3678061338
$l:_emscripten_glIsTexture
i$d:_ArrayListWrapper_CopyTo_m793444109
mig:__ZL79Convert_t2607082565_CustomAttributesCacheGenerator_Convert_ToUInt16_m3265369225P21CustomAttributesCache
Gk:_emscripten_glHint
Nae:_DateTime_AddMilliseconds_m1813199744_AdjustorThunk
off:_SByte_System_IConvertible_ToSByte_m108774324_AdjustorThunk
Ynf:_MethodBuilder_GetParameterCount_m467267889
npf:_TypeBuilder_IsValueTypeImpl_m1499671481
l5e:_X509ChainStatus_t4278378721_marshal_pinvoke
QPe:_RSAManaged__ctor_m1680944437
cm:_SDL_UpperBlit
Fid:__ZN5physx2Cm12DelegateTaskINS_2Sc5SceneEXadL_ZNS3_13ccdBroadPhaseEPNS_10PxBaseTaskEEEED0Ev
xLa:__Z35GetTextureDecodeValuesWithIntensity16TextureUsageMode17TextureColorSpace10ColorSpacef
qYd:_Byte_GetHashCode_m2885528842_AdjustorThunk
eCc:__ZNK5physx7NpShape16getContactOffsetEv
a8c:__ZN5physx14PxsAABBManager21processAggregatePairsEPKNS_19AggregateSortedDataE
$wd:_PxCreateCooking
Umb:__ZN14SafeBinaryRead20OverrideRootTypeNameEPKc
wnh:__ZNK10KeyWrapperIPK22Il2CppGenericParameterE14EqualsComparerINSt3__28equal_toIS2_EEEclERKS3_SA_
XQ:__ZN14FileCacherRead16UnlockCacheBlockEj
k0f:_UIntPtr_get_Size_m537421489
QJe:_X509Certificate_GetUnsignedBigInteger_m3491353542
rxc:__ZNK5physx12NpBatchQuery23getFilterShaderDataSizeEv
_Na:__ZN6Camera6RenderER11CullResultsR17ShaderPassContextPK21CameraRenderingParamsNS_10RenderFlagE
P8f:__ZL57StackBehaviour_t1390406961_CustomAttributesCacheGeneratorP21CustomAttributesCache
Cc:_emscripten_glUniform1f
dvd:__ZN5physx7profile11EventBufferINS_24PxDefaultContextProviderENS_6shdfnd6MutexTINS0_26WrapperReflectionAllocatorIhEEEENS0_14ScopedLockImplIS7_EENS_24PxProfileNullEventFilterEE10doAddEventINS0_17RelativeStopEventEEEvhtRKT_
Hc:_emscripten_glUniform1i
yAf:_InternalEnumerator_1_System_Collections_IEnumerator_Reset_m651165750_AdjustorThunk
Lmb:__ZN13MonoBehaviour9CallAwakeEv
Ghd:__ZN5physx2Sc19ShapeInstancePairLL23postIslandGenSecondPassEv
ccc:__ZN5physx3Cct26CharacterControllerManager16createControllerERKNS_16PxControllerDescE
eZg:__Z66RuntimeInvoker_Void_t1841601450_Int32_t2071877448_SByte_t454417549PK10MethodInfoPvPS2_
jDb:__ZN9ShaderLab16SerializedTagMapaSERKS0_
tZg:__Z75RuntimeInvoker_Void_t1841601450_Il2CppObject_Int32_t2071877448_Il2CppObjectPK10MethodInfoPvPS2_
oB:__ZN11UnityEngine15CloudWebService16SessionContainer20RestoreSessionHeaderERKN4core12basic_stringIcNS2_20StringStorageDefaultIcEEEES8_RNS0_13SessionHeaderE
jwd:__ZN5physx26PxPhysicsInsertionCallbackD2Ev
p1c:__ZN5physx2Sq16BucketPrunerCore12updateObjectERKNS_9PxBounds3ERKNS0_13PrunerPayloadE
unf:_GenericTypeParameterBuilder_GetGenericArguments_m277381309
aoh:__ZN24dense_hashtable_iteratorINSt3__24pairIK10KeyWrapperIPK22Il2CppGenericParameterEP11Il2CppClassEES6_N6il2cpp5utils11PointerHashIS4_EEN14dense_hash_mapIS6_S9_SE_NS6_14EqualsComparerINS0_8equal_toIS5_EEEENS0_9allocatorISA_EEE9SelectKeyESJ_SL_E30advance_past_empty_and_deletedEv
Djb:__ZN14SafeBinaryRead21TransferSTLStyleArrayINSt3__26vectorIN30RuntimeInitializeOnLoadManager9ClassInfoE13stl_allocatorIS4_L18MemLabelIdentifier12ELi16EEEEEEvRT_17TransferMetaFlags
v$f:_UInt64_System_IConvertible_ToDateTime_m2412118561
qP:__ZN14MessageHandler3GetEv
Vc:_emscripten_glAttachShader
Nda:__ZN9GfxDevice13SetActiveTierE12GraphicsTier
wgb:__ZNSt3__26vectorIN4core12basic_stringIcNS1_20StringStorageDefaultIcEEEENS_9allocatorIS5_EEE6assignIPS5_EENS_9enable_ifIXaasr21__is_forward_iteratorIT_EE5valuesr16is_constructibleIS5_NS_15iterator_traitsISC_E9referenceEEE5valueEvE4typeESC_SC_
GGe:_KeyPairPersistence_get_UserPath_m3433052783
tac:__ZN5physx2Gu19GetRaycastFuncTableEv
V2f:__ZL58Decimal_t724701077_CustomAttributesCacheGenerator_MinusOneP21CustomAttributesCache
RMf:_Array_InternalArray__IEnumerable_GetEnumerator_TisKeyframe_t1449471340_m3949799719_gshared
Nob:__Z18Transfer_BlittableI14SafeBinaryReadLb0E11QuaternionfEvRK29SerializationCommandArgumentsR31RuntimeSerializationCommandInfo
EE:__ZNK13EmscriptenWWW6GetUrlEv
yhd:__ZN5physx17EdgeChangeManager23cleanupBrokenEdgeEventsEPKNS_4EdgeE
mzb:__Z18Transfer_BlittableI18StreamedBinaryReadILb0EELb1E12PropertyNameEvRK29SerializationCommandArgumentsR31RuntimeSerializationCommandInfo
fpg:__ZL99MonoBehaviour_t1158329972_CustomAttributesCacheGenerator_MonoBehaviour_set_useGUILayout_m2666356651P21CustomAttributesCache
BF:_tlsf_walk_heap
oJe:_PKCS12_Decode_m731190390
mLh:__ZNK15dense_hashtableINSt3__24pairIK10KeyWrapperIP11Il2CppClassES4_EES5_N6il2cpp8metadata16SZArrayClassHashEN14dense_hash_mapIS5_S4_SA_NS5_14EqualsComparerINS9_19SZArrayClassCompareEEENS0_9allocatorIS7_EEE9SelectKeyESE_SG_E10test_emptyERK24dense_hashtable_iteratorIS7_S5_SA_SI_SE_SG_E
tzh:__ZN6il2cpp2vm7Runtime6InvokeEPK10MethodInfoPvPS5_PP15Il2CppException
GBf:_InternalEnumerator_1_get_Current_m1550231132_gshared
Bwg:_Reference_get_IgnoreCase_m2810892634
eb:invoke_vif
Yuf:_U3CGetEnumeratorU3Ec__Iterator0_Dispose_m2403602883_gshared
fb:invoke_vid
gci:__ZNSt3__212basic_stringIcNS_11char_traitsIcEENS_9allocatorIcEEE6insertEjPKc
wGg:_KeyValuePair_2_set_Key_m744486900_AdjustorThunk
gb:invoke_vii
Zng:__ZL86Component_t3819376471_CustomAttributesCacheGenerator_Component_SendMessage_m3615678587P21CustomAttributesCache
sWc:__ZN5physx13NpVolumeCacheD2Ev
fXa:__ZN12TLSAllocatorI14StackAllocatorE16ThreadInitializeEP13BaseAllocator
H_d:_ArrayList_Sort_m2778059513
Lrg:__ZL107StackTraceUtility_t1881293839_CustomAttributesCacheGenerator_StackTraceUtility_SetProjectFolder_m2154926761P21CustomAttributesCache
ted:__ZThn8_N5physx2Sc35ParticleElementRbElementInteraction12onDeactivateEj
HOe:_MD2_Create_m539024737
B3d:_SortedList_get_SyncRoot_m3299704254
k4c:__ZN5physx16PxsThreadContextC2EPNS_10PxsContextE
b4d:_Slot_t2267560602_marshal_pinvoke
m2g:__Z51RuntimeInvoker_UInt16_t986882611_Single_t2076509932PK10MethodInfoPvPS2_
Z8e:_SoapAttribute_get_XmlNamespace_m1436066016
Sua:__ZN25SingleBlockMemoryFileDataD0Ev
hZa:__ZNSt3__26vectorI14ConstantStringNS_9allocatorIS1_EEE6assignINS_11__wrap_iterIPS1_EEEENS_9enable_ifIXaasr21__is_forward_iteratorIT_EE5valuesr16is_constructibleIS1_NS_15iterator_traitsISA_E9referenceEEE5valueEvE4typeESA_SA_
M0b:__ZN5physx3Cct10Controller4moveERNS0_11SweptVolumeERKNS_6PxVec3EffRKNS_19PxControllerFiltersEPKNS_17PxObstacleContextEb
jB:__ZN11UnityEngine15CloudWebService16SessionContainer21ConvertFromFolderTimeERKN4core12basic_stringIcNS2_20StringStorageDefaultIcEEEEPjPt
LNc:__ZN5physx14NpRigidDynamic17setAngularDampingEf
aqb:__ZNSt3__26vectorI8GUIStyle13stl_allocatorIS1_L18MemLabelIdentifier1ELi16EEE7reserveEj
AOh:__ZN6il2cpp6icalls8mscorlib6System9Threading6Thread27GetSerializedCurrentCultureEP12Il2CppThread
_Nf:_Array_InternalArray__IndexOf_TisUInt32_t2149682021_m3231515987_gshared
iJb:__Z31CalculateHierarchyTransformType23TransformAccessReadOnly
wsh:__ZN15dense_hashtableINSt3__24pairIK10KeyWrapperI13dynamic_arrayIPK10Il2CppTypeLj4EEEPFvvEEES8_N6il2cpp8metadata19Il2CppSignatureHashEN14dense_hash_mapIS8_SB_SF_NS8_14EqualsComparerINSE_22Il2CppSignatureCompareEEENS0_9allocatorISC_EEE9SelectKeyESJ_SL_E12resize_deltaEjj
jIb:__Z13RegisterClassI11TimeManagerEvv
yv:__ZN4FMOD8ChannelI11setPositionEjj
$dh:_Component_SendMessage_m913946877
F1h:_GC_set_fl_marks
Vmc:__ZN5physx6shdfnd8PoolBaseINS_2Sc12SimStateDataENS0_19ReflectionAllocatorIS3_EEE17releaseEmptySlabsEv
mV:__ZN17BaseObjectManager13StaticDestroyEPv
Mrg:__ZL108StackTraceUtility_t1881293839_CustomAttributesCacheGenerator_StackTraceUtility_ExtractStackTrace_m1593581205P21CustomAttributesCache
Xbe:_DBNull_System_IConvertible_ToChar_m3344298044
B4b:__ZN5physx2Gu22closestPtPointTriangleEPNS_6shdfnd3aos5Vec3VES4_S4_Rj
BKe:_X509Certificate_GetObjectData_m3888130484
fjb:__ZNSt3__26vectorIN15ResourceManager10DependencyE13stl_allocatorIS2_L18MemLabelIdentifier51ELi16EEEC2INS_11__wrap_iterIPS2_EEEET_SB_RKS5_PNS_9enable_ifIXaasr21__is_forward_iteratorISB_EE5valuesr16is_constructibleIS2_NS_15iterator_traitsISB_E9referenceEEE5valueEvE4typeE
Qwc:__ZN5physx2Cm8PtrTableC2Ev
o8e:_LinkStack_Push_m2660199875
su:__ZN4FMOD6Reverb13setPropertiesEPK22FMOD_REVERB_PROPERTIES
EIc:__ZNK5physx22NpParticleBaseTemplateINS_15PxParticleFluidENS_15NpParticleFluidEE14getRestitutionEv
QFa:__ZN9DepthPass13PrepareSubsetEjRK10RenderNodeifRK17ShaderReplaceData
u7c:__ZN5physx16PxsBroadPhaseMBP6updateEjjRKNS_23PxcBroadPhaseUpdateDataEPNS_10PxBaseTaskE
FAc:__ZN5physx9NpPhysics18createRigidDynamicERKNS_11PxTransformE
Khc:__ZN5physx6shdfnd5ArrayIPvNS0_19ReflectionAllocatorINS_2Sc18TriggerInteractionEEEE15growAndPushBackERKS2_
ssg:__ZL59WriteOnlyAttribute_t14323075_CustomAttributesCacheGeneratorP21CustomAttributesCache
sRg:_X509CertificateCollection_Add_m4008705157
bGg:_MonoMethodMessage_set_Uri_m3218581120
DPb:__Z18ExtractTagThrowingR11ICallString
W1:__ZN4PPtrI6ShaderE8TransferI19StreamedBinaryWriteILb0EEEEvRT_
Gxa:__ZZ23InitPlayerLoopCallbacksvEN40EarlyUpdatePlayerCleanupCachedDatastruct7ForwardEv
V7b:__ZN5physx2Gu17intersectRayAABB2ERKNS_6shdfnd3aos5Vec3VES5_S5_S5_RKNS2_6FloatVERS6_S9_
Vp:__ZN4core20StringStorageDefaultIcE6assignEPKcj
NBc:__ZNK5physx7NpShape17getSphereGeometryERNS_16PxSphereGeometryE
X9b:__ZL18intersectAnyVsMeshILi1EEbPKN5physx2Gu6SphereEPKNS1_7CapsuleEPKNS1_3BoxERKNS1_13RTreeMidphaseERKNS0_11PxTransformERKNS0_11PxMeshScaleEP14LimitedResults
MWh:__ZN15dense_hashtableINSt3__24pairIK10KeyWrapperIP12Il2CppObjectEN6il2cpp2gc9CachedCCWEEES5_NS7_5utils11PointerHashIS3_EEN14dense_hash_mapIS5_S9_SD_NS5_14EqualsComparerINS0_8equal_toIS4_EEEENS0_9allocatorISA_EEE9SelectKeyESI_SK_E3endEv
Gjb:__Z14resize_trimmedINSt3__26vectorIi13stl_allocatorIiL18MemLabelIdentifier12ELi16EEEEEvRT_j
TJh:__ZN15dense_hashtableINSt3__24pairIK10KeyWrapperINS1_IP11Il2CppClassjEEES4_EES6_N6il2cpp8metadata14ArrayClassHashEN14dense_hash_mapIS6_S4_SB_NS6_14EqualsComparerINSA_17ArrayClassCompareEEENS0_9allocatorIS8_EEE9SelectKeyESF_SH_E9copy_fromERKSK_j
blc:__ZN5physx6shdfnd5ArrayIPvNS0_15InlineAllocatorILj256ENS0_19ReflectionAllocatorINS_2Cm5BlockIhLj128EEEEEEEE15growAndPushBackERKS2_
G$d:_ReadOnlyArrayListWrapper_set_Item_m2199017141
pPa:__ZN6Camera6SetFarEf
nRg:_DeriveBytes_DeriveIV_m3343375195
IJd:_X509Certificate_ToString_m1582581274
mGd:_RNGCryptoServiceProvider_GetBytes_m167497991
Y3:__ZN6prcoreL12RemapGenericI17TexFormatABGR888817TexFormatARGB8888EEvPKNS_9InnerInfoE
X0a:__ZN11GameManager17MainThreadCleanupEv
tAh:__ZN6il2cpp6icalls8mscorlib6System18CollectTypeMethodsINS_5utils10functional6FilterINSt3__212basic_stringIcNS7_11char_traitsIcEENS7_9allocatorIcEEEENS4_11StringUtils23CaseInsensitiveComparerEEEEEvP11Il2CppClassPKSH_jRKT_RNS7_6vectorIPK10MethodInfoNSB_ISR_EEEERA65535_b
vlf:_TypeBuilder_get_Assembly_m492491492
fRe:_CipherSuite_set_Context_m4127897124
pEc:__ZNK5physx7NpCloth24getParticleAccelerationsEPNS_6PxVec4E
ZDd:_HMACSHA512__cctor_m1167457383
AAb:__Z25scripting_array_class_get17ScriptingClassPtrj
pXb:__ZL22Transfer_ManagedObjectI9JSONWriteLb1EEvRK29SerializationCommandArgumentsR31RuntimeSerializationCommandInfo
hfa:__ZN9GfxDevice20DestroyRenderSurfaceER12ObjectHandleI17RenderSurface_TagP17RenderSurfaceBaseE
Gsa:__ZN9GfxDevice22UpdateComputeResourcesEjPK9TextureIDPK16TextureDimensionPKijPKjjPK15ComputeBufferIDS7_PK20ComputeBufferCounterjSC_S2_S5_S9_SF_
gXa:__ZN12TLSAllocatorI14StackAllocatorE13ThreadCleanupEv
Cy:__Z18GetAudioManagerPtrv
DIg:_List_1_GetEnumerator_m2837081829_gshared
T5g:__Z67RuntimeInvoker_Void_t1841601450_Int16_t4041245914_Int16_t4041245914PK10MethodInfoPvPS2_
H$h:__ZThn4_N6il2cpp2vm13ComObjectBase16MarshalInterfaceEP13Il2CppIStreamRK10Il2CppGuidPvjS7_j
veb:__ZN4Mesh27SwizzleVertexColorsIfNeededEb
OXa:__Z27FindActiveTransformWithPathPKc
sZg:__Z63RuntimeInvoker_DSAParameters_t1872138834_BooleanU26_t3168250738PK10MethodInfoPvPS2_
eSc:__ZN5physx16PxsIslandManager14setEdgeRigidCMERKNS_20PxsIslandManagerHookIjLj4294967295EEEPNS_17PxsContactManagerE
$1a:__ZN12BaseRendererD0Ev
_Ua:__Z29StdTemplateConversionFunctionIbyEbPvR14SafeBinaryRead
VY:__ZN7Texture5ResetEv
M3g:__Z56RuntimeInvoker_TimeSpan_t3430258949_TimeSpan_t3430258949PK10MethodInfoPvPS2_
Ypc:__ZN5physx14NpArticulation25setStabilizationThresholdEf
iza:_UNITY_png_write_info
Vld:__ZN5physx2Gu11HeightField7releaseEv
UHa:__ZNK6Camera7GetNearEv
Oja:__ZN7ApiGLES11UnmapBufferEjN2gl12BufferTargetE
BXh:__ZN6il2cpp5utilsL24Utf32CharToSurrogatePairEjRA2_Ds
K8a:__Z25GetNextAllowedTextureSizeib13TextureFormat
qH:__ZN20LocalFileSystemWebGL4CopyER13FileEntryDataS1_
wnf:_GenericTypeParameterBuilder_get_ContainsGenericParameters_m1449092549
jD:__ZN19CloudServiceHandler6RetainEv
B7h:__ZN6il2cpp2os9Semaphore4WaitEb
wLd:_StrongName_Equals_m67226644
h2a:__ZN12BaseRenderer20FlattenToRenderQueueER15RenderNodeQueueRK20DeprecatedSourceData
wmf:_FieldBuilder_get_Attributes_m2174064290
Wdd:__ZN5physx2Sc8ClothSim23addCollisionHeightfieldEPKNS0_8ShapeSimE
xxe:_UnmanagedMemoryStream_get_Length_m587008850
D6:__Z34scripting_liveness_calculation_endPv
VZh:__ZN6il2cpp2os6ThreadC2Ev
nMd:_SecurityFrame_InitFromRuntimeFrame_m45195821
n8f:__ZL53TextReader_t1561828458_CustomAttributesCacheGeneratorP21CustomAttributesCache
a4e:_X509Chain_IsSignedWith_m292245392
yLf:_Array_InternalArray__ICollection_Remove_TisDateTime_t693205669_m1275668216_gshared
TGf:_Dictionary_2__ctor_m871840915_gshared
JYb:__Z18Transfer_BlittableI8JSONReadLb0E8Vector3fEvRK29SerializationCommandArgumentsR31RuntimeSerializationCommandInfo
mBg:_ChannelServices__cctor_m3534779830
nMh:__ZN6il2cpp2vm6Thread6DetachEP12Il2CppThread
z7d:_Convert_ToInt16_m416789348
Ctc:__ZNK5physx18NpArticulationLink13isSubordinateEv
vwh:__ZL24UnresolvedVirtualCall_59P12Il2CppObjectS0_aPK10MethodInfo
ABh:_il2cpp_class_get_name
wLg:_Collection_1_System_Collections_IList_set_Item_m3488446830_gshared
vYh:__ZN6il2cpp2os10ThreadImpl5SleepEjb
I6c:__ZN5physx14SapPairManager12shrinkMemoryEv
MTg:_X509ExtensionCollection_System_Collections_IEnumerable_GetEnumerator_m2600902401
Wkb:__ZN15FileSystemEntry4MoveERS_23FileSystemCopyMoveFlags
SHf:_Dictionary_2_System_Collections_Generic_IEnumerableU3CSystem_Collections_Generic_KeyValuePairU3CTKeyU2CTValueU3EU3E_GetEnumerator_m3968773920_gshared
sji:_glBindSampler__wrapper
yPg:_UnityAction_1_Invoke_m3523417209_gshared
Cf:_emscripten_set_mouseup_callback
yBb:__Z14resize_trimmedINSt3__26vectorIN9ShaderLab14SerializedPassENS0_9allocatorIS3_EEEEEvRT_j
tsa:__ZN9GfxDevice27SetRandomWriteTargetTextureEi9TextureID
V1g:__Z48RuntimeInvoker_Int64_t909078037_SByte_t454417549PK10MethodInfoPvPS2_
SUc:__ZN5physx7NpScene22removeBroadPhaseRegionEj
bic:__ZL34GeomOverlapCallback_CapsuleCapsuleRKN5physx10PxGeometryERKNS_11PxTransformES2_S5_PNS_2Gu12TriggerCacheE
zG:__ZNK18ScreenManagerWebGL8GetWidthEv
_Tc:__ZNK5physx7NpScene23getFilterShaderDataSizeEv
_uh:__ZN6il2cpp2vm13MetadataCache33GetFieldDefaultValueDataFromIndexEi
Cr:__ZN10SampleClipD2Ev
TDg:_SynchronizationAttribute_EnterContext_m2984912761
S3f:__ZL73Enum_t2459695545_CustomAttributesCacheGenerator_Enum_ToObject_m2601523252P21CustomAttributesCache
Xie:_CultureInfo_construct_internal_locale_from_name_m971766383
uYh:__ZN6il2cpp2os10ThreadImpl13SetWaitObjectEPNS0_5posix15PosixWaitObjectE
sYd:_Byte_Equals_m368616327_AdjustorThunk
MCa:__ZNSt3__224__buffered_inplace_mergeIRN10vector_mapIiN17InstancedPropInfo12PropertyTypeENS_4lessIiEE13stl_allocatorINS_4pairIiS3_EEL18MemLabelIdentifier1ELi16EEE13value_compareENS_11__wrap_iterIPS8_EEEEvT0_SH_SH_T_NS_15iterator_traitsISH_E15difference_typeESL_PNSK_10value_typeE
oge:_Enum_ToObject_m2460371738
yEe:_PrimalityTests_Test_m1088386156
_Q:__ZN14FileCacherRead13GetFileLengthEv
Jai:_readlink
vvg:_ExpressionAssertion__ctor_m2408911632
rxh:__ZL25UnresolvedVirtualCall_109P12Il2CppObjectS0_S0_iiPK10MethodInfo
Xxf:_InternalEnumerator_1_System_Collections_IEnumerator_get_Current_m4259662004_AdjustorThunk
YSf:_Array_InternalArray__get_Item_TisKeyframe_t1449471340_m1003508933_gshared
iJe:_StrongName_get_PublicKeyToken_m1968460885
uBa:__ZNK19RenderEventsContext21CleanupCommandBuffersEv
V6g:__Z87RuntimeInvoker_Boolean_t3825574718_Ray_t2469606224_Single_t2076509932_Int32_t2071877448PK10MethodInfoPvPS2_
oia:__ZN11ContextGLES6CreateEi
v9b:__ZN5physx6shdfnd5ArrayINS_10PxTriangleENS0_19ReflectionAllocatorIS2_EEE15growAndPushBackERKS2_
bre:_BinaryReader_Dispose_m4249456877
Esh:__ZN15dense_hashtableINSt3__24pairIK10KeyWrapperI13dynamic_arrayIPK10Il2CppTypeLj4EEEPFvvEEES8_N6il2cpp8metadata19Il2CppSignatureHashEN14dense_hash_mapIS8_SB_SF_NS8_14EqualsComparerINSE_22Il2CppSignatureCompareEEENS0_9allocatorISC_EEE9SelectKeyESJ_SL_E12maybe_shrinkEv
E6d:_Double_ToString_m1085043609
_zb:__Z19TransferField_ArrayI18StreamedBinaryReadILb0EE27Converter_SimpleNativeClassI17AnimationCurveTplIfEEEvRK23StaticTransferFieldInfoR31RuntimeSerializationCommandInfoRT0_
jRe:_CipherSuite_createEncryptionCipher_m1926075645
TWa:__ZN14StackAllocator16FrameMaintenanceEb
N4b:__ZL11SweepBoxBoxPKN5physx3Cct9SweepTestEPKNS0_11SweptVolumeEPKNS0_11TouchedGeomERKNS_14PxExtendedVec3ERKNS_6PxVec3ERNS0_12SweptContactE
C_a:__Z18ReadStringFromFilePN4core17string_with_labelILi1EEERKNS_12basic_stringIcNS_20StringStorageDefaultIcEEEE
BM:__ZNK10GameObject20QueryComponentByTypeEPKN5Unity4TypeE
Jof:_OpCode_GetHashCode_m2974727122
kRe:_CipherSuite_createDecryptionCipher_m1118350455
aug:_PatternCompiler_EmitReference_m1381860071
efe:_Double_System_IConvertible_ToInt16_m4200640326
ynf:_GenericTypeParameterBuilder_get_IsGenericType_m1883522222
DK:__ZL30InitializeCoreScriptingClassesv
yFg:_MethodCall_Init_m3987198685
xg:_glBlitFramebuffer
Cwa:__ZN17ArchiveFileSystem5TouchER13FileEntryData
XZc:__ZNK5physx2Sc5Scene17prefetchForRemoveERKNS0_10StaticCoreE
HVe:_SecurityParameters_set_Cipher_m3888132335
GEe:_BigInteger_GeneratePseudoPrime_m2606361440
Jke:_DateTimeFormatInfo_get_ShortTimePattern_m20923983
Arb:__Z35Transfer_Blittable_SingleValueFieldI14SafeBinaryReadhEvRT_R17GeneralMonoObjectRK23StaticTransferFieldInfo
iah:__Z57RuntimeInvoker_ContactPoint_t1376425630_Int32_t2071877448PK10MethodInfoPvPS2_
tIc:__ZN5physx22NpParticleBaseTemplateINS_15PxParticleFluidENS_15NpParticleFluidEE13setVelocitiesEjRKNS_16PxStrideIteratorIKjEERKNS4_IKNS_6PxVec3EEE
YCd:__ZN22BaseUnityConnectClientC2ERN11UnityEngine7Connect20BasePersistentValuesE
WZg:__Z129RuntimeInvoker_Int32_t2071877448_Il2CppObject_Int32_t2071877448_Int32_t2071877448_Il2CppObject_Int32_t2071877448_SByte_t454417549PK10MethodInfoPvPS2_
XHe:_EncryptedPrivateKeyInfo_get_Algorithm_m2779196942
U8e:_RemotingServices_GetRealProxy_m620317996
qGa:__ZN13dynamic_arrayI11CulledLightLj4EE6insertEPS0_PKS0_S4_
Yvf:_ArrayReadOnlyList_1_RemoveAt_m2270349795_gshared
Prh:__ZNK15dense_hashtableI10KeyWrapperIPK19Il2CppGenericMethodES4_N6il2cpp8metadata23Il2CppGenericMethodHashEN14dense_hash_setIS4_S7_NS4_14EqualsComparerINS6_26Il2CppGenericMethodCompareEEENSt3__29allocatorIS4_EEE8IdentityESB_SE_E3endEv
e6a:__ZN11Tetrahedron8TransferI18StreamedBinaryReadILb0EEEEvRT_
zn:FUNCTION_TABLE_vif
An:FUNCTION_TABLE_vid
Bn:FUNCTION_TABLE_vii
P6:__Z40scripting_liveness_calculation_from_root18ScriptingObjectPtrPv
$ya:_UNITY_png_create_write_struct
UYg:__Z149RuntimeInvoker_Boolean_t3825574718_Int32_t2071877448_Il2CppObject_Int32_t2071877448_Int32_t2071877448_Il2CppObject_Int32_t2071877448_SByte_t454417549PK10MethodInfoPvPS2_
d$:__ZN7Texture23VirtualRedirectTransferER24GenerateTypeTreeTransfer
cLb:__ZNK32RendererMaterialAnimationBinding12SetPPtrValueERKN11UnityEngine9Animation10BoundCurveEi
DTh:__ZN6il2cpp8metadata15GenericMetadata20RegisterGenericClassEP18Il2CppGenericClass
Zii:_glDeleteFramebuffers__wrapper
KMe:_BigInteger_ModInverse_m1881894572
rzh:__ZN6il2cpp2vm7Runtime17GetDelegateInvokeEP11Il2CppClass
WMc:__ZNK5physx15NpActorTemplateINS_14PxRigidDynamicEE14getOwnerClientEv
U9a:__ZN28EnlightenRendererInformation8TransferI14SafeBinaryReadEEvRT_
pag:__ZL69DefaultDependencyAttribute_t3858269114_CustomAttributesCacheGeneratorP21CustomAttributesCache
uxc:__ZN5physx12NpBatchQuery13getUserMemoryEv
yta:__ZNK15Lz4Decompressor16DecompressMemoryEPKvPjPvS2_
Fjh:_Ray_ToString_m2019179238
Gxh:__ZL25UnresolvedVirtualCall_124P12Il2CppObject38CustomAttributeNamedArgument_t94157543S1_PK10MethodInfo
d2:__Z35UnityPropertySheet_MakeSortedColorsRKNSt3__23mapIN9ShaderLab16FastPropertyNameE10ColorRGBAfNS_4lessIS2_EENS_9allocatorINS_4pairIKS2_S3_EEEEEER10vector_mapIS2_S3_S5_NS6_INS7_IS2_S3_EEEEE
wce:_Decimal_System_IConvertible_ToType_m3828527724_AdjustorThunk
Pbd:__ZN5physx2GuL34fullContactsGenerationSphereConvexERKNS0_8CapsuleVERKNS0_11ConvexHullVERKNS_6shdfnd3aos12PsTransformVESB_PNS0_17PersistentContactERjRNS0_13ContactBufferEbRNS0_25PersistentContactManifoldERNS8_5Vec3VERKNS8_6FloatVEb
zNc:__ZN5physx19NpRigidBodyTemplateINS_14PxRigidDynamicEE16setRigidBodyFlagENS_15PxRigidBodyFlag4EnumEb
zOe:_HMAC_get_Key_m2528863640
PNe:_ASN1_get_Count_m3992276234
Rkc:__ZN5physx6shdfnd8PoolBaseINS_2Sc19ConstraintGroupNodeENS0_19ReflectionAllocatorIS3_EEE17releaseEmptySlabsEv
brb:__Z29Transfer_Blittable_ArrayFieldI14SafeBinaryRead8Vector4fEvRT_R9ArrayInfoRK23StaticTransferFieldInfo
XBg:_ConfigHandler_CheckPath_m2296459741
N0b:__ZN5physx3Cct8SweptBoxD2Ev
Lgi:_glClientWaitSync__wrapper
k2c:__ZN5physx2Cm12DelegateTaskINS_13PxsCCDContextEXadL_ZNS2_12postCCDSweepEPNS_10PxBaseTaskEEEED0Ev
Ice:_Decimal_System_IConvertible_ToInt16_m3159038792
kjc:__ZN5physx3Scb5Scene20addArticulationJointERNS0_17ArticulationJointE
Zcc:__ZN5physx3Cct9SweepTest15onObstacleAddedEjPKNS_17PxObstacleContextERKNS_6PxVec3ES7_f
Bic:__ZN5physx2Gu10SupportMapD2Ev
eab:__ZN4PPtrI11LightProbesE8TransferI18StreamedBinaryReadILb0EEEEvRT_
Pzg:_ComVisibleAttribute__ctor_m1789587486
Ksc:__ZNK5physx15NpActorTemplateINS_18PxArticulationLinkEE22getClientBehaviorFlagsEv
Wrf:_MonoMethodInfo_GetReturnType_m2864247130
dMa:__ZN13RenderManager29SetCurrentCameraAndStackStateEP6CameraP25CameraStackRenderingState
gLh:__ZN15dense_hashtableINSt3__24pairIK10KeyWrapperINS1_IP11Il2CppClassjEEES4_EES6_N6il2cpp8metadata14ArrayClassHashEN14dense_hash_mapIS6_S4_SB_NS6_14EqualsComparerINSA_17ArrayClassCompareEEENS0_9allocatorIS8_EEE9SelectKeyESF_SH_E12resize_deltaEjj
Mh:_JS_WebRequest_Release
ose:_DirectoryNotFoundException__ctor_m2242202556
ljh:_Physics_Raycast_m2308457076
Lsc:__ZNK5physx15NpActorTemplateINS_18PxArticulationLinkEE12getAggregateEv
JB:__ZN11UnityEngine15CloudWebService14DataErrorEventD0Ev
XPd:_String_CreateString_m2448464375
F5e:_X509SubjectKeyIdentifierExtension__ctor_m2959112706
Lpf:_FieldInfo_get_IsNotSerialized_m2322769148
BUc:__ZNK5physx7NpScene18getStaticStructureEv
xjg:__ZL68Math_t2022911894_CustomAttributesCacheGenerator_Math_Max_m2671311541P21CustomAttributesCache
n2c:__ZN5physx13PxsCCDContext12postCCDSweepEPNS_10PxBaseTaskE
zTh:__ZN6il2cpp8metadata15GenericMetadata7InflateEPK19Il2CppGenericMethodPK20Il2CppGenericContext
hCa:__ZN19ShaderPropertySheet16SetArrayPropertyEN9ShaderLab16FastPropertyNameENS_12PropertyTypeEPKvj
Prf:_MonoGenericCMethod_get_ReflectedType_m2689239043
eGa:__ZN22PerThreadPageAllocatorC2Ev
sWh:__ZN15dense_hashtableINSt3__24pairIK10KeyWrapperIP12Il2CppObjectEN6il2cpp2gc9CachedCCWEEES5_NS7_5utils11PointerHashIS3_EEN14dense_hash_mapIS5_S9_SD_NS5_14EqualsComparerINS0_8equal_toIS4_EEEENS0_9allocatorISA_EEE9SelectKeyESI_SK_E16reset_thresholdsEv
Pqd:__ZN5physx6shdfnd10Foundation19AlignCheckAllocator28deregisterAllocationListenerERNS_20PxAllocationListenerE
ksc:__ZN5physx2Sc21ArticulationJointCore12setChildPoseERKNS_11PxTransformE
KAf:_InternalEnumerator_1_get_Current_m4083613828_gshared
RSd:_UnicodeEncoding_GetString_m542738941
Pre:_Path_InsecureGetFullPath_m2635272425
s4d:_Enumerator_Clone_m1124749523
B4c:__ZN5physx33solveContactCoulombBlockWriteBackEPKNS_23PxcSolverConstraintDescEjRNS_16PxcSolverContextEPNS_25PxcThresholdStreamElementEjPi
Eef:_RuntimeMethodHandle__ctor_m1162528746
NHh:__ZN15dense_hashtableINSt3__24pairIK10KeyWrapperIPK14Il2CppAssemblyEPK16MonoAssemblyNameEES6_N6il2cpp5utils11PointerHashIS4_EEN14dense_hash_mapIS6_SA_SF_NS6_14EqualsComparerINS0_8equal_toIS5_EEEENS0_9allocatorISB_EEE9SelectKeyESK_SM_E16reset_thresholdsEv
ocd:__ZN5physx9PxTaskMgr17submitUnnamedTaskERNS_6PxTaskENS_10PxTaskType4EnumE
Ygf:_DSA__ctor_m613430209
$ka:__ZN7Texture21GetMasterTextureLimitEv
FQa:__Z12CanAddScriptR10GameObject17ScriptingClassPtrPS1_S2_
CJh:__ZN6il2cpp2vm10Reflection12HasAttributeEP12Il2CppObjectP11Il2CppClass
xAa:_UNITY_png_write_sRGB
O_b:__ZN8JSONRead21TransferSTLStyleArrayI13dynamic_arrayI4AABBLj4EEEEvRT_18MemLabelIdentifier17TransferMetaFlags
LM:__ZN9ShaderLabL25StaticInitializeShaderLabEPv
kIf:_Dictionary_2_ContainsKeyValuePair_m3818021458_gshared
g0c:__ZNK5physx2Sq12BucketPruner5sweepERKNS0_9ShapeDataERKNS_6PxVec3ERfRNS0_14PrunerCallbackE
U:Math_max
axh:__ZL24UnresolvedVirtualCall_92P12Il2CppObjectPK10MethodInfo
zBh:_il2cpp_class_get_methods
Sre:_Path_CanonicalizePath_m383914732
M_d:_ArrayList_Synchronized_m2395071980
$Zh:__ZN6il2cpp2os6Thread16GetCurrentThreadEv
KNb:__ZN10GameObject13ComponentPair15SetComponentPtrEPN5Unity9ComponentE
dxd:__ZN5physx6shdfnd8internal8HashBaseINS0_4PairIKPKNS0_14NamedAllocatorEPKcEES6_NS0_4HashIS6_EENS1_11HashMapBaseIS6_S9_SC_NS0_20NonTrackingAllocatorEE6GetKeyESE_Lb1EE15reserveInternalEj
rxe:_UnexceptionalStreamWriter_Write_m3206913035
XHb:__Z13RegisterClassI10MeshFilterEvv
V1a:__ZN10TagManager8TransferI19StreamedBinaryWriteILb0EEEEvRT_
Wnb:__ZN11PreloadData23VirtualRedirectTransferER18StreamedBinaryReadILb0EE
Wgf:_DESTransform_ProcessBlock_m2826669227
A5g:__Z115RuntimeInvoker_Void_t1841601450_Il2CppObject_Int32_t2071877448_Int32_t2071877448_SByte_t454417549_Int32_t2071877448PK10MethodInfoPvPS2_
Lne:_Int16_CompareTo_m3493496879
jpg:__ZL56RenderTexture_t2666733923_CustomAttributesCacheGeneratorP21CustomAttributesCache
qcb:__ZN6Sprite17MainThreadCleanupEv
bmg:__ZL56OidCollection_t3790243618_CustomAttributesCacheGeneratorP21CustomAttributesCache
Heg:__ZL61SignatureDescription_t89145500_CustomAttributesCacheGeneratorP21CustomAttributesCache
Qw:__ZN10AudioMixer14UpdateMuteSoloEv
gBa:__Z17GetMonoManagerPtrv
Ndh:_Component_GetComponents_m637589504
Zzc:__ZN5physx6shdfnd5ArrayINS_3Scb13MaterialEventENS0_19ReflectionAllocatorIS3_EEE15growAndPushBackERKS3_
yKg:_Stack_1_System_Collections_ICollection_get_SyncRoot_m3151629354_gshared
R$:__ZN9ShaderLab10SubProgram7CompileEv
cka:__ZN7ApiGLES16SetPatchVerticesEi
Gmc:__ZN5physx2Sc5Scene11onBodySleepEPNS0_7BodySimE
gua:__ZN10MemoryFileC2E18MemLabelIdentifierP14MemoryFileData14FilePermission
aaf:_TrackingServices_NotifyUnmarshaledObject_m1794048369
Snh:__ZN6il2cpp2vm5Class20FromGenericParameterEPK22Il2CppGenericParameter
Pcg:__ZL59RemotingServices_t2399536837_CustomAttributesCacheGeneratorP21CustomAttributesCache
v1b:__ZL28GeomMTDCallback_PlaneCapsuleRN5physx6PxVec3ERfRKNS_10PxGeometryERKNS_11PxTransformES5_S8_
MU:__ZN15GlobalCallbacksC2Ev
TYa:__ZN11AssetBundle8TransferI14SafeBinaryReadEEvRT_
_Qf:_Array_InternalArray__set_Item_TisLabelFixup_t4090909514_m565370771_gshared
zzc:__ZNK5physx10NpMaterial18getDynamicFrictionEv
Vkg:__ZL74X509Crl_t1699034837_CustomAttributesCacheGenerator_U3CU3Ef__switchU24map13P21CustomAttributesCache
Udf:_SerializationEntry__ctor_m1619256036_AdjustorThunk
Txa:__ZZ23InitPlayerLoopCallbacksvEN43PostLateUpdatePlayerSendFrameCompletestruct7ForwardEv
nLd:__Z15CastclassSealedP12Il2CppObjectP11Il2CppClass
Aqe:_IntPtr_System_Runtime_Serialization_ISerializable_GetObjectData_m21554269_AdjustorThunk
uAc:__ZN5physx9NpPhysics16createConvexMeshERNS_13PxInputStreamE
Grb:__Z18Transfer_BlittableI17RemapPPtrTransferLb1EhEvRK29SerializationCommandArgumentsR31RuntimeSerializationCommandInfo
X$h:__ZNSt3__26vectorIjNS_9allocatorIjEEE26__swap_out_circular_bufferERNS_14__split_bufferIjRS2_EE
MOa:__ZN16ReflectionProbes40UpdateRealtimeReflectionProbesTimeslicedEv
_Uh:__ZNSt3__26__treeINS_12__value_typeIP24Il2CppReflectionAssemblyPvEENS_19__map_value_compareIS3_S5_NS_4lessIS3_EELb1EEENS_9allocatorIS5_EEE16__insert_node_atEPNS_16__tree_node_baseIS4_EERSF_SF_
Wnf:_MethodBuilder_GetBaseDefinition_m774166361
Tlc:__ZN5physx2Sq17SceneQueryManager8addShapeERKNS_7NpShapeERKNS_12PxRigidActorEbPNS_9PxBounds3E
KKb:__ZN16ReflectionProbes15InitializeClassEv
y5h:__ZN6il2cpp5utils5MatchENSt3__212basic_stringIcNS1_11char_traitsIcEENS1_9allocatorIcEEEEjRKS7_j
Lth:__ZNK15dense_hashtableINSt3__24pairIK10KeyWrapperIPK11Il2CppClassEPKcEES6_N6il2cpp5utils11PointerHashIS3_EEN14dense_hash_mapIS6_S9_SE_NS6_14EqualsComparerINS0_8equal_toIS5_EEEENS0_9allocatorISA_EEE9SelectKeyESJ_SL_E12test_deletedEj
Etg:_MRUList_Evict_m2430323183
_Th:__ZN6il2cpp2vm5Image9GetCorlibEv
exe:_NullTextWriter_Write_m2306984725
JVh:__ZN6il2cpp2vm11MethodStack17GetStackFramesRawEv
pWe:_RecordProtocol_ProcessChangeCipherSpec_m3233959862
xdh:_Component_GetComponent_m4225719715
i4c:__ZNK5physx2Gu29EPASupportMapPairRelativeImplINS0_8CapsuleVES2_E9doSupportERKNS_6shdfnd3aos5Vec3VERS6_S9_S9_
_pd:__ZN5physx10SubSortSAH5sort4EPjjRNS_6shdfnd5ArrayINS_11RTreeNodeNQENS2_19ReflectionAllocatorIS4_EEEERjjPS4_
$we:_TextWriter_Write_m576684782
Jj:_glIsVertexArray
Zjb:__ZNSt3__26vectorIN4core12basic_stringIcNS1_20StringStorageDefaultIcEEEE13stl_allocatorIS5_L18MemLabelIdentifier12ELi16EEEC2INS_11__wrap_iterIPS5_EEEET_SE_RKS8_PNS_9enable_ifIXaasr21__is_forward_iteratorISE_EE5valuesr16is_constructibleIS5_NS_15iterator_traitsISE_E9referenceEEE5valueEvE4typeE
fua:__ZN25SingleBlockMemoryFileDataC2E18MemLabelIdentifierPvjb
hYa:__ZN5Unity9Component8TransferI18StreamedBinaryReadILb0EEEEvRT_
fa:invoke_fff
AIg:_List_1_Clear_m4254626809_gshared
lgi:b14
GVe:_TlsServerHello_Update_m1740270635
mwd:__ZN5physx2Sc7PhysicsC2ERKNS_17PxTolerancesScaleERKNS_14PxvOffsetTableE
Jph:__ZN13Il2CppHashMapIPK19Il2CppGenericMethodPK26Il2CppGenericMethodIndicesN6il2cpp8metadata23Il2CppGenericMethodHashENS7_26Il2CppGenericMethodCompareENSt3__29allocatorINSA_4pairIK10KeyWrapperIS2_ES5_EEEEEC2EjRKS8_RKS9_
ttg:_MatchCollection_get_Item_m2609281578
Vqa:__ZN7ApiGLES13CreateProgramEv
P3a:__ZN11HaloManager7AddHaloEv
ZTf:_UTF8Encoding__ctor_m100325490
mla:__ZN4crnd12crn_unpackerD2Ev
Wj:_emscripten_glTexImage2D
hGg:_ObjRefSurrogate_SetObjectData_m1873902916
vK:__ZN18ScriptingArguments9AddStringEPKc
O2h:_setup_header
Nng:__ZL116Component_t3819376471_CustomAttributesCacheGenerator_Component_GetComponentsInParent_m1920178904____includeInactive1P21CustomAttributesCache
hdi:runPostSets
h4c:__ZNK5physx2Gu29EPASupportMapPairRelativeImplINS0_8CapsuleVES2_E18doWarmStartSupportEiiRNS_6shdfnd3aos5Vec3VES7_S7_
p9:__ZL23stbir__resize_arbitraryPvPKviiiS_iiiffffPfiij14stbir_datatype12stbir_filterS4_10stbir_edgeS5_16stbir_colorspace
wtb:__Z18Transfer_BlittableI24GenerateTypeTreeTransferLb1E8Vector4fEvRK29SerializationCommandArgumentsR31RuntimeSerializationCommandInfo
joe:_Int16_ToString_m3971652088_AdjustorThunk
xxh:__ZL25UnresolvedVirtualCall_115P12Il2CppObjecttaaPK10MethodInfo
fk:_pthread_detach
nyh:__ZN6il2cpp2vm19SocketPollingThread7RunLoopEv
z5e:_X509ExtensionEnumerator_Reset_m3200687545
CFg:_MethodDictionary_AllocInternalProperties_m3261295876
T2g:__Z197RuntimeInvoker_Boolean_t3825574718_Il2CppObject_Il2CppObject_Il2CppObject_Int32_t2071877448_DateTimeU26_t3448131235_SByte_t454417549_BooleanU26_t3168250738_SByte_t454417549_ExceptionU26_t1467204777PK10MethodInfoPvPS2_
q$c:__ZN5physx11EdgeManager6resizeEj
$ba:__ZNSt3__213__stable_sortIRN10vector_mapI17ScriptingClassPtrPKN5Unity4TypeENS_4lessIS2_EENS_9allocatorINS_4pairIS2_S6_EEEEE13value_compareENS_11__wrap_iterIPSB_EEEEvT0_SJ_T_NS_15iterator_traitsISJ_E15difference_typeEPNSM_10value_typeEi
rmg:__ZL77U3CPrivateImplementationDetailsU3E_t1486305139_CustomAttributesCacheGeneratorP21CustomAttributesCache
WDb:__ZN9ShaderLab25SerializedTextureProperty8TransferI24GenerateTypeTreeTransferEEvRT_
TZa:__ZN15dense_hashtableINSt3__24pairIKN4core12basic_stringIcNS2_20StringStorageDefaultIcEEEEP11AssetBundleEES6_20StringHash32FunctionIS6_EN14dense_hash_mapIS6_S9_SC_NS0_8equal_toIS6_EENS0_9allocatorISA_EEE9SelectKeyESF_SH_E12resize_deltaEjj
Eni:_emscripten_glIsShader__wrapper
uHh:__ZN6il2cpp2gc19AppendOnlyGCHashMapINSt3__24pairIPK14Il2CppAssemblyP11Il2CppClassEEP24Il2CppReflectionAssembly17ReflectionMapHashIS9_ENS2_8equal_toIS9_EEEC2Ev
Uga:__ZN13GfxDeviceGLES28GetNativeVertexBufferPointerEP9GfxBuffer
iOc:__ZN5physx2Sc5Scene12removeStaticERNS0_10StaticCoreERNS_6shdfnd11InlineArrayIPKNS0_9ShapeCoreELj64ENS4_19ReflectionAllocatorIS8_EEEEb
g_:__ZN11NamedObject8TransferI18StreamedBinaryReadILb0EEEEvRT_
Tpa:__ZNK17GPUSkinPoseBuffer12GetBoneCountEv
Ldf:_DelegatePInvokeWrapper_CallbackHandler_t362827733
Sjg:__ZL59ResolveEventArgs_t1859808873_CustomAttributesCacheGeneratorP21CustomAttributesCache
HPg:_UnityAction_1_BeginInvoke_m3462722079_gshared
ySh:__ZNK15dense_hashtableINSt3__24pairIK10KeyWrapperIP14Il2CppIUnknownEjEES5_N6il2cpp5utils11PointerHashIS3_EEN14dense_hash_mapIS5_jSB_NS5_14EqualsComparerINS0_8equal_toIS4_EEEENS0_9allocatorIS7_EEE9SelectKeyESG_SI_E12test_deletedEj
Dpf:_EventInfo_get_MemberType_m3337516651
uZb:__Z18Transfer_BlittableI8JSONReadLb1EyEvRK29SerializationCommandArgumentsR31RuntimeSerializationCommandInfo
Ck:_emscripten_glMatrixMode
U8f:__ZL93TypeBuilder_t3308873219_CustomAttributesCacheGenerator_TypeBuilder_GetConstructors_m774120094P21CustomAttributesCache
cte:_NotSupportedException__ctor_m836173213
rRc:__ZN5physx2Sc10NPhaseCore25createShapeInstancePairLLERNS0_8ShapeSimES3_NS_7PxFlagsINS_10PxPairFlag4EnumEtEE
TFg:_MethodReturnDictionary__ctor_m756139344
dB:__ZN11UnityEngine15CloudWebService14DataDispatcher16PrepareDataBlockERNS0_16SessionContainerE
kra:__ZN18GfxFramebufferGLES5ClearE13GfxClearFlagsRK10ColorRGBAffib
wSc:__ZThn8_N5physx2Sc19ShapeInstancePairLL12onDeactivateEj
exf:_InternalEnumerator_1__ctor_m967618647_gshared
aah:__Z62RuntimeInvoker_ParameterModifier_t1820634920_Int32_t2071877448PK10MethodInfoPvPS2_
rzb:__ZL26Transfer_SimpleNativeClassI18StreamedBinaryReadILb0EE10RectOffsetLb0EEvRK29SerializationCommandArgumentsR31RuntimeSerializationCommandInfo
BFa:__ZL12DepthPassJobPN21GfxDeviceAsyncCommand10ArgScratchEPKNS_3ArgE
zCb:__ZNSt3__26vectorIN9ShaderLab20SerializedSubProgram16TextureParameterENS_9allocatorIS3_EEE6assignINS_11__wrap_iterIPS3_EEEENS_9enable_ifIXaasr21__is_forward_iteratorIT_EE5valuesr16is_constructibleIS3_NS_15iterator_traitsISC_E9referenceEEE5valueEvE4typeESC_SC_
Cqe:_IntPtr_Equals_m1214967011_AdjustorThunk
Ard:__ZN9Rigidbody16ApplyConstraintsEv
uIb:__Z13RegisterClassI19LowerResBlitTextureEvv
Gm:FUNCTION_TABLE_iiiiiiiiiiii
_Jc:__ZN5physx2Sc17ParticleSystemSim8setFlagsEj
q3a:__ZN16GraphicsSettingsD0Ev
FUa:__Z29StdTemplateConversionFunctionIshEbPvR14SafeBinaryRead
DNa:__ZN15LODGroupManager21CalculateLODDataArrayERK13LODParametersPK6Cameraf
n:cttz_i8
Sod:__ZN5physx2Gu15EdgeListBuilder18CreateEdgesToFacesEjPKjPKt
g9b:__ZN5physx11PxMeshQuery5sweepERKNS_6PxVec3EfRKNS_10PxGeometryERKNS_11PxTransformEjPKNS_10PxTriangleERNS_10PxSweepHitENS_7PxFlagsINS_9PxHitFlag4EnumEtEEPKjfb
Btg:_MRUList__ctor_m2726533367
Nke:_DateTimeFormatInfo_get_FullDateTimePattern_m2607507656
eWe:_HttpsClientStream_RaiseServerCertificateValidation_m3356770426
$4f:__ZL73Il2CppArray_CustomAttributesCacheGenerator_Array_BinarySearch_m3052238307P21CustomAttributesCache
iee:_DelegateSerializationHolder__ctor_m3915060553
akb:__ZN15SerializeTraitsINSt3__26vectorIN30RuntimeInitializeOnLoadManager9ClassInfoE13stl_allocatorIS3_L18MemLabelIdentifier12ELi16EEEEE8TransferI24GenerateTypeTreeTransferEEvRS7_RT_
yl:_emscripten_glViewport
_$h:__ZN6il2cpp6icalls8mscorlib6System15MonoCustomAttrs17IsDefinedInternalEP12Il2CppObjectP20Il2CppReflectionType
feb:__ZN4Mesh21UnswizzleVertexColorsEb
TV:__ZN30dense_hashtable_const_iteratorINSt3__24pairIKN4core12basic_stringIcNS2_20StringStorageDefaultIcEEEEP11AssetBundleEES6_20StringHash32FunctionIS6_EN14dense_hash_mapIS6_S9_SC_NS0_8equal_toIS6_EENS0_9allocatorISA_EEE9SelectKeyESF_SH_EppEv
vVe:_TlsServerSettings_set_CertificateTypes_m264196087
uyf:_InternalEnumerator_1__ctor_m4150855019_gshared
lbe:_DateTime_ToString_m2276663647_AdjustorThunk
Tsd:__ZThn28_N14PhysicsManagerD0Ev
Icd:__ZN5physx2Sc27ConstraintProjectionManagerC2Ev
uac:__Z14raycast_sphereRKN5physx10PxGeometryERKNS_11PxTransformERKNS_6PxVec3ES8_fNS_7PxFlagsINS_9PxHitFlag4EnumEtEEjPNS_12PxRaycastHitEbPFbRSD_PvESG_
Yq:__GLOBAL__sub_I_runtime_animation2_lump_cpp
_hb:__ZN14PlayerSettings23VirtualRedirectTransferER18StreamedBinaryReadILb0EE
f8h:__ZN6il2cpp2os5Event5ResetEv
aLa:__Z26CombineDepthNormalsTextureRK17RenderLoopContextR13dynamic_arrayI16RenderObjectDataLj4EE
Mkh:_AesManaged__ctor_m2322442838
lTh:__ZN6il2cpp8metadata15GenericMetadata17InflateParametersEPK13ParameterInfohPK20Il2CppGenericContextb
Npe:_Int64_System_IConvertible_ToUInt32_m850395426_AdjustorThunk
aO:__ZN18AwakeFromLoadQueue28InvokePersistentManagerAwakeEPNS_4ItemEj17AwakeFromLoadMode
r2a:__ZN6Camera13AwakeFromLoadE17AwakeFromLoadMode
WDd:_HMACSHA512__ctor_m2390736870
Chd:__ZNK5physx2Cm12DelegateTaskINS_2Sc5SceneEXadL_ZNS3_23postIslandGenSecondPassEPNS_10PxBaseTaskEEEE7getNameEv
sgb:__ZN4PPtrI6SpriteE8TransferI18StreamedBinaryReadILb0EEEEvRT_
fmf:_TypeBuilder_GetInterfaces_m1818658502
Vje:_NumberFormatter_AppendIntegerString_m868842252
yMe:_BigInteger_op_Equality_m2683055762
PW:__Z25SetNeedToPerformRenderingb
isf:_MonoMethod_GetPseudoCustomAttributes_m466965107
$vg:__ZN21InterfaceFuncInvoker0IP19LinkRef_t2090853131E6InvokeEjP11Il2CppClassP12Il2CppObject
pJa:__ZNSt3__227__insertion_sort_incompleteIR23CompareReflectionProbesP31RuntimeReflectionProbeBlendInfoEEbT0_S5_T_
PFa:__ZN14qsort_internal30FindAndMovePivotToLastPositionIP15RODataDepthPassi17ROSorterDepthPassEEvT_S4_T0_T1_
d7f:__ZL53SortedList_t3004938869_CustomAttributesCacheGeneratorP21CustomAttributesCache
elh:_ResourceRequest_t2560315377_marshal_pinvoke
lFf:_Enumerator_System_Collections_IDictionaryEnumerator_get_Value_m3005608231_gshared
Qvh:__ZL24UnresolvedVirtualCall_26P12Il2CppObjectS0_iiPK10MethodInfo
k3c:__ZN5physxL27PxcSweepAnyShapeHeightfieldERKNS_11PxsCCDShapeES2_PKNS_12PxsRigidBodyES5_RKNS_11PxTransformES8_fRNS_6PxVec3ESA_RNS_10PxcNpCacheERNS_18PxcNpThreadContextE
KNa:__ZN12CullingGroup10SendEventsEPK17CullingGroupEventj
gGe:_DSAManaged_GenerateKeyPair_m2711647034
pTa:__ZN13sorted_vectorINSt3__24pairIN4core12basic_stringIcNS2_20StringStorageDefaultIcEEEES6_EEN10vector_mapIS6_S6_27compare_tstring_insensitiveIS6_E13stl_allocatorIS7_L18MemLabelIdentifier37ELi16EEE13value_compareESD_E9erase_oneIS6_EEjRKT_
Mab:__ZThn32_NK8Renderer8GetLayerEv
LOf:_Array_InternalArray__ICollection_Add_TisResourceCacheItem_t333236149_m1151081240_gshared
q_c:__ZN5physx3Scb5SceneD2Ev
P7d:_Convert_ToInt32_m2209788057
DUh:__ZN30dense_hashtable_const_iteratorINSt3__24pairIK10KeyWrapperINS1_IPKcS4_EEEiEES6_24NamespaceAndNamePairHashN14dense_hash_mapIS6_iS9_NS6_14EqualsComparerI26NamespaceAndNamePairEqualsEENS0_9allocatorIS8_EEE9SelectKeyESD_SF_E30advance_past_empty_and_deletedEv
xbf:_SoapServices_GetXmlTypeForInteropType_m3821579913
Dli:_emscripten_glTexParameterfv__wrapper
Nwg:_CaptureAssertion_IsComplex_m1433259302
pCh:_il2cpp_method_get_param_count
fHb:__ZN10systeminfo19ISOToSystemLanguageERN4core12basic_stringIcNS0_20StringStorageDefaultIcEEEE
nGh:__ZNK15dense_hashtableINSt3__24pairIK10KeyWrapperINS1_IPK12PropertyInfoP11Il2CppClassEEEjEES9_17ReflectionMapHashIS8_EN14dense_hash_mapIS9_jSD_NS9_14EqualsComparerINS0_8equal_toIS8_EEEENS0_9allocatorISB_EEE9SelectKeyESI_SK_E3endEv
Jrd:__Z16GetDynamicsScenev
CRc:__ZThn8_N5physx2Sc18TriggerInteraction7destroyEv
lmg:__ZL68Uri_t19570940_CustomAttributesCacheGenerator_U3CU3Ef__switchU24map15P21CustomAttributesCache
BKd:_String_IndexOfUnchecked_m3356721554
z9a:__ZN16LightmapSettings8TransferI14SafeBinaryReadEEvRT_
yma:__ZN17BufferManagerGLES13ReleaseBufferEP14DataBufferGLES
Zic:__ZN5physx6shdfnd5ArrayIPvNS0_19ReflectionAllocatorINS_16NpConnectorArrayEEEE15growAndPushBackERKS2_
MXg:__Z94RuntimeInvoker_Int32_t2071877448_Il2CppObject_Int32_t2071877448_Int32_t2071877448_Il2CppObjectPK10MethodInfoPvPS2_
zQc:__ZN5physx2Sc5Scene15prepareSimulateEv
sZb:__Z18Transfer_BlittableI8JSONReadLb1EjEvRK29SerializationCommandArgumentsR31RuntimeSerializationCommandInfo
Dkc:__ZN5physx6shdfnd5ArrayIPNS_2Sc11InteractionENS0_19ReflectionAllocatorIS4_EEE8recreateEj
hRg:_PKCS12_Decrypt_m1557069392
d1e:_WebHeaderCollection_ToString_m1246460752
Jyf:_InternalEnumerator_1_System_Collections_IEnumerator_get_Current_m2842514953_AdjustorThunk
Mo:stackSave
Veh:_DebugLogHandler__ctor_m3134219506
hWa:__ZN16MemoryFileSystem5TouchER13FileEntryData
jTh:__ZNK15dense_hashtableI10KeyWrapperIP18Il2CppGenericClassES3_N6il2cpp8metadata22Il2CppGenericClassHashEN14dense_hash_setIS3_S6_NS3_14EqualsComparerINS5_25Il2CppGenericClassCompareEEENSt3__29allocatorIS3_EEE8IdentityESA_SD_E12test_deletedERK30dense_hashtable_const_iteratorIS3_S3_S6_SF_SA_SD_E
VFd:_RIPEMD160Managed_JJ_m2933451431
czd:__Z63Register_UnityEngine_Physics_INTERNAL_CALL_Internal_RaycastTestv
xEd:_MACTripleDES_Initialize_m1318099802
lPe:_MD5SHA1_VerifySignature_m507888141
FXd:_Byte_System_IConvertible_ToChar_m4188836679
vke:_NumberFormatter_InitDecHexDigits_m2036076025
QFf:_Enumerator_get_CurrentKey_m3839846791_AdjustorThunk
d_b:__ZN8JSONRead21TransferSTLStyleArrayI13dynamic_arrayIaLj1EEEEvRT_18MemLabelIdentifier17TransferMetaFlags
vPa:__ZN6Camera9SetAspectEf
cDc:__ZN5physx6shdfnd8internal8HashBaseIPNS_7PxActorES4_NS0_4HashIS4_EENS1_11HashSetBaseIS4_S6_NS0_9AllocatorELb0EE6GetKeyES8_Lb0EE6createERKS4_Rb
LMe:_Kernel_modInverse_m3230829577
fza:_UNITY_png_set_write_fn
n_f:_UInt32_TryParse_m3987111861
Wmi:_emscripten_glBindVertexArray__wrapper
POe:_MD4__ctor_m2366413460
Zeh:_Display__ctor_m563295973
YHf:_Dictionary_2_InitArrays_m435313205_gshared
zr:__ZN10ObjectPoolIN4FMOD3DSPENS0_4DSPIEE7GetFreeEi
rQa:__ZN9Transform37InitializeTransformHierarchyRecursiveER18TransformHierarchyRii
hJb:__Z34DefaultPrepareDispatchBoundsUpdateR13RendererScene18MemLabelIdentifier
Owh:__ZL24UnresolvedVirtualCall_78P12Il2CppObjectPK10MethodInfo
vEe:_ModulusRing_Pow_m1137250399
o3e:_X509Chain_Build_m2341271288
LBa:__ZN17MeshRenderingData4InitEP4MeshS1_iP15SharedGfxBufferS3_
VQe:_CipherSuite_get_HashAlgorithmType_m3902365773
b2d:_Hashtable__cctor_m2952659675
o5e:_X509ChainStatus__ctor_m3628359961_AdjustorThunk
Cib:__ZN10VRSettings8TransferI19StreamedBinaryWriteILb0EEEEvRT_
EPc:__ZN5physx2Sc9StaticSim21postActor2WorldChangeEv
SKd:_Evidence_get_HostEvidenceList_m2095478124
nSe:_Context_Clear_m4000337070
fha:__ZN13GfxDeviceGLES26SetRandomWriteTargetBufferEi15ComputeBufferID
yaa:__ZN18BlockRangeInternal16PopLastNodeIndexEP10BlockRangeji
Evc:__ZN5physx6shdfnd4sortIPvNS0_4LessIS2_EENS0_19ReflectionAllocatorINS_2Cm5BlockIhLj256EEEEEEEvPT_jRKT0_RKT1_j
QZa:__ZN18AssetBundleManager19RegisterAssetBundleEP11AssetBundle
pFh:__ZN6il2cpp2gc19AppendOnlyGCHashMapINSt3__24pairIPK11Il2CppImageP11Il2CppClassEEP22Il2CppReflectionModule17ReflectionMapHashIS9_ENS2_8equal_toIS9_EEE10CopyValuesEPv
Fmd:__ZN5physx20InternalTriangleMesh7releaseEv
R1c:__ZN5physx6shdfnd5ArrayINS_16PxsCCDBlockArrayINS_13PxsCCDOverlapELi128EE9BlockInfoENS0_19ReflectionAllocatorIS5_EEE15growAndPushBackERKS5_
Slc:__ZNK5physx7NpShape8getFlagsEv
FPb:__ZNK11ICallString6ToUTF8Ev
Lwg:_CaptureAssertion_get_Alternate_m2729005740
T0h:_GC_number_stack_black_listed
KSh:__ZN24dense_hashtable_iteratorINSt3__24pairIK10KeyWrapperIP14Il2CppIUnknownEjEES5_N6il2cpp5utils11PointerHashIS3_EEN14dense_hash_mapIS5_jSB_NS5_14EqualsComparerINS0_8equal_toIS4_EEEENS0_9allocatorIS7_EEE9SelectKeyESG_SI_E30advance_past_empty_and_deletedEv
Fjf:_Default_SelectMethod_m3081239996
mNc:__ZN5physx19NpRigidBodyTemplateINS_14PxRigidDynamicEE25setMassSpaceInertiaTensorERKNS_6PxVec3E
rFc:__ZNK5physx7NpCloth16getContactOffsetEv
fR:__ZN12FileAccessor4ReadEyyPvPy
O$:__ZN13dynamic_arrayI16ShaderKeywordSetLj4EE6insertEPS0_PKS0_S4_
rAb:__Z29Transfer_Blittable_ArrayFieldI18StreamedBinaryReadILb0EE11QuaternionfEvRT_R9ArrayInfoRK23StaticTransferFieldInfo
DFg:_MethodDictionary_IsOverridenKey_m3922224650
m3d:_SyncHashtable_Contains_m3042906549
KPb:__Z21GetSceneHierarchyPathPK6Object
E5e:_X509KeyUsageExtension_CopyFrom_m931530012
WOa:__ZN13RenderTexture9SetHeightEi
u6a:__ZN16LevelGameManager8TransferI24GenerateTypeTreeTransferEEvRT_
RQh:__ZN6il2cpp6icalls8mscorlib6System2IO6MonoIO17GetFileAttributesEP12Il2CppStringPi
mkf:_CustomAttributeTypedArgument_GetHashCode_m999147081
RK:__Z24scripting_class_get_name17ScriptingClassPtr
_S:__ZN13RuntimeStaticI15GUIEventManagerLb0EE13StaticDestroyEPv
ooa:__ZN7ApiGLES14TextureSamplerEjj17TextureFilterMode15TextureWrapModeifb18ShadowSamplingModeN2gl17TextureSrgbDecodeE
lqb:__Z29Transfer_Blittable_ArrayFieldI14SafeBinaryReadjEvRT_R9ArrayInfoRK23StaticTransferFieldInfo
Och:_Camera_FireOnPostRender_m94860165
Gkb:__ZN23PreloadManagerOperationD0Ev
_d:_emscripten_set_keydown_callback
M2d:_Enumerator_get_Value_m3684748062
W1a:__ZN19StreamedBinaryWriteILb0EE21TransferSTLStyleArrayINSt3__26vectorI17SortingLayerEntryNS2_9allocatorIS4_EEEEEEvRT_17TransferMetaFlags
j_f:_UInt32_Parse_m3371984903
nR:__ZN12FileAccessorC2Ev
jQa:__ZN9Transform35SetLocalPositionWithoutNotificationERKN4math7_float3E
vqc:__ZN5physx2Sc15ArticulationSim12applyImpulseERNS0_8BodyCoreERKNS_9PxcFsDataERKNS_6PxVec3ES9_
AMc:__ZNK5physx22NpParticleBaseTemplateINS_16PxParticleSystemENS_16NpParticleSystemEE7getTypeEv
wug:_PatternLinkStack_GetCurrent_m2994645935
YNg:_Comparison_1__ctor_m2929820459_gshared
fEg:_AsyncResult__ctor_m1183194429
nzh:__ZN6il2cpp2vm7Runtime12GetConfigDirEv
Vq:__ZN4PPtrI13MonoBehaviourE8TransferI18StreamedBinaryReadILb0EEEEvRT_
FFg:_MethodDictionary_set_Item_m3475146889
Qpc:__ZNK5physx14NpArticulation26getInternalDriveIterationsEv
W8g:__Z54RuntimeInvoker_Void_t1841601450_LabelFixup_t4090909514PK10MethodInfoPvPS2_
Vcg:__ZL62WellKnownObjectMode_t2630225581_CustomAttributesCacheGeneratorP21CustomAttributesCache
Enb:__Z39WriteQueueForTransferSignatureIntoCacheRK31TransferFunctionScriptingTraitsRK24TransferRequestSignature17ScriptingClassPtrR23CachedSerializationDataRb
N7:__ZN13RenderManager18UpdateAllRenderersEv
yzd:__ZN22BaseUnityConnectClient30OnEnteringStatePausedOrStoppedEv
Zsh:__ZN13dynamic_arrayIPK10Il2CppTypeLj4EE6assignEPKS2_S5_
YFh:__ZN15dense_hashtableINSt3__24pairIK10KeyWrapperINS1_IPK12PropertyInfoP11Il2CppClassEEEjEES9_17ReflectionMapHashIS8_EN14dense_hash_mapIS9_jSD_NS9_14EqualsComparerINS0_8equal_toIS8_EEEENS0_9allocatorISB_EEE9SelectKeyESI_SK_E12resize_deltaEjj
FPg:_UnityAction_1__ctor_m2836997866_gshared
dhg:__ZL64AssemblyLoadEventArgs_t4233815743_CustomAttributesCacheGeneratorP21CustomAttributesCache
_Pa:__Z24MergeTransformComponentsR9TransformS0_b
vlc:__ZThn24_N5physx2Sc20ArticulationJointSimD0Ev
tch:_DelegatePInvokeWrapper_AudioConfigurationChangeHandler_t3743753033
Oue:_MonoIO_get_PathSeparator_m2635828107
Ibf:_TypeInfo_get_TypeName_m1722081275
Pze:_MonoType_get_Name_m865859211
yie:_CultureInfo__cctor_m2290268677
vvf:_ArrayReadOnlyList_1_System_Collections_IEnumerable_GetEnumerator_m3039869667_gshared
xOd:_String_Trim_m3982520224
Bfc:__ZN5physx14PxsAABBManager12createBPElemEv
Faf:_RemotingConfiguration__cctor_m2129988840
rCc:__ZThn12_N5physx7NpShape14onRefCountZeroEv
I1b:__ZL26GeomMTDCallback_ConvexMeshRN5physx6PxVec3ERfRKNS_10PxGeometryERKNS_11PxTransformES5_S8_
V3f:__ZL42Il2CppArray_CustomAttributesCacheGeneratorP21CustomAttributesCache
w$h:__ZN6il2cpp2vm13ComObjectBase19GetRuntimeClassNameEPP15Il2CppHString__
Wvc:__ZN5physx15NpActorTemplateINS_18PxArticulationLinkEE22setClientBehaviorFlagsENS_7PxFlagsINS_25PxActorClientBehaviorFlag4EnumEhEE
Hj:_emscripten_glVertexAttribPointer
T5:__ZN14PreloadManager26UpdatePreloadingSingleStepENS_21UpdatePreloadingFlagsEi
mId:_SHA512Managed_Initialize_m891287980
Uhd:__ZN18ScBeforeSolverTask11runInternalEv
Z5a:__ZN26ProbeSetTetrahedralization8TransferI24GenerateTypeTreeTransferEEvRT_
eLd:_SecurityException__ctor_m1484114982
MBg:_SinkProviderData_get_Children_m100594762
rTg:_X509Crl_GetHashName_m183504634
tUd:_Array_GetValue_m1507415734
jje:_Object_MemberwiseClone_m2655589444
dic:__ZL33GeomOverlapCallback_CapsuleConvexRKN5physx10PxGeometryERKNS_11PxTransformES2_S5_PNS_2Gu12TriggerCacheE
pNg:_ReadOnlyCollection_1_System_Collections_IList_get_Item_m375043207_gshared
q3:__ZN6prcoreL25inner_stretch_i8_bilinearEPKNS_9InnerInfoE
BC:__ZN11UnityEngine15CloudWebService13WWWRestClient17GetResponseStatusEv
nse:_DirectoryInfo_ToString_m4208086799
jdh:_Collision_get_transform_m4132935520
rsf:_MonoMethod_get_IsGenericMethod_m4276550811
zB:__ZN11UnityEngine15CloudWebService16SessionContainer24GetSessionHeaderJsonDataERKN4core12basic_stringIcNS2_20StringStorageDefaultIcEEEERNS2_13StringBuilderE
R6d:_Decimal_op_Implicit_m2149927308
NS:__ZN13RuntimeStaticI21AssetReferenceStorageLb0EE13StaticDestroyEPv
Mmd:__ZN5physx20InternalTriangleMesh9loadRTreeERNS_13PxInputStreamEj
xOc:__ZN5physx19NpRigidBodyTemplateINS_14PxRigidDynamicEE25setCMassLocalPoseInternalERKNS_11PxTransformE
yJg:_List_1_set_Capacity_m895816763_gshared
lPc:__ZNK5physx15NpActorTemplateINS_13PxRigidStaticEE14getOwnerClientEv
PXh:__ZN6il2cpp6icalls8mscorlib6System9AppDomain22InternalGetProcessGuidEP12Il2CppString
GKc:__ZN5physx2Sc18ParticleSystemCore16releaseParticlesEv
EGe:_KeyPairPersistence_get_UseMachineKeyStore_m560802076
j3c:__ZNK5physx2Gu29EPASupportMapPairRelativeImplINS0_8CapsuleVENS0_4BoxVEE6getDirEv
iac:__ZN5physx2Gu20intersectTriangleBoxERKNS_6shdfnd3aos5Vec3VES5_S5_S5_S5_
hAh:__ZNSt3__214__split_bufferIP9FieldInfoRNS_9allocatorIS2_EEEC2EjjS5_
Qtb:__Z18Transfer_BlittableI24GenerateTypeTreeTransferLb1EjEvRK29SerializationCommandArgumentsR31RuntimeSerializationCommandInfo
KOe:_MD2Managed_Padding_m410163267
LFh:__ZNK15dense_hashtableINSt3__24pairIK10KeyWrapperINS1_IPK11Il2CppImageP11Il2CppClassEEEjEES9_17ReflectionMapHashIS8_EN14dense_hash_mapIS9_jSD_NS9_14EqualsComparerINS0_8equal_toIS8_EEEENS0_9allocatorISB_EEE9SelectKeyESI_SK_E10test_emptyERK30dense_hashtable_const_iteratorISB_S9_SD_SM_SI_SK_E
Wnh:__ZN6il2cpp2os12FastAutoLockD2Ev
C4a:__ZN11ColorRGBA328TransferI14SafeBinaryReadEEvRT_
Jvd:__ZN5physx6shdfnd5ArrayIPvNS0_19ReflectionAllocatorINS_24NpPtrTableStorageManager8PtrBlockILi4EEEEEE15growAndPushBackERKS2_
ulb:__ZN24RingBufferMemoryFileData4LockEPPv
l9:__Z11IsHDRFormat13TextureFormat
Ef:_emscripten_glClearDepth
Uah:__Z70RuntimeInvoker_Boolean_t3825574718_Il2CppObject_BooleanU26_t3168250738PK10MethodInfoPvPS2_
Ubb:__ZN14SafeBinaryRead21TransferSTLStyleArrayINSt3__26vectorIN15QualitySettings14QualitySettingENS1_9allocatorIS4_EEEEEEvRT_17TransferMetaFlags
Cse:_File_OpenText_m4058508963
udh:_Collision_get_frictionForceSum_m3438602686
Xia:__ZN7ApiGLES13CreateTextureEjN2gl9TexFormatEiiiii
G5g:__Z54RuntimeInvoker_Double_t4078015681_Interval_t2354235237PK10MethodInfoPvPS2_
Lhb:__ZNSt3__26vectorINS_4pairIPKN5Unity4TypeE7Hash128EENS_9allocatorIS7_EEE8__appendEj
Jbf:_WellKnownClientTypeEntry__ctor_m670594074
pKh:__ZN15dense_hashtableINSt3__24pairIK10KeyWrapperIP11Il2CppClassES4_EES5_N6il2cpp8metadata16SZArrayClassHashEN14dense_hash_mapIS5_S4_SA_NS5_14EqualsComparerINS9_19SZArrayClassCompareEEENS0_9allocatorIS7_EEE9SelectKeyESE_SG_EC2ERKSJ_j
hae:_DateTime_System_IConvertible_ToSingle_m3927769066_AdjustorThunk
mWe:_RecordProtocol_SendRecord_m2977889250
tRb:__Z13IsPathCreatedRKN4core12basic_stringIcNS_20StringStorageDefaultIcEEEE
F5c:__ZN5physx35solveContactPreBlock_ConcludeStaticEPKNS_23PxcSolverConstraintDescEjRNS_16PxcSolverContextE
v9:__ZL22stbir__encode_scanlineP11stbir__infoiPvPfiii
hzd:__ZN20QuadTreeNodeRenderer13StaticDestroyEPv
VLf:_Array_InternalArray__ICollection_Remove_TisUInt32_t2149682021_m4198326168_gshared
VIb:__ZN9Transform12CleanupClassEv
r4h:__ZN6il2cpp6icalls8mscorlib6System9Threading16NativeEventCalls19CloseEvent_internalE12Il2CppIntPtr
lSe:_ClientContext_set_ClientHelloProtocol_m2246603449
rkc:__ZN5physx6shdfnd5ArrayIPvNS0_15InlineAllocatorILj256ENS0_19ReflectionAllocatorINS_2Cm5BlockIS2_Lj32EEEEEEEE15growAndPushBackERKS2_
Ugd:__ZN5physx18PxsSolverStartTask13setupDescTaskEv
roh:__ZN6il2cpp2vmL21SetupPropertiesLockedEP11Il2CppClassRKNS_2os12FastAutoLockE
lDb:__ZNSt3__26vectorIN9ShaderLab19SerializedSubShaderENS_9allocatorIS2_EEE26__swap_out_circular_bufferERNS_14__split_bufferIS2_RS4_EE
i0b:__ZN5physx3Cct13BoxController6resizeEf
yZg:__Z31RuntimeInvoker_Byte_t3683104436PK10MethodInfoPvPS2_
guf:_ResourceReader_Close_m3256966401
Nff:_SByte_ToString_m4105923225_AdjustorThunk
x0a:_LZ4_compress_generic
Ndf:_StreamingContext_t1417235061_marshal_pinvoke_cleanup
Cie:_CultureInfo_ConstructCurrentUICulture_m3363349599
Hcb:__ZN13dynamic_arrayI7SubMeshLj4EE18resize_initializedEjRKS0_12ResizePolicy
mze:_MonoType_GetEvent_m4160342003
yid:__ZN5physx6shdfnd5ArrayINS_2Cm12DelegateTaskINS_2Sc5SceneEXadL_ZNS5_19updateCCDSinglePassEPNS_10PxBaseTaskEEEEENS0_19ReflectionAllocatorIS8_EEE8recreateEj
J4a:__Z30ProcessDynamicBatchGeometryJobP25DynamicVBOGeometryJobDataj
xGa:__ZNSt3__27__sort4IRNS_6__lessI11CulledLightS2_EEPS2_EEjT0_S6_S6_S6_T_
YMh:__ZN6il2cpp2vm14TypeNameParser26ParseArrayModifierOptionalEv
RBe:_MSCompatUnicodeTable_Level3_m260824928
gK:__Z26scripting_object_get_class18ScriptingObjectPtr
Lah:__Z72RuntimeInvoker_DictionaryEntry_t3048875398_Il2CppObject_SByte_t454417549PK10MethodInfoPvPS2_
swc:__ZN5physx34NpShapeGetScRigidObjectFromScbSLOWERKNS_3Scb5ShapeE
doe:_Int32_FindExponent_m3187554672
QGe:_KeyPairPersistence_Load_m1355205585
fpe:_Int32_ToString_m2960866144_AdjustorThunk
joc:__ZNK5physx21PxsBodyTransformVault12getTransformERKNS_11PxsBodyCoreE
HZh:__ZN6il2cpp6icalls8mscorlib6System11Environment15internalGetHomeEv
Y9c:__ZN5physx2Gu33MultiplePersistentContactManifold10fromBufferEPh
W9g:__Z49RuntimeInvoker_Slot_t2267560602_Int32_t2071877448PK10MethodInfoPvPS2_
MAh:__ZNSt3__214__split_bufferIN6il2cpp6icalls8mscorlib6System12PropertyPairERNS_9allocatorIS5_EEEC2EjjS8_
tig:__ZL79Convert_t2607082565_CustomAttributesCacheGenerator_Convert_ToUInt16_m2130758075P21CustomAttributesCache
d2b:__ZN44ConvexVsHeightfieldContactGenerationCallback7onEventEjPj
LSa:__ZN13ScreenManagerD0Ev
MAa:_UNITY_png_set_error_fn
In:FUNCTION_TABLE_diiii
c$b:__ZN8JSONRead21TransferSTLStyleArrayI13dynamic_arrayIfLj4EEEEvRT_18MemLabelIdentifier17TransferMetaFlags
L3c:__ZN5physx2Gu19_gjkRelativeRayCastINS0_9TriangleVENS0_8CapsuleVEEEbRT_RT0_RKNS_6shdfnd3aos15PsMatTransformVERKNS9_6FloatVERKNS9_5Vec3VESI_RSD_RSG_SK_f
CBe:_ContractionComparer_Compare_m314873025
usb:__Z18Transfer_BlittableI17RemapPPtrTransferLb1EjEvRK29SerializationCommandArgumentsR31RuntimeSerializationCommandInfo
Uoc:__ZN5physx6shdfnd5ArrayIPvNS0_15InlineAllocatorILj256ENS0_19ReflectionAllocatorINS_11NpAggregateEEEEEE15growAndPushBackERKS2_
wpe:_Int64_System_IConvertible_ToDouble_m638786774
ONc:__ZNK5physx14NpRigidDynamic21getMaxAngularVelocityEv
Yv:__ZN4FMOD6System7releaseEv
L$c:__ZN5physx6shdfnd8PoolBaseINS_2Sc18TriggerInteractionENS0_19ReflectionAllocatorIS3_EEE15disposeElementsEv
pvb:__Z18Transfer_BlittableI19StreamedBinaryWriteILb0EELb1E8BitFieldEvRK29SerializationCommandArgumentsR31RuntimeSerializationCommandInfo
RQ:__Z18PathToAbsolutePathRKN4core12basic_stringIcNS_20StringStorageDefaultIcEEEE
MGg:_Enumerator_MoveNext_m3078170540_AdjustorThunk
Owd:__ZN5physx28PxcContactCapsuleHeightFieldERKNS_2Gu13GeometryUnionES3_RKNS_11PxTransformES6_RKfRNS_10PxcNpCacheERNS0_13ContactBufferE
QId:_SymmetricAlgorithm_get_Padding_m718051685
_1b:__ZL31PointInConvexPolygon2D_OutCodesPKfjffffRh
ZLc:__ZN5physx22NpParticleBaseTemplateINS_16PxParticleSystemENS_16NpParticleSystemEE18setDynamicFrictionEf
Nlb:__ZN10MonoScript23VirtualRedirectTransferER17RemapPPtrTransfer
fsc:__ZN5physx2Sc21ArticulationJointCore21setInternalComplianceEf
qhg:__ZL76Convert_t2607082565_CustomAttributesCacheGenerator_Convert_ToChar_m541258017P21CustomAttributesCache
Cqd:__ZNK5physx6shdfnd10Foundation13getErrorLevelEv
nqa:__ZN16GeometryJobTasks20ScheduleGeometryJobsER9GfxDevicePFvP15GeometryJobDataEPK22GeometryJobInstructionjb
Zt:__ZN12AudioManager29ShutdownReinitializeAndReloadEv
TQg:_NetscapeCertTypeExtension_Decode_m2210025005
Wjg:__ZL59StringComparison_t2376310518_CustomAttributesCacheGeneratorP21CustomAttributesCache
Ijd:__ZN5physx2Cm12DelegateTaskINS_2Sc5SceneEXadL_ZNS3_15postNarrowPhaseEPNS_10PxBaseTaskEEEE11runInternalEv
Kxd:__Z20ConvertContactToMonoP9Collision
Sbf:_BaseFixupRecord_DoFixup_m1821597450
Vnh:__ZN15dense_hashtableINSt3__24pairIK10KeyWrapperIPK22Il2CppGenericParameterEP11Il2CppClassEES6_N6il2cpp5utils11PointerHashIS4_EEN14dense_hash_mapIS6_S9_SE_NS6_14EqualsComparerINS0_8equal_toIS5_EEEENS0_9allocatorISA_EEE9SelectKeyESJ_SL_E6insertERKSA_
Gse:_FileLoadException__ctor_m1356374414
tRe:_TlsStream_Reset_m1504601050
NHg:__ZN23InterfaceActionInvoker2IP23Int32U5BU5D_t3030399641iE6InvokeEjP11Il2CppClassP12Il2CppObjectS1_i
Gja:__ZN14DataBufferGLES16RecreateWithDataEjPKv
jRb:__Z29GetGlobalAllowNameConversionsv
Z1b:__ZL17transformVerticesRfS_S_S_PfjPKN5physx6PxVec3EPKhRKNS1_7PxMat33E
Twd:__ZNK5physx2Gu15HeightFieldUtil31getFaceIndexAtShapePointNoTest2Ejff
eSa:__ZN8Material8SetColorEN9ShaderLab16FastPropertyNameERK10ColorRGBAf
ddd:__ZN5physx6shdfnd5ArrayIPNS_14PxLightCpuTaskENS0_13TempAllocatorEE6resizeEjRKS3_
Bqf:_Module_GetCustomAttributes_m3581287913
o5f:__ZL67Type_t_CustomAttributesCacheGenerator_Type_IsSubclassOf_m2450899481P21CustomAttributesCache
wRh:__ZN13dynamic_arrayIP12Il2CppObjectLj4EE20resize_uninitializedEjb
M0c:__ZNK5physx2Sq10AABBPruner5sweepERKNS0_9ShapeDataERKNS_6PxVec3ERfRNS0_14PrunerCallbackE
Svb:__ZN10RectOffset8TransferI19StreamedBinaryWriteILb0EEEEvRT_
VK:__ZL41AssemblyNameMatchesWithOrWithoutExtensionPKcS0_
KXc:__ZN5physx2Sc5Scene21fireCallBacksPostSyncEv
Fbh:_AssemblyIsEditorAssembly__ctor_m2639706522
Xna:__ZN14GfxContextGLES43AddRenderSurfaceToDeferredFBOInvalidateListEPK17RenderSurfaceGLES
q2c:__ZN5physx17PxsCCDAdvanceTask11runInternalEv
Y_:__ZN11NamedObject23VirtualRedirectTransferER14SafeBinaryRead
d6:__ZN23PreloadManagerOperation6IsDoneEv
vKe:_X509Certificate_get_RawData_m3000055075
zoh:__ZNSt3__26vectorIPK10Il2CppTypeNS_9allocatorIS3_EEE21__push_back_slow_pathIRKS3_EEvOT_
wOb:__Z33GetHasChangedDeprecatedSystemMaskv
fXh:__ZN6il2cpp5utils11StringUtils11Utf16ToUtf8ERKNSt3__212basic_stringIDsNS2_11char_traitsIDsEENS2_9allocatorIDsEEEE
fSf:_BaseInvokableCall_ThrowOnInvalidArg_TisIl2CppObject_m1349548392_gshared
qcc:__ZN5physx3Cct26CharacterControllerManagerD2Ev
XEf:_Enumerator_VerifyState_m1165543189_AdjustorThunk
Pae:_DateTime_AddSeconds_m722082155_AdjustorThunk
g0d:_SynchronizedArrayListWrapper_CopyTo_m956887031
dEf:_Comparer_1__ctor_m1202126643_gshared
raa:__ZN21LightProbeProxyVolume18HasHardwareSupportEv
l3:__ZN6prcoreL31inner_stretch_argb8888_bilinearEPKNS_9InnerInfoE
Xwb:__Z18Transfer_BlittableI18StreamedBinaryReadILb1EELb1E8BitFieldEvRK29SerializationCommandArgumentsR31RuntimeSerializationCommandInfo
xUe:_TlsClientCertificate_get_ClientCertificate_m3062440489
JKd:_StrongNamePublicKeyBlob_ToString_m3721281223
jsg:__ZL80UnityEvent_t408735097_CustomAttributesCacheGenerator_UnityEvent__ctor_m588741179P21CustomAttributesCache
$xf:_InternalEnumerator_1_get_Current_m198513457_AdjustorThunk
T1c:__ZN5physx6shdfnd8internal8HashBaseINS0_4PairIKNS3_IPKNS_12PxsRigidCoreEPKNS_12PxsShapeCoreEEEPNS_11PxsCCDShapeEEESA_NS0_4HashISA_EENS1_11HashMapBaseISA_SD_SG_NS0_9AllocatorEE6GetKeyESI_Lb1EE15reserveInternalEj
jEa:__Z20scripting_object_new17ScriptingClassPtr
pC:__ZN11UnityEngine15CloudWebService10RestClientINS0_16WWWRestHeaderMapEED2Ev
JUb:__Z58Register_UnityEngine_Object_Internal_CloneSingleWithParentv
$F:__ZN14UnityWebStream7ReleaseEv
jme:_TextInfo_ToUpper_m299550697
AYc:__ZN5physx2Sc5Scene21setDominanceGroupPairEhhRKNS_20PxDominanceGroupPairE
l6:__ZN23PreloadManagerOperation21MustCompleteNextFrameEv
O8d:_Convert_ToUInt16_m3265369225
P:Math_exp
Tye:_MonoEnumInfo_get_Cache_m3551569711
po:FUNCTION_TABLE_iiifi
YXh:__ZN6il2cpp2os5posix13PosixAutoLockD2Ev
Fca:__ZNSt3__26vectorINS_4pairIyP17VertexDeclarationEENS_9allocatorIS4_EEE6insertENS_11__wrap_iterIPKS4_EERS9_
ADg:__ZN21InterfaceFuncInvoker0IP6Type_tE6InvokeEjP11Il2CppClassP12Il2CppObject
vQa:__ZN13MonoBehaviour9SetScriptERK4PPtrI10MonoScriptE18ScriptingObjectPtr
Nrb:__Z18Transfer_BlittableI17RemapPPtrTransferLb0E8Vector2fEvRK29SerializationCommandArgumentsR31RuntimeSerializationCommandInfo
Gpg:__ZL87Object_t1021602117_CustomAttributesCacheGenerator_Object_DestroyObject_m282495858____t1P21CustomAttributesCache
qSh:__ZNSt3__218uninitialized_copyIPNS_4pairIK10KeyWrapperIP14Il2CppIUnknownEjEES8_EET0_T_SA_S9_
_Pc:__ZN5physx7NpScene12loadFromDescERKNS_11PxSceneDescE
hde:_Decimal_IsZero_m3557909184_AdjustorThunk
RZd:_Char_ToString_m1401375624
GEd:_MD5CryptoServiceProvider__cctor_m3309191799
WH:__ZNK10FileSystem16LastErrorMessageEv
g4h:__ZNK6il2cpp8metadata14Il2CppTypeLessclEPK10Il2CppTypeS4_
q2g:__Z51RuntimeInvoker_UInt32_t2149682021_Int16_t4041245914PK10MethodInfoPvPS2_
t7e:_InterpreterFactory_get_NamesMapping_m3186583301
bCg:_ConfigHandler_ReadCustomProviderData_m784203316
mPb:__ZN11TimeManager16HasFixedTimeStepEv
tDd:__ZN22UnityWebRequestManager10InitializeEv
TMe:_Kernel_DwordDivMod_m3728402123
mmb:__ZN13MonoBehaviour13AwakeFromLoadE17AwakeFromLoadMode
osb:__ZL26Transfer_SimpleNativeClassI17RemapPPtrTransfer8GradientLb1EEvRK29SerializationCommandArgumentsR31RuntimeSerializationCommandInfo
KOb:__ZN12CachedWriter9InitWriteER15CacheWriterBase
XNb:__Z21UnsignedInt64ToStringy
STf:_UTF7Decoder__ctor_m549434986
yYc:__ZN5physx14PxsAABBManager15createAggregateEPvb
hih:_Object_t1021602117_marshal_pinvoke
CTb:__Z36MonoBehaviour_CUSTOM_InvokeRepeatingP12Il2CppObjectP12Il2CppStringff
xzf:_InternalEnumerator_1_MoveNext_m2720582493_gshared
aKg:_List_1_IndexOf_m1434084853_gshared
Xa:invoke_iiiiifiiiif
ATg:_X509Crl_VerifySignature_m1390212587
o6e:_Group__ctor_m4103922028
aBa:__ZN6Camera26ClearIntermediateRenderersEj
Syh:__ZNSt3__214__split_bufferI6pollfdRNS_9allocatorIS1_EEEC2EjjS4_
nAa:_UNITY_png_write_pCAL
Fmi:_glLinkProgram__wrapper
S3:__ZN6prcoreL12RemapGenericI17TexFormatARGB888815TexFormatBGR888EEvPKNS_9InnerInfoE
MEd:_MD5CryptoServiceProvider_ProcessFinalBlock_m1052610785
v0d:_BitArray_Set_m2878881714
mCc:__ZN5physx7NpShape8requiresERNS_23PxProcessPxBaseCallbackE
vQh:__ZN6il2cpp6icalls8mscorlib6System13Globalization11CultureInfo35construct_internal_locale_from_nameEP17Il2CppCultureInfoP12Il2CppString
ZVg:__Z58RuntimeInvoker_Il2CppObject_Int32_t2071877448_Il2CppObjectPK10MethodInfoPvPS2_
aub:__ZL22Transfer_ManagedObjectI24GenerateTypeTreeTransferLb1EEvRK29SerializationCommandArgumentsR31RuntimeSerializationCommandInfo
xag:__ZL55COMException_t1790481504_CustomAttributesCacheGeneratorP21CustomAttributesCache
lFe:_ASN1_get_Count_m404940548
vDg:_ContextAttribute_Equals_m53324298
Qj:_emscripten_set_main_loop_timing
C1f:_WeakReference_AllocateHandle_m1783929473
csc:__ZN5physx2Sc21ArticulationJointCore22setTangentialStiffnessEf
P8c:__ZNK5physx20SingleAABBUpdateTask7getNameEv
yRa:__ZN14ImageReference10FlipImageYEv
F2a:__Z32TransferEnumWithNameForceIntSizeI14SafeBinaryRead13TargetEyeMaskEvRT_RT0_PKc17TransferMetaFlags
KCb:__ZNSt3__26vectorIN9ShaderLab20SerializedSubProgram15VectorParameterENS_9allocatorIS3_EEE8__appendEj
Eie:_CultureInfo_get_Name_m3316229893
Fae:_DateTime_get_Ticks_m310281298_AdjustorThunk
wr:__ZN4FMOD3DSP9setBypassEb
xWa:__Z19NormalizeWheelInputf
a6e:_CaptureCollection_CopyTo_m1982767892
GUa:__Z29StdTemplateConversionFunctionIsaEbPvR14SafeBinaryRead
d$b:__Z29Transfer_Blittable_ArrayFieldI8JSONReadhEvRT_R9ArrayInfoRK23StaticTransferFieldInfo
IPb:__ZN11MonoManager25GetImageFromAssemblyIndexEi
NGc:__ZN5physx2Sc9ClothCore17addCollisionPlaneERKNS_21PxClothCollisionPlaneE
zBa:__ZN22RenderingCommandBuffer20CleanupCommandBufferEv
Xxa:__ZZ23InitPlayerLoopCallbacksvEN43PostLateUpdateClearImmediateRenderersstruct7ForwardEv
JWb:__Z18Transfer_BlittableI9JSONWriteLb1EtEvRK29SerializationCommandArgumentsR31RuntimeSerializationCommandInfo
Hse:_FileLoadException__ctor_m918124939
hk:___syscall85
Zld:__ZNK5physx13PxHeightField8isKindOfEPKc
pDa:__ZNSt3__26__sortIRPFbP10GUIElementS2_EPS2_EEvT0_S7_T_
ANe:_SequentialSearchPrimeGeneratorBase_GenerateSearchBase_m2930465198
k_h:__ZN6il2cpp2os6Thread19DetachCurrentThreadEv
ooh:__ZN6il2cpp2vmL21SetupInterfacesLockedEP11Il2CppClassRKNS_2os12FastAutoLockE
gob:__ZN11MonoManager23VirtualRedirectTransferER24GenerateTypeTreeTransfer
Ajd:__ZNK5physx2Sc18ParticleSystemCore16getInternalFlagsEv
p6a:__ZN19StreamedBinaryWriteILb0EE8TransferI13dynamic_arrayI8Vector3fLj4EEEEvRT_PKc17TransferMetaFlags
R5e:_Capture__ctor_m885749277
Ni:_emscripten_glUniformMatrix4fv
Xac:__ZN16ControllerFilter9preFilterERKN5physx12PxFilterDataEPKNS0_7PxShapeEPKNS0_12PxRigidActorERNS0_7PxFlagsINS0_9PxHitFlag4EnumEtEE
vB:__ZN11UnityEngine15CloudWebService14DataDispatcher15SetupWebRequestEv
O0g:__Z94RuntimeInvoker_Int32_t2071877448_Il2CppObject_Int32_t2071877448_Il2CppObject_Int32_t2071877448PK10MethodInfoPvPS2_
Swe:_TextWriter__cctor_m4047845042
JWe:_ReceiveRecordAsyncResult_get_Record_m1336421357
wAd:__ZN11UnityEngine15PlatformWrapper13GetShaderCapsEv
L7c:__ZN16MBPOS_TmpBuffers16allocateSleepingEjj
nhg:__ZL76Convert_t2607082565_CustomAttributesCacheGenerator_Convert_ToByte_m509311047P21CustomAttributesCache
oHe:_SmallXmlParser_ReadCharacters_m1966365555
sYe:_InternalAsyncResult_get_CompletedWithError_m3993955322
ANb:__ZN21FixedBehaviourManager6UpdateEv
JAa:_UNITY_png_free_data
INg:_ReadOnlyCollection_1_System_Collections_IList_Add_m527174473_gshared
lM:__ZN19ShaderPropertySheet8SetFloatEN9ShaderLab16FastPropertyNameEfNS_8SetFlagsE
p7:__ZN19RuntimeSceneManager24BeginIntegrateMainThreadEP10UnityScene
Rpc:__ZN5physx14NpArticulation26setExternalDriveIterationsEj
B2b:__ZN16RayRTreeCallbackILi0ELb0EED0Ev
m4g:__Z80RuntimeInvoker_Void_t1841601450_Il2CppObject_Int32_t2071877448_Int16_t4041245914PK10MethodInfoPvPS2_
hdd:__ZN5physx20PxsParticleSystemSim23scheduleCollisionUpdateERNS_10PxBaseTaskE
qZh:__ZNSt3__2plIcNS_11char_traitsIcEENS_9allocatorIcEEEENS_12basic_stringIT_T0_T1_EERKS9_S6_
g$g:__Z53RuntimeInvoker_MonoEventInfo_t2190036573_Il2CppObjectPK10MethodInfoPvPS2_
Jxe:_LocalDataStoreSlot__cctor_m1192669356
TCb:__ZN9ShaderLab20SerializedSubProgramaSERKS0_
ZPd:_String_CreateString_m2556700934
U1a:__ZN18StreamedBinaryReadILb0EE21TransferSTLStyleArrayINSt3__26vectorI17SortingLayerEntryNS2_9allocatorIS4_EEEEEEvRT_17TransferMetaFlags
Wqg:__ZL80Physics_t634932869_CustomAttributesCacheGenerator_Physics_RaycastAll_m3650851272P21CustomAttributesCache
Ndc:__ZN5physx15PxBoxControllerD0Ev
qrf:_MonoEventInfo_t2190036573_marshal_pinvoke
poh:__ZN6il2cpp2vmL24SetupTypeHierarchyLockedEP11Il2CppClassRKNS_2os12FastAutoLockE
$Ia:__Z20CalculateLightMatrixRK15SharedLightDataP10Matrix4x4f
Xii:_glBlendEquationSeparate__wrapper
jec:__ZN5physx19PxAllocatorCallbackD2Ev
dxa:__ZN24dense_hashtable_iteratorINSt3__24pairIKN4core12basic_stringIcNS2_20StringStorageDefaultIcEEEEP20ArchiveStorageReaderEES6_20StringHash32FunctionIS6_EN14dense_hash_mapIS6_S9_SC_NS0_8equal_toIS6_EE13stl_allocatorISA_L18MemLabelIdentifier54ELi16EEE9SelectKeyESF_SI_EC2EPK15dense_hashtableISA_S6_SC_SK_SF_SI_EPSA_SQ_b
a5h:__ZN6il2cpp6icalls8mscorlib6System8Security12Cryptography24RNGCryptoServiceProvider13RngInitializeEP11Il2CppArray
W$e:_IPAddress__cctor_m3624830012
zLc:__ZNK5physx15NpActorTemplateINS_16PxParticleSystemEE17getDominanceGroupEv
Z6a:__ZN4PPtrI5LightE8TransferI19StreamedBinaryWriteILb0EEEEvRT_
jcc:__ZN5physx3Cct26CharacterControllerManager21createObstacleContextEv
O1e:_AsnEncodedData_EnhancedKeyUsageExtension_m1452131166
Sxb:__Z19TransferField_ArrayI18StreamedBinaryReadILb1EE27Converter_SimpleNativeClassI17AnimationCurveTplIfEEEvRK23StaticTransferFieldInfoR31RuntimeSerializationCommandInfoRT0_
UKc:__ZN5physx15NpActorTemplateINS_15PxParticleFluidEE7releaseEv
jka:__ZN18GfxFramebufferGLES22MakeCurrentFramebufferENS_7BuiltinE
U4h:__ZN6il2cpp2vm12MarshalAlloc4FreeEPv
V6e:_Interpreter_Close_m1500459069
kSc:__ZN5physx6shdfnd5ArrayIPNS_2Sc19ShapeInstancePairLLENS0_19ReflectionAllocatorIS4_EEE15growAndPushBackERKS4_
P9:__ZN12CachedReader4ReadEPvj
W6c:__ZN5physx21MBPPostUpdateWorkTaskD0Ev
Dfc:__ZN5physx14PxsAABBManager19createAggregateElemEv
duc:__ZN5physx2Sc8BodyCore24clearSpatialAccelerationEbb
dyf:_InternalEnumerator_1_System_Collections_IEnumerator_get_Current_m3600601141_gshared
CHd:_SHA1Internal_HashFinal_m3188468925
rIa:__Z24CalculateLightShadowFadeRK6CamerafffR8Vector4f
FN:__ZN19RuntimeSceneManagerD2Ev
mkg:__ZL55HeaderHandler_t324204131_CustomAttributesCacheGeneratorP21CustomAttributesCache
hBg:_ChannelData_get_CustomProperties_m1470957369
k3:__ZN6prcore17GetIntegerBlitterE13TextureFormatS0_N14ImageReference8BlitModeE
dSc:__ZN5physx10PxsContext20createContactManagerERKNS_24PxvManagerDescRigidRigidEPNS_18PxsMaterialManagerE
lFh:__ZN6il2cpp2gc19AppendOnlyGCHashMapINSt3__24pairIPK11Il2CppImageP11Il2CppClassEEP22Il2CppReflectionModule17ReflectionMapHashIS9_ENS2_8equal_toIS9_EEE11TryGetValueERKS9_PSB_
uFf:_Enumerator_VerifyState_m3173176371_AdjustorThunk
qQc:__ZN5physx2Cm12DelegateTaskINS_7NpSceneEXadL_ZNS2_12executeSolveEPNS_10PxBaseTaskEEEED0Ev
i3b:__ZN5physx2GuL18gPCMHullPrefetchCBEjPKNS_6PxVec3E
_jc:__ZN5physx2Sc5Scene31removeActiveBreakableConstraintEPNS0_13ConstraintSimE
__e:_TypeConverterAttribute__cctor_m506796812
ERd:_Encoding_get_IsReadOnly_m3729101432
JSf:_Array_InternalArray__get_Item_TisILTokenInfo_t149559338_m2004750537_gshared
Y0f:_ValueType_t3507792607_marshal_pinvoke_back
jEf:_Comparer_1_System_Collections_IComparer_Compare_m1790257529_gshared
uqf:_MethodInfo_get_ContainsGenericParameters_m572340060
BWc:__ZN5physx6shdfnd5ArrayINS_12PxActorShapeENS0_19ReflectionAllocatorIS2_EEE15growAndPushBackERKS2_
Dua:__ZN25MultiBlocksMemoryFileData17AdjustBlocksCountEj
WOh:__ZNSt3__214__split_bufferIN6il2cpp2vm22EmbeddedResourceRecordERNS_9allocatorIS3_EEED2Ev
sSe:_TlsClientHello__ctor_m1699671541
CLb:__ZZN12MeshRenderer15InitializeClassEvEN29FunctorImpl_134kDidModifyMesh4CallEPviR11MessageData
QCg:_Context_NotifyGlobalDynamicSinks_m2916447645
OSb:__Z27CullingGroup_CUSTOM_DisposeP12Il2CppObject
VBa:__ZN13ComputeShader15SetTextureParamEjRKN9ShaderLab16FastPropertyNameE9TextureID16TextureDimension
a9g:__Z48RuntimeInvoker_Void_t1841601450_Mark_t2724874473PK10MethodInfoPvPS2_
Oyc:__ZN5physx2Sc14ConstraintCore8setFlagsENS_7PxFlagsINS_16PxConstraintFlag4EnumEtEE
yDf:_InternalEnumerator_1_get_Current_m1715820327_gshared
rm:_glStencilMask
xYh:__ZN6il2cpp2os10ThreadImpl16GetCurrentThreadEv
Tkd:__ZNK5physx2Sc15ClothFabricCore20getNbParticleIndicesEv
Z1d:_Hashtable__ctor_m2337481811
$Ef:_Enumerator_System_Collections_IEnumerator_get_Current_m2010873149_gshared
t5f:__ZL88Type_t_CustomAttributesCacheGenerator_Type_MakeGenericType_m2765875033____typeArguments0P21CustomAttributesCache
maf:_RealProxy__ctor_m2505535530
e2h:_GC_push_conditional_with_exclusions
V_f:_UInt32_System_IConvertible_ToUInt16_m2798641702_AdjustorThunk
ncf:_BinaryFormatter_get_DefaultSurrogateSelector_m219714691
YOe:_MD4Managed_Encode_m2097839378
Y7g:__Z57RuntimeInvoker_Boolean_t3825574718_LabelFixup_t4090909514PK10MethodInfoPvPS2_
Wsf:_MonoProperty_GetOptionalCustomModifiers_m3827844355
pTf:_Component_GetComponents_TisIl2CppObject_m1073237913_gshared
qjc:__ZN5physx2Sc7BodySim6wakeUpEv
xCe:_SimpleCollator_GetSortKey_m2188419329
VRc:__ZN5physx6shdfnd8PoolBaseINS_2Gu30LargePersistentContactManifoldENS0_19ReflectionAllocatorIS3_EEE17releaseEmptySlabsEv
Njc:__ZN5physx2Sc21ConstraintInteraction7destroyEv
DUb:__Z27Object_CUSTOM_DestroyObjectP12Il2CppObjectf
r4c:__ZN5physx13PxsSolverCoreD2Ev
c7a:__ZN14RenderSettings27UpdateIndirectSpecularColorEv
uib:__ZN14PlayerSettings8TransferI18StreamedBinaryReadILb0EEEEvRT_
sAh:__ZN6il2cpp6icalls8mscorlib6System8MonoType16GetMethodsByNameEP20Il2CppReflectionTypeP12Il2CppStringibS5_
zTc:__ZNK5physx7NpScene16getNbConstraintsEv
wFc:__ZN5physx7NpCloth14setWakeCounterEf
ebb:__ZN4PPtrI10GameObjectE8TransferI14SafeBinaryReadEEvRT_
yqg:__ZL105Physics_t634932869_CustomAttributesCacheGenerator_Physics_Raycast_m2036777053____queryTriggerInteraction5P21CustomAttributesCache
KL:__ZN17DirectorFrameTime10SampleTimeEfff
Kca:__ZNSt3__27__sort3IRNS_4lessIN22BuiltinResourceManager8ResourceEEEPS3_EEjT0_S7_S7_T_
SDf:_DefaultComparer_Compare_m3472472212_gshared
fte:_MonoIO_GetLength_m2812344043
iOf:_MonoProperty_GetterAdapterFrame_TisIl2CppObject_TisIl2CppObject_m3902286252_gshared
_sg:__ZL68UsedByNativeCodeAttribute_t3212052468_CustomAttributesCacheGeneratorP21CustomAttributesCache
sfb:__ZN10BlendShape8TransferI19StreamedBinaryWriteILb0EEEEvRT_
dgh:_PlayableHandle_INTERNAL_CALL_IsValidInternal_m2792360706
imd:__ZNK5physx2Gu11HeightField17getReferenceCountEv
as:__Z32TransferEnumWithNameForceIntSizeI14SafeBinaryReadN10SampleClip8LoadTypeEEvRT_RT0_PKc17TransferMetaFlags
zqe:__Z21il2cpp_codegen_sizeofP11Il2CppClass
mX:__Z19GetTimeSinceStartupv
c$:__ZN7Texture23VirtualRedirectTransferER17RemapPPtrTransfer
CMd:_SecurityFrame_get_Assembly_m2816566490
Spf:_FieldInfo_GetPseudoCustomAttributes_m2500972355
_ec:__ZN5physx3Scb5Scene10getPxSceneEv
Kmh:_NetFxCoreExtensions_CreateDelegate_m2492743074
KUg:__Z51RuntimeInvoker_Boolean_t3825574718_Int64_t909078037PK10MethodInfoPvPS2_
UUd:_Array_Sort_m2994254654
Jjf:_Default_CompareCloserType_m1367126249
PGa:__ZN29RenderNodeQueuePrepareContextC2Ev
sy:__ZN10SampleClipC2E18MemLabelIdentifier18ObjectCreationMode
RDb:__ZN9ShaderLab20SerializedSubProgram16TextureParameter8TransferI24GenerateTypeTreeTransferEEvRT_
MVf:_Thread_set_Name_m1343706609
A6h:__ZN6il2cpp2os11MutexHandle4WaitEj
vQb:__ZL34GetComponentsImplementationRecurseILb1ELi1ELi1EEbR10GameObjectbRK17CompareParametersRK39GetComponentsImplementation_ReturnValue
z6h:__ZN6il2cpp2os11MutexHandle4WaitEv
k_d:_ArrayList_set_Capacity_m592558035
$4:__ZN6prcoreL17RemapGenericFloatI15TexFormatRGHalf18TexFormatARGBFloatEEvPKNS_9InnerInfoE
Lye:_MonoEnumInfo_t2335995564_marshal_pinvoke_cleanup
iZ:__ZNK13RenderTexture13GetDataHeightEv
vpe:_Int64_System_IConvertible_ToDecimal_m3390697048_AdjustorThunk
SAa:__ZN13RenderManager23AddRemoveCamerasDelayedEv
pAa:_UNITY_png_write_pHYs
f6:__ZN23PreloadManagerOperation11GetPriorityEv
che:_Exception_get_InnerException_m3722561235
KLf:_Array_InternalArray__ICollection_Remove_TisILTokenInfo_t149559338_m1523907845_gshared
Ixd:__ZNK5Unity5Joint16GetCurrentForcesER8Vector3fS2_
wyh:__ZN6il2cpp2gc9AllocatorIP17Il2CppAsyncResultE10deallocateEPvj
p2d:_Hashtable_Rehash_m2877670513
VOa:__ZN13RenderTexture8SetWidthEi
Jyb:__Z18Transfer_BlittableI18StreamedBinaryReadILb0EELb0EfEvRK29SerializationCommandArgumentsR31RuntimeSerializationCommandInfo
Gfb:__ZN10MeshFilterD0Ev
LPd:_Encoding_get_ISOLatin1_m151504502
Y0g:__Z132RuntimeInvoker_Int32_t2071877448_Il2CppObject_Int32_t2071877448_Int32_t2071877448_Il2CppObject_Int32_t2071877448_Int32U26_t455636984PK10MethodInfoPvPS2_
GOf:_Array_InternalArray__ICollection_Add_TisCustomAttributeTypedArgument_t1498197914_m3260005285_gshared
VIa:__Z25SetupObjectBakedOcclusionbRK15SharedLightDataRK26SharedLightmapSettingsDataRK15LightmapIndicesR17ShaderPassContext
c3d:_SyncHashtable_GetObjectData_m3774367030
mtg:__ZN21InterfaceFuncInvoker4IP17Match_t3164245899P17Regex_t1803876613P8String_tiiE6InvokeEjP11Il2CppClassP12Il2CppObjectS3_S5_ii
Qme:_Guid_GetHashCode_m1401300871
r9f:__ZL61CallingConventions_t1097349142_CustomAttributesCacheGeneratorP21CustomAttributesCache
vBc:__ZNK5physx9NpFactory11getNbShapesEv
ybh:_LogCallback__ctor_m898185969
vvh:__ZL23UnresolvedVirtualCall_5P12Il2CppObjectsPK10MethodInfo
OL:__ZN9ShaderLab16FastPropertyName4InitEPKc
R5h:__GLOBAL__sub_I_Il2CppCodeRegistration_cpp
VBe:_MSCompatUnicodeTable_ToWidthCompat_m2299599532
$m:FUNCTION_TABLE_iiiii
DAe:_NumberFormatter_get_IsFloatingSource_m2830957202
Qcb:__ZN10VertexData8TransferI17RemapPPtrTransferEEvRT_
OY:__ZN13RenderTexture9SetMipMapEb
iqh:__ZN15dense_hashtableINSt3__24pairIK10KeyWrapperIPK11Il2CppClassEPKcEES6_N6il2cpp5utils11PointerHashIS3_EEN14dense_hash_mapIS6_S9_SE_NS6_14EqualsComparerINS0_8equal_toIS5_EEEENS0_9allocatorISA_EEE9SelectKeyESJ_SL_E13set_empty_keyERKSA_
vdd:__ZN5physx2Sc10ClothShape21updateBoundsInAABBMgrEv
kBe:_OperatingSystem_GetObjectData_m2276196875
r1a:__ZNK10TagManager26GetTypeInfoVirtualInternalEv
flh:_ResourceRequest_t2560315377_marshal_pinvoke_back
blb:__ZN21ArchiveStorageCreator13AppendRawNodeERKN4core12basic_stringIcNS0_20StringStorageDefaultIcEEEEN20ArchiveStorageHeader9NodeFlagsEyy
sag:__ZL66CriticalFinalizerObject_t1920899984_CustomAttributesCacheGeneratorP21CustomAttributesCache
aFh:__ZNK15dense_hashtableINSt3__24pairIK10KeyWrapperINS1_IPK10MethodInfoP11Il2CppClassEEEjEES9_17ReflectionMapHashIS8_EN14dense_hash_mapIS9_jSD_NS9_14EqualsComparerINS0_8equal_toIS8_EEEENS0_9allocatorISB_EEE9SelectKeyESI_SK_E5beginEv
xma:__ZN7ApiGLES19UploadBufferSubDataEjN2gl12BufferTargetEllPKv
C1c:__ZN5physx2Sc5Scene17createClothSolverEv
XNd:_String_System_IConvertible_ToInt32_m1927223638
eT:__ZdaPv
CJc:__ZNK5physx15PxsParticleData16getMaxParticlesVEv
wud:__ZThn116_N5physx7profile8ZoneImplINS_28PxProfileNameProviderForwardEE12removeClientERNS_19PxProfileZoneClientE
_6c:__ZN15MBP_PairManager17removeMarkedPairsEPK10MBP_ObjectPN5physx16PxsBroadPhaseMBPERK8BitArrayS8_
vuh:__ZNSt3__26__treeINS_12__value_typeIP11Il2CppClassS3_EENS_19__map_value_compareIS3_S4_NS_4lessIS3_EELb1EEENS_9allocatorIS4_EEE25__emplace_unique_key_argsIS3_JNS_4pairIS3_S3_EEEEENSD_INS_15__tree_iteratorIS4_PNS_11__tree_nodeIS4_PvEEiEEbEERKT_DpOT0_
TPd:_ASCIIEncoding__ctor_m4127831672
Tpb:__Z19TransferField_ArrayI14SafeBinaryRead27Converter_SimpleNativeClassI8GUIStyleEEvRK23StaticTransferFieldInfoR31RuntimeSerializationCommandInfoRT0_
bmb:__ZN9TextAsset23VirtualRedirectTransferER19StreamedBinaryWriteILb0EE
$Tf:_UTF8Encoding__ctor_m3336862259
XRh:__ZN15dense_hashtableINSt3__24pairIK10KeyWrapperIP14Il2CppIUnknownEjEES5_N6il2cpp5utils11PointerHashIS3_EEN14dense_hash_mapIS5_jSB_NS5_14EqualsComparerINS0_8equal_toIS4_EEEENS0_9allocatorIS7_EEE9SelectKeyESG_SI_ED2Ev
g5h:__ZN6il2cpp5utils10MemoryPoolC2Ej
p7g:__Z54RuntimeInvoker_Boolean_t3825574718_HitInfo_t1761367055PK10MethodInfoPvPS2_
c5h:__ZN6il2cpp5utils10MemoryPoolC2Ev
E6a:__ZN14RenderSettings5ResetEv
UAc:__ZN5physx9NpPhysics33unregisterDeletionListenerObjectsERNS_18PxDeletionListenerEPKPKNS_6PxBaseEj
uHc:__ZNK5physx2Sc9ClothCore22getAngularInertiaScaleEv
NYg:__Z117RuntimeInvoker_Int32_t2071877448_Il2CppObject_Il2CppObject_Int32_t2071877448_Int32_t2071877448_BooleanU26_t3168250738PK10MethodInfoPvPS2_
Csc:__ZN5physx20NpRigidActorTemplateINS_18PxArticulationLinkEE12setActorFlagENS_11PxActorFlag4EnumEb
URf:_Dictionary_2_Do_ICollectionCopyTo_TisKeyValuePair_2_t3716250094_m1740410536_gshared
hYh:__ZN6il2cpp2os10ThreadImplD2Ev
uIe:_RSAManaged_Dispose_m3018788098
zVb:__ZN8Gradient8TransferI9JSONWriteEEvRT_
fVf:_Monitor_Monitor_pulse_m2135582245
d6d:_DateTime_ToUniversalTime_m1815024752
B_e:_NameObjectCollectionBase_get_Count_m2353593692
cXa:__ZNK12TLSAllocatorI14StackAllocatorE22GetAllocatedMemorySizeEv
k9f:__ZL54AssemblyName_t894705941_CustomAttributesCacheGeneratorP21CustomAttributesCache
$8d:_Convert_ToUInt32_m3394039268
LPb:__Z32GetSceneHierarchyPathDescriptivePK6Object
sva:__ZN12HandlerChain4NameEv
Bm:FUNCTION_TABLE_fiiiiiifiiiiiif
Wgb:__ZNSt3__26vectorI9InputAxisNS_9allocatorIS1_EEE10deallocateEv
ngd:__ZN5physx37setupFinalizeSolverConstraintsCoulombERNS_13PxcNpWorkUnitERKNS_2Gu13ContactBufferERKNS_27PxcCorrelationBufferCoulombERKNS_11PxTransformESB_bPhRKNS_13PxcSolverBodyESF_RKNS_17PxcSolverBodyDataESI_ffjffff
One:_Int16_Equals_m3925135434_AdjustorThunk
rnh:__ZN15dense_hashtableINSt3__24pairIK10KeyWrapperIPK22Il2CppGenericParameterEP11Il2CppClassEES6_N6il2cpp5utils11PointerHashIS4_EEN14dense_hash_mapIS6_S9_SE_NS6_14EqualsComparerINS0_8equal_toIS5_EEEENS0_9allocatorISA_EEE9SelectKeyESJ_SL_ED2Ev
c7f:__ZL60IHashCodeProvider_t1980576455_CustomAttributesCacheGeneratorP21CustomAttributesCache
Wwh:__ZL24UnresolvedVirtualCall_86P12Il2CppObjectxS0_xPK10MethodInfo
gVa:__Z29StdTemplateConversionFunctionIbbEbPvR14SafeBinaryRead
b$h:__ZNK15dense_hashtableINSt3__24pairIK10KeyWrapperIPK19Il2CppGenericMethodEP10MethodInfoEES6_N6il2cpp8metadata23Il2CppGenericMethodHashEN14dense_hash_mapIS6_S9_SD_NS6_14EqualsComparerINSC_26Il2CppGenericMethodCompareEEENS0_9allocatorISA_EEE9SelectKeyESH_SJ_E12test_deletedEj
FRe:_CipherSuiteCollection_get_Item_m280627160
zob:__Z44InitializeTransferFunctionScriptingTraitsForI17RemapPPtrTransferEvR31TransferFunctionScriptingTraits
F9e:_SerializationInfoEnumerator_MoveNext_m1876990879
xSa:__ZN14UnityWebStream24UpdateAllUnityWebStreamsEv
H5f:__ZL60ObsoleteAttribute_t3878847927_CustomAttributesCacheGeneratorP21CustomAttributesCache
IB:__ZN11UnityEngine15CloudWebService14DataErrorEventD2Ev
$5c:__ZN5physx31ComputeCreatedDeletedPairsListsEPKjS1_jRPNS_17PxcBroadPhasePairERjS5_S4_S5_S5_RNS_14SapPairManagerE
n7:__ZN18LoadSceneOperation21MustCompleteNextFrameEv
Bw:__ZNK12AudioManager16GetAudioListenerEv
Zqf:_MonoCMethod_get_Name_m764669486
ing:__ZL48Camera_t189460977_CustomAttributesCacheGeneratorP21CustomAttributesCache
pOa:__ZNSt3__26vectorI11CameraStackNS_9allocatorIS1_EEE8__appendEj
QOh:__ZNSt3__212basic_stringIcNS_11char_traitsIcEENS_9allocatorIcEEE6__initINS_11__wrap_iterIPcEEEENS_9enable_ifIXsr21__is_forward_iteratorIT_EE5valueEvE4typeESB_SB_
bbd:__ZN5physx2Gu16pcmContactBoxBoxERKNS0_13GeometryUnionES3_RKNS_11PxTransformES6_RKfRNS0_5CacheERNS0_13ContactBufferE
S_f:_UInt32_System_IConvertible_ToType_m747769316
kji:_glDeleteVertexArrays__wrapper
Xvb:__Z29Transfer_Blittable_ArrayFieldI19StreamedBinaryWriteILb0EEjEvRT_R9ArrayInfoRK23StaticTransferFieldInfo
KH:__Z13GetFileSystemv
AMb:__ZZL23RegisterLightPropertiesR22GenericPropertyBindingEN29Wrapper_LightColorTemperature13SetFloatValueEPvf
eS:__ZNK5Unity4Type21FindAllDerivedClassesER13dynamic_arrayIPKS0_Lj4EENS0_17TypeFilterOptionsE
ZS:__ZN13RuntimeStaticI15GUIEventManagerLb0EE16StaticInitializeEPv
Dzb:__ZL12InvokeMethodI18StreamedBinaryReadILb0EEEvRK29SerializationCommandArgumentsR31RuntimeSerializationCommandInfo
ele:_DaylightTime_get_Delta_m2316831491
Btd:__ZN15RaycastCallback14processTouchesEPKN5physx12PxRaycastHitEj
HWf:_WaitHandle_WaitOne_m370363697
j6e:_FactoryCache_Lookup_m1681894361
hbe:_DateTime_Subtract_m698282245_AdjustorThunk
vnd:__ZN5physx2Gu5RTree15exportExtraDataERNS_22PxSerializationContextE
L7f:__ZL55BinaryReader_t2491843768_CustomAttributesCacheGeneratorP21CustomAttributesCache
gCa:__ZN19ShaderPropertySheet9SetMatrixEN9ShaderLab16FastPropertyNameERK10Matrix4x4fNS_8SetFlagsE
KFd:_RIPEMD160Managed_Initialize_m3365407578
P8a:__Z29GetTextureSizeAllowedMultiple13TextureFormat
V$e:_IPAddress_HostToNetworkOrder_m1092199707
L0c:__ZNK5physx2Sq10AABBPruner7overlapERKNS0_9ShapeDataERNS0_14PrunerCallbackE
nKd:_SecurityAttribute__ctor_m3425755778
oBh:_il2cpp_array_element_size
WRc:__ZN5physx6shdfnd5ArrayIPvNS0_19ReflectionAllocatorINS_2Gu30LargePersistentContactManifoldEEEE4copyINS0_15InlineAllocatorILj256ES6_EEEEvRKNS1_IS2_T_EE
Rf:_glCheckFramebufferStatus
h0g:__Z57RuntimeInvoker_Il2CppObject_Il2CppObject_Byte_t3683104436PK10MethodInfoPvPS2_
pDf:_InternalEnumerator_1_System_Collections_IEnumerator_get_Current_m790514740_AdjustorThunk
Nid:__ZN5physx2Cm12DelegateTaskINS_2Sc5SceneEXadL_ZNS3_19updateCCDSinglePassEPNS_10PxBaseTaskEEEE11runInternalEv
$dc:__ZN5physx6string9sprintf_sEPcjPKcz
pqd:__ZThn8_N5physx19TriangleMeshBuilderD1Ev
NPd:__Z37il2cpp_codegen_get_executing_assemblyPK10MethodInfo
e7b:__ZN5physx2Gu16intersectRayAABBERKNS_6PxVec3ES3_S3_S3_RfS4_
MGb:__ZN9Transform23VirtualRedirectTransferER17RemapPPtrTransfer
$5f:__ZL57TypedReference_t1025199857_CustomAttributesCacheGeneratorP21CustomAttributesCache
uNf:_Array_InternalArray__IndexOf_TisByte_t3683104436_m3605266236_gshared
lMb:__ZZL23RegisterLightPropertiesR22GenericPropertyBindingEN22Wrapper_LightIntensity13GetFloatValueEPv
rMd:_UnicodeEncoding__ctor_m72484327
vgd:__ZN5physx30setupFinalizeSolverConstraintsERNS_13PxcNpWorkUnitERKNS_2Gu13ContactBufferERKNS_20PxcCorrelationBufferERKNS_11PxTransformESB_bPhRKNS_13PxcSolverBodyESF_RKNS_17PxcSolverBodyDataESI_ffffff
c4f:__ZL74Il2CppArray_CustomAttributesCacheGenerator_Array_GetUpperBound_m1352329707P21CustomAttributesCache
_Rh:__ZN14dense_hash_mapI10KeyWrapperIP14Il2CppIUnknownEjN6il2cpp5utils11PointerHashIS1_EENS3_14EqualsComparerINSt3__28equal_toIS2_EEEENS9_9allocatorINS9_4pairIKS3_jEEEEE15set_deleted_keyERSF_
Ixc:__ZN5physx7NpScene17releaseBatchQueryEPNS_12PxBatchQueryE
rMh:__ZN6il2cpp2gc9AllocatorIP12Il2CppThreadE10deallocateEPvj
sPc:__ZN5physx20NpRigidActorTemplateINS_13PxRigidStaticEE11attachShapeERNS_7PxShapeE
Ofd:__ZN5physx26solveVBlockDefaultFrictionEPNS_13PxsSolverCoreEfjjPNS_13PxcSolverBodyEPNS_17PxcSolverBodyDataEjjPNS_25PxcArticulationSolverDescEjPNS_23PxcSolverConstraintDescEjS9_jRNS_6shdfnd5ArrayINS_24PxsConstraintBatchHeaderENSA_19ReflectionAllocatorISC_EEEESG_PNS_2Cm13SpatialVectorEPNS_25PxcThresholdStreamElementEjRj
xTe:_ClientSessionInfo_SetContext_m2649357891
Foe:_Int32_System_IConvertible_ToInt64_m3790029067_AdjustorThunk
Yvc:__ZN5physx15NpActorTemplateINS_18PxArticulationLinkEE17resolveReferencesERNS_24PxDeserializationContextE
pWg:__Z69RuntimeInvoker_Boolean_t3825574718_Il2CppObject_DoubleU26_t1208767207PK10MethodInfoPvPS2_
KYe:_SslStreamBase_InternalReadCallback_m2524917586
HR:__ZN8Remapper6RemoveEi
eKg:_List_1_CheckCollection_m2608305187_gshared
qZc:__ZN5physx19NpRigidBodyTemplateINS_18PxArticulationLinkEE9visualizeERNS_2Cm12RenderOutputEPNS_7NpSceneE
W4c:__ZN5physx11writeBack1DERKNS_23PxcSolverConstraintDescERNS_16PxcSolverContextERNS_17PxcSolverBodyDataES6_
fZf:_Type_get_ContainsGenericParameters_m505913180
G2b:__ZThn4_N16RayRTreeCallbackILi0ELb0EED0Ev
ROa:__ZN15ReflectionProbe17UseRendererResultEP13ProbeRenderer
AUd:_Array_BinarySearch_m3270245097
tse:_MonoIO_DeleteFile_m3273821223
FDe:_BigInteger_GenerateRandom_m2507308768
Z9d:_DateTime_System_IConvertible_ToDouble_m1431748426_AdjustorThunk
eLf:_Array_InternalArray__ICollection_Contains_TisUInt16_t986882611_m510319131_gshared
iYc:__ZNK5physx2Sc5Scene20getNbParticleSystemsEv
xde:_Decimal_ToString_m541380585
X6e:_RepeatContext_get_Previous_m808449037
D1g:__Z60RuntimeInvoker_DateTime_t693205669_Il2CppObject_Il2CppObjectPK10MethodInfoPvPS2_
FBh:_il2cpp_class_is_valuetype
cDd:__ZZN18UnityConnectClient23RegisterGlobalCallbacksEvEN41EarlyUpdateUnityConnectClientUpdatestruct7ForwardEv
MNh:__ZN6il2cpp2vm4Type7GetTypeEPK10Il2CppType
R$c:__ZN5physx2Gu17GetGeomSweepFuncsEv
Flc:__ZN5physx6shdfnd8PoolBaseINS_15PxsArticulationENS0_16AlignedAllocatorILj64ENS0_9AllocatorEEEE17releaseEmptySlabsEv
Age:_Enum_ToObject_m2601523252
jYe:_InternalAsyncResult_get_FromWrite_m2893408424
goh:__ZN6il2cpp2vm5Class15GetElementClassEP11Il2CppClass
KIf:_Dictionary_2_CopyToCheck_m2147716750_gshared
xFa:__Z20RenderSceneDepthPassRK19SharedRendererSceneRK17ShaderReplaceDatabR17ShaderPassContext
ZIc:__ZN5physx22NpParticleBaseTemplateINS_15PxParticleFluidENS_15NpParticleFluidEE23setParticleReadDataFlagENS_22PxParticleReadDataFlag4EnumEb
jNa:__Z40ProcessCameraIndexListIsNodeVisibleInOutRK22SceneCullingParametersPK9SceneNodePK4AABBR9IndexList
VTf:_UTF7Encoding_GetBytes_m3015176946
q4a:__ZN16GraphicsSettings8TransferI17RemapPPtrTransferEEvRT_
tNe:_BigInteger_op_LessThanOrEqual_m3528380540
Bve:_StreamReader__ctor_m2654332332
Z7a:__ZN7Texture19SupportsAsyncUploadI19StreamedBinaryWriteILb0EEEEbRT_
Khi:_glGetShaderInfoLog__wrapper
IIg:_List_1_CheckCollection_m3968030679_gshared
LOg:_Predicate_1_BeginInvoke_m3556950370_gshared
BCc:__ZN5physx2Gu5Debug9visualizeERKNS_13PxBoxGeometryERNS_2Cm12RenderOutputERKNS5_8Matrix34ERKNS_9PxBounds3Eyfj
vSd:_StringBuilder_ToString_m617673931
gea:__ZNK13GfxDeviceGLES12GetWireframeEv
b1b:__ZN5physx6shdfnd5ArrayIPKvNS0_19ReflectionAllocatorIS3_EEE6resizeEjRKS3_
UAd:__ZN11UnityEngine7Connect13ConfigHandler12GetListenersERKN4core12basic_stringIcNS2_20StringStorageDefaultIcEEEE
xfa:__ZN9GfxDevice18AllocRenderSurfaceEb
Bgd:__ZN5physx31setupFinalizeSolverConstraints4EPNS_21PxcSolverContact4DescERNS_18PxcNpThreadContextEPhffRKNS_6shdfnd3aos5Vec4VES9_S9_S9_
iUc:__ZN5physx7NpScene5flushEb
kwg:_AnchorInfo_get_IsComplete_m1247624133
EK:__ZL27CleanupCoreScriptingClassesv
fsh:__ZNSt3__27__sort3IRN6il2cpp5utils11collections13ArrayValueMapIPK10Il2CppType17Il2CppInteropData26InteropDataToTypeConverterNS1_8metadata14Il2CppTypeLessENSA_26Il2CppTypeEqualityComparerEE12SortComparerEPS8_EEjT0_SH_SH_T_
KSc:__ZThn8_N5physx2Sc24ElementInteractionMarker10onActivateEj
Vbc:__ZThn8_N5physx3Cct17CapsuleController15getPxControllerEv
CPg:_UnityAction_1_Invoke_m2563101999_gshared
wTb:__Z26AnimationCurve_CUSTOM_InitP12Il2CppObjectP11Il2CppArray
jli:_glUniform1uiv__wrapper
oHh:__ZN6il2cpp2vm10Reflection7IsEventEP12Il2CppObject
fuh:__ZNSt3__26__treeINS_12__value_typeIPFvvEPK10MethodInfoEENS_19__map_value_compareIS3_S7_NS_4lessIS3_EELb1EEENS_9allocatorIS7_EEE16__insert_node_atEPNS_16__tree_node_baseIPvEERSI_SI_
oO:__ZN17PersistentManager26GetStreamNameSpaceInternalEi
ZJa:__ZN14qsort_internal5QSortIP21ForwardRenderPassDataiN23ForwardShaderRenderLoop18RenderObjectSorterILb0EEEEEvT_S6_T0_T1_
pTd:_Exception_set_HResult_m2376998645
tih:_Object_Destroy_m4145850038
aOh:__ZN6il2cpp2vm4Type14IsSystemDBNullEPK10Il2CppType
Qud:__ZThn128_N5physx7profile8ZoneImplINS_28PxProfileNameProviderForwardEED1Ev
IM:__ZN9ShaderLab19CommonPropertyNames13StaticCleanupEPv
wP:__Z31scripting_method_get_returntype18ScriptingMethodPtr
f1c:__ZN5physx2Sq17AABBTreeUpdateMap10invalidateEjjRNS0_8AABBTreeE
Y9a:__ZN15SerializeTraitsI12LightmapDataE8TransferI24GenerateTypeTreeTransferEEvRS0_RT_
Xza:_unity_z_zcfree
Qfd:__ZN5physx28solveParallelDefaultFrictionERNS_18PxsDynamicsContextEjjPNS_13PxcSolverBodyEPNS_17PxcSolverBodyDataEjjPNS_25PxcArticulationSolverDescEjPNS_23PxcSolverConstraintDescEjS9_jPiSA_SA_SA_SA_SA_PNS_25PxcThresholdStreamElementEjSA_PNS_2Cm13SpatialVectorEPKPNS_11PxsBodyCoreERNSD_10BitMapBaseINS_6shdfnd9AllocatorEEEPKPNS_15PxsArticulationEjPViRNSL_5ArrayINS_24PxsConstraintBatchHeaderENSL_19ReflectionAllocatorISW_EEEES10_RNSV_IjNSX_IjEEEES13_PPNS_12PxsRigidBodyEj
Qhi:_glStencilOpSeparate__wrapper
Q7:__ZN7Texture13SetAnisoLimitENS_20AnisotropicFilteringE
f8:__ZN28LightProbeProxyVolumeManager25UpdateSHCoeffsTextureDataER21LightProbeProxyVolume
uta:__Z18CreateDecompressor15CompressionType18MemLabelIdentifier
dz:__ZN11AudioModule16SetListenerPauseEb
Jh:_emscripten_glCompressedTexSubImage2D
Nna:__ZN13GfxDeviceGLES22MemoryBarrierImmediateEyN2gl17MemoryBarrierTypeE
Fl:_abort
kRh:__ZN6il2cpp6icalls8mscorlib6System4Type18internal_from_nameEP12Il2CppStringbb
o5:__ZN6prcoreL26RemapGenericFloatToIntegerI18TexFormatARGBFloat17TexFormatARGB8888EEvPKNS_9InnerInfoE
P$h:__ZN6il2cpp6icalls8mscorlib6System10Reflection9MonoField16GetValueInternalEP21Il2CppReflectionFieldP12Il2CppObject
zHb:__ZN6Object27GetOffsetOfInstanceIdMemberEv
S1e:_AsnEncodedData_NetscapeCertType_m2899239452
uqd:__ZN5physx15writeWordBufferEPKtjbRNS_14PxOutputStreamE
EGf:_Transform_1_EndInvoke_m1025924012_gshared
a4f:__ZL81Il2CppArray_CustomAttributesCacheGenerator_Array_GetValue_m3550694941____indices0P21CustomAttributesCache
I0h:_GC_write
Vtg:_PatternCompiler_EmitPosition_m3013268572
I5e:_X509SubjectKeyIdentifierExtension__ctor_m1109455121
hwh:__ZL24UnresolvedVirtualCall_45P12Il2CppObject19DateTime_t693205669PK10MethodInfo
oNb:__Z33PluginsInitializePreloadedPluginsv
R_b:__Z29Transfer_Blittable_ArrayFieldI8JSONRead10ColorRGBAfEvRT_R9ArrayInfoRK23StaticTransferFieldInfo
Xmf:_GenericTypeParameterBuilder_GetPropertyImpl_m3566422383
eYh:__GLOBAL__sub_I_ThreadImpl_cpp
rwb:__Z18Transfer_BlittableI18StreamedBinaryReadILb1EELb1EiEvRK29SerializationCommandArgumentsR31RuntimeSerializationCommandInfo
fJd:_TripleDES_IsWeakKey_m483013953
Z2e:_X509Certificate2_get_PrivateKey_m2662162956
dGh:__ZN15dense_hashtableINSt3__24pairIK10KeyWrapperINS1_IPK12PropertyInfoP11Il2CppClassEEEjEES9_17ReflectionMapHashIS8_EN14dense_hash_mapIS9_jSD_NS9_14EqualsComparerINS0_8equal_toIS8_EEEENS0_9allocatorISB_EEE9SelectKeyESI_SK_E12maybe_shrinkEv
sjc:__ZN5physx2Sc7BodySim37checkSleepReadinessBesidesWakeCounterEv
Jwb:__Z18Transfer_BlittableI18StreamedBinaryReadILb1EELb1EsEvRK29SerializationCommandArgumentsR31RuntimeSerializationCommandInfo
eNd:_Single_System_IConvertible_ToSByte_m3757385387
T7g:__Z51RuntimeInvoker_Boolean_t3825574718_Slot_t2022531261PK10MethodInfoPvPS2_
tte:_StreamAsyncResult_SetComplete_m2141125667
V7:__ZL21SetAnisoLimitEnumImplN7Texture20AnisotropicFilteringEb
vzd:__ZN22BaseUnityConnectClient17OnEnterStateReadyEv
Ywc:__ZN5physx2Sc16ArticulationCore14setWakeCounterEf
sRc:__ZN5physx2Sc10NPhaseCore24createTriggerInteractionERNS0_8ShapeSimES3_NS_7PxFlagsINS_10PxPairFlag4EnumEtEE
HI:__GLOBAL__sub_I_platformdependent_webgl_source_lump_cpp
YK:__Z21GetManagerFromContexti
T1b:__ZN5physx2Gu9ContainerD2Ev
bhh:_Keyframe_get_tangentMode_m1869200796_AdjustorThunk
BPe:_EncryptedPrivateKeyInfo_get_EncryptedData_m598672214
J3b:__ZN5physx2Gu12selectNormalEhff
SAh:__ZN6il2cpp6icalls8mscorlib6System8MonoType16InternalGetEventEP20Il2CppReflectionTypeP12Il2CppStringi
W_f:_UInt32_System_IConvertible_ToUInt32_m1257480358_AdjustorThunk
aVf:_Interlocked_CompareExchange_m3339239614
AYh:__ZN6il2cpp2osL23CleanupThreadIfCanceledEPv
HKc:__ZN5physx3Scb14ParticleSystem16releaseParticlesEjRKNS_16PxStrideIteratorIKjEE
Pgg:__ZL98Activator_t1850728717_CustomAttributesCacheGenerator_Activator_CreateInstance_m1465989661____args1P21CustomAttributesCache
hM:__ZN19ShaderPropertySheet11ComputeHashEv
Rrh:__ZN30dense_hashtable_const_iteratorI10KeyWrapperIPK19Il2CppGenericMethodES4_N6il2cpp8metadata23Il2CppGenericMethodHashEN14dense_hash_setIS4_S7_NS4_14EqualsComparerINS6_26Il2CppGenericMethodCompareEEENSt3__29allocatorIS4_EEE8IdentityESB_SE_EppEv
sXc:__ZN5physx2Sc5Scene21processLostTouchPairsEv
wxb:__ZN4PPtrI6ObjectE8TransferI18StreamedBinaryReadILb1EEEEvRT_
Ei:_llvm_fabs_f32
ZB:__ZN11UnityEngine15CloudWebService16SessionContainer16GetJsonDataBlockEjRKN4core12basic_stringIcNS2_20StringStorageDefaultIcEEEERS6_PjSA_
Psd:__ZThn28_N14PhysicsManager7onSleepEPPN5physx7PxActorEj
inf:_GenericTypeParameterBuilder_get_AssemblyQualifiedName_m902593295
J9c:__ZN5physx22PxcContactConvexConvexERKNS_2Gu13GeometryUnionES3_RKNS_11PxTransformES6_RKfRNS_10PxcNpCacheERNS0_13ContactBufferE
$2b:__ZNK5physx2Gu11ConvexHullV12HillClimbingERKNS_6shdfnd3aos5Vec3VE
lRc:__ZNK5physx2Sc17ParticleSystemSim7getCoreEv
fCe:_SimpleCollator__cctor_m2693747668
qde:_Decimal_CompareTo_m2454501434_AdjustorThunk
DO:__ZN14SafeBinaryReadD2Ev
DZf:_UInt16_System_IConvertible_ToChar_m4055364664
vKc:__ZN5physx2Sc18ParticleSystemCore10setDampingEf
lIb:__Z13RegisterClassI7TextureEvv
oxg:_ExpressionCollection_OnValidate_m1703610065
Qxb:__ZN8Gradient8TransferI18StreamedBinaryReadILb1EEEEvRT_
rig:__ZL79Convert_t2607082565_CustomAttributesCacheGenerator_Convert_ToUInt16_m3991499696P21CustomAttributesCache
cgc:__ZN5physx2Sc10NPhaseCore16deleteFilterPairEPNS0_10FilterPairE
i$f:_UInt32_ToString_m554020223_AdjustorThunk
tKg:_Enumerator_Dispose_m1520016780_AdjustorThunk
twd:_PxCreateBasePhysics
dj:_SDL_PauseAudio
KBh:_il2cpp_class_from_type
gVd:_Array_Sort_m2323017822
sLh:__ZN6il2cpp2os4File11GetStdErrorEv
wch:_AudioConfigurationChangeHandler_EndInvoke_m2237100787
ckc:__ZN5physx2Sc5Scene28addActiveBreakableConstraintEPNS0_13ConstraintSimE
HM:__ZN9ShaderLab19CommonPropertyNames16StaticInitializeEPv
bzc:__ZN5physx6shdfnd8PoolBaseINS_16NpParticleSystemENS0_19ReflectionAllocatorIS2_EEE15disposeElementsEv
_xe:_MissingMemberException__ctor_m3710131950
z6:__ZN13MemoryManager31DisallowAllocationsOnThisThreadEv
kvd:__ZN5physx7profile11EventBufferINS_24PxDefaultContextProviderENS_6shdfnd6MutexTINS0_26WrapperReflectionAllocatorIhEEEENS0_14ScopedLockImplIS7_EENS_24PxProfileNullEventFilterEE10eventValueEtyx
xgf:_CspParameters__ctor_m2546931874
a7b:__ZN5physx2Gu11getBoxEdgesEv
rdb:__ZN14Texture2DArray23VirtualRedirectTransferER14SafeBinaryRead
mIa:__ZNK6Camera21CalculateCanDoShadowsEv
SVc:__ZNK5physx2Sc5Scene17getBroadPhaseCapsERNS_16PxBroadPhaseCapsE
LIf:_Dictionary_2_make_pair_m2631942124_gshared
Qvc:__ZN5physx9NpFactory14onActorReleaseEPNS_7PxActorE
d_h:__ZN6il2cpp2os6Thread12SetStackSizeEj
t3e:_X509ChainElementEnumerator_get_Current_m2232618221
emc:__ZN5physx2Sc5Actor15onElementAttachERNS0_7ElementE
yLg:_Collection_1_Clear_m3860339101_gshared
Akb:__ZNK20ArchiveStorageReader15HasStreamBlocksEv
iI:__Z13VFormatBufferPciPKcz
gKc:__ZN5physx2Sc18ParticleSystemCore23setSimulationFilterDataERKNS_12PxFilterDataE
Iyb:__Z18Transfer_BlittableI18StreamedBinaryReadILb0EELb1EhEvRK29SerializationCommandArgumentsR31RuntimeSerializationCommandInfo
sOg:_U3CCreateWhereIteratorU3Ec__Iterator1D_1_Dispose_m1879652802_gshared
Wag:__ZL90SafeHandle_t2733794115_CustomAttributesCacheGenerator_SafeHandle_get_IsInvalid_m3910183075P21CustomAttributesCache
s_f:_UInt16_ToString_m3280699191
s5:__ZN6prcoreL27StretchGenericFloatBilinearI15TexFormatRFloatEEvPKNS_9InnerInfoE
$$c:__ZN5physx6shdfnd8internal8HashBaseINS0_4PairIKNS_2Sq13PrunerPayloadEjEES5_NS0_4HashIS5_EENS1_11HashMapBaseIS5_jS9_NS0_9AllocatorEE6GetKeyESB_Lb1EE15reserveInternalEj
Rbg:__ZL62IDynamicMessageSink_t3056162262_CustomAttributesCacheGeneratorP21CustomAttributesCache
iXg:__Z33RuntimeInvoker_UInt32_t2149682021PK10MethodInfoPvPS2_
OVg:__Z130RuntimeInvoker_Int32_t2071877448_Il2CppObject_Int32_t2071877448_Int32_t2071877448_Il2CppObject_Int32_t2071877448_Int32_t2071877448PK10MethodInfoPvPS2_
gMf:_Array_InternalArray__IEnumerable_GetEnumerator_TisBoolean_t3825574718_m798244337_gshared
Q_g:__Z102RuntimeInvoker_Il2CppObject_Int32_t2071877448_Int32_t2071877448_Il2CppObject_Il2CppObject_Il2CppObjectPK10MethodInfoPvPS2_
nNf:_Array_IndexOf_TisCustomAttributeNamedArgument_t94157543_m745056346_gshared
Yla:__Z14PadImageBorderR14ImageReferenceii
IEh:__ZN15dense_hashtableINSt3__24pairIK10KeyWrapperINS1_IPK10MethodInfoP11Il2CppClassEEEjEES9_17ReflectionMapHashIS8_EN14dense_hash_mapIS9_jSD_NS9_14EqualsComparerINS0_8equal_toIS8_EEEENS0_9allocatorISB_EEE9SelectKeyESI_SK_E4findERSA_
$uh:__ZN6il2cpp2vm13MetadataCache28GetFieldDefaultValueForFieldEPK9FieldInfo
tvf:_ArrayReadOnlyList_1_ReadOnlyError_m2289309720_gshared
dzh:__ZN6il2cpp2vm8basepathEPKc
M3c:__ZN5physx2Gu22gjkRelativePenetrationINS0_9TriangleVENS0_8CapsuleVEEEjRKT_RKT0_RKNS_6shdfnd3aos15PsMatTransformVERKNSB_6FloatVERNSB_5Vec3VESJ_SJ_RSF_PhSL_Rh
Lrd:__ZN9Rigidbody14SetIsKinematicEb
Nvh:__ZL24UnresolvedVirtualCall_23P12Il2CppObjectS0_PK10MethodInfo
hu:__ZN12AudioManager39HandlePendingAudioConfigurationCallbackEv
oLg:_Collection_1_System_Collections_IList_Contains_m323652826_gshared
ak:_emscripten_glIsFramebuffer
Moa:__ZNK13TranslateGLES9GetFormatE13TextureFormat17TextureColorSpace
j8d:_Convert_ToInt64_m954367741
ek:_JS_Sound_SetLoopPoints
c_d:_ArrayList__ctor_m1467563650
_x:__ZN12AudioManager17ShouldSourcePauseEb
u5h:__ZN6il2cpp2vm26MetadataAllocGenericMethodEv
oqa:__ZN19ConstantBuffersGLES12RecordRenderEv
D$c:__ZN5physx13ActorAABBTaskD2Ev
faa:__ZN18AsyncUploadManager22UploadStreamingTextureEP28FileTextureUploadInstruction
BXb:__ZN9JSONWrite8TransferI10RectOffsetEEvRT_PKc17TransferMetaFlags
Ela:__ZN4crnd12symbol_codec11decode_bitsEj
pTg:_X509Crl_get_Extensions_m1795830276
zNb:__ZN21FixedBehaviourManagerD0Ev
$5a:__ZN10Matrix3x4f8TransferI24GenerateTypeTreeTransferEEvRT_
mu:__ZN4FMOD6System12createReverbEPPNS_6ReverbE
B6:__Z16MarkDependenciesR27GarbageCollectorThreadStatej
k5e:_X509ChainElementEnumerator_Reset_m3832280427
gAe:_MulticastDelegate_RemoveImpl_m2024746777
aAe:_MulticastDelegate_Equals_m3064081489
qLe:_Activator_CreateInstance_m1465989661
CM:__ZNK9Transform11GetPositionEv
Iyc:__ZN5physx12NpConstraint8requiresERNS_23PxProcessPxBaseCallbackE
Nsg:__ZL111PlayerConnection_t3517219175_CustomAttributesCacheGenerator_PlayerConnection_MessageCallbackInternal_m267902474P21CustomAttributesCache
VCa:__ZN23SharedMeshRenderingData18UnloadVertexStreamEi
Vcc:__ZN5physx3Cct13HandleManager3AddEPv
TRg:_PKCS12_Encrypt_m2154408631
CMb:__ZN19RenderEventsContextC2Ei
gA:__Z6simd4fRKf
Hk:_emscripten_glEnable
KWh:__ZN6il2cpp2gc16GarbageCollector29RegisterFinalizerForNewObjectEP12Il2CppObject
x1a:__ZN10TagManager23VirtualRedirectTransferER14SafeBinaryRead
Ukd:__ZNK5physx2Sc15ClothFabricCore9getNbSetsEv
pAg:_MarshalAsAttribute__ctor_m1892084128
r6g:__Z53RuntimeInvoker_Void_t1841601450_Vector3U26_t425862308PK10MethodInfoPvPS2_
cLa:__Z15InitLightMeshesv
Kgg:__ZL97WaitHandle_t677569169_CustomAttributesCacheGenerator_WaitHandle_t677569169____Handle_PropertyInfoP21CustomAttributesCache
ZUc:__ZNK5physx7NpScene26getNbContactDataBlocksUsedEv
on:FUNCTION_TABLE_iifiii
F8b:__ZN5physx2Gu29computeCapsule_HeightFieldMTDERKNS_21PxHeightFieldGeometryERKNS_11PxTransformERNS0_8CapsuleVEffbjRNS_10PxSweepHitE
Hnh:__ZNK15dense_hashtableINSt3__24pairIK10KeyWrapperIPK22Il2CppGenericParameterEP11Il2CppClassEES6_N6il2cpp5utils11PointerHashIS4_EEN14dense_hash_mapIS6_S9_SE_NS6_14EqualsComparerINS0_8equal_toIS5_EEEENS0_9allocatorISA_EEE9SelectKeyESJ_SL_E10test_emptyEj
wQc:__ZNK5physx2Cm12DelegateTaskINS_7NpSceneEXadL_ZNS2_14executeCollideEPNS_10PxBaseTaskEEEE7getNameEv
lmd:__ZN5physx2Gu11HeightField15exportExtraDataERNS_22PxSerializationContextE
GBa:__ZN22RenderingCommandBuffer36AcquireAndRegisterSharedMaterialDataEP8Material
FJg:_List_1_System_Collections_Generic_IEnumerableU3CTU3E_GetEnumerator_m1503548298_gshared
Vub:__Z18Transfer_BlittableI19StreamedBinaryWriteILb0EELb1E8Vector2fEvRK29SerializationCommandArgumentsR31RuntimeSerializationCommandInfo
Aag:__ZL65ClassInterfaceAttribute_t910653559_CustomAttributesCacheGeneratorP21CustomAttributesCache
UF:__Z15CleanLogHandler7LogTypePKcz
sEb:__ZN9ShaderLab19SerializedSubShader8TransferI19StreamedBinaryWriteILb0EEEEvRT_
cBc:__ZN5physx10NpMaterialC2ERKNS_2Sc12MaterialCoreE
ZZd:_CharEnumerator_Reset_m2412204068
Ecd:__ZN5physx9PxTaskMgr10resolveRowEjb
Imb:__ZN6Camera17RemoveImageFilterERK11ImageFilter
nna:__ZNSt3__218__insertion_sort_3IR25ValueParameterArraySorterPN20GpuProgramParameters14ValueParameterEEEvT0_S6_T_
O0d:_CaseInsensitiveHashCodeProvider_AreEqual_m2456617355
W0e:_WebHeaderCollection__ctor_m4088938710
CCa:__ZNSt3__214__split_bufferI20ComputeShaderVariantRNS_9allocatorIS1_EEED2Ev
lrd:__ZN8Collider12GetIsTriggerEv
IGh:__ZNK10KeyWrapperINSt3__24pairIPK9EventInfoP11Il2CppClassEEE14EqualsComparerINS0_8equal_toIS7_EEEclERKS8_SE_
VTe:_Context_set_WriteSequenceNumber_m3356252710
Ome:_Guid_Equals_m2389236871
XM:__Z27LogRepeatingStringWithFlagsRKN4core12basic_stringIcNS_20StringStorageDefaultIcEEEE15LogMessageFlagsi
W5b:__ZN5physx2Gu16_gjkLocalRayCastINS0_9TriangleVENS0_11ConvexHullVEEEbRT_RT0_RKNS_6shdfnd3aos6FloatVERKNS9_5Vec3VESF_RSA_RSD_SH_f
nkc:__ZN5physx6shdfnd8PoolBaseINS_2Cm5BlockIPvLj32EEENS0_19ReflectionAllocatorIS5_EEE17releaseEmptySlabsEv
XDf:_DefaultComparer__ctor_m2859550749_gshared
R5c:__ZN5physx23PxsBroadPhaseContextSap21batchUpdateFewUpdatesEjRPNS_17PxcBroadPhasePairERjS4_
k9b:__ZN5physx3Cct17getSceneTimestampEPKNS0_30InternalCBData_FindTouchedGeomE
Gib:__ZN15ResourceManagerD0Ev
pTb:__Z41Register_UnityEngine_Input_GetMouseButtonv
Uih:_Physics_Raycast_m2874007225
DBd:__ZN18UnityConnectClient33OnPlayerSessionStateChangedStaticEPS_jyy
I6f:__ZL74CaseInsensitiveHashCodeProvider_t2307530285_CustomAttributesCacheGeneratorP21CustomAttributesCache
m0f:_UIntPtr__ctor_m3900568171_AdjustorThunk
wwf:_InternalEnumerator_1_get_Current_m1943362081_gshared
Pia:__ZN7ApiGLES4LoadE16GfxDeviceLevelGL
jab:__ZN18StreamedBinaryReadILb0EE21TransferSTLStyleArrayI13dynamic_arrayI31EnlightenSystemAtlasInformationLj8EEEEvRT_17TransferMetaFlags
lAc:__ZN5physx9NpPhysics15createAggregateEjb
xla:__ZN4crnd12crn_unpacker22decode_color_endpointsEv
uTh:__ZN15dense_hashtableI10KeyWrapperIP18Il2CppGenericClassES3_N6il2cpp8metadata22Il2CppGenericClassHashEN14dense_hash_setIS3_S6_NS3_14EqualsComparerINS5_25Il2CppGenericClassCompareEEENSt3__29allocatorIS3_EEE8IdentityESA_SD_E15insert_noresizeERKS3_
JNg:_ReadOnlyCollection_1_System_Collections_IList_Clear_m3006875897_gshared
_Kb:__ZZL31RegisterOtherRendererPropertiesR22GenericPropertyBindingEN30Wrapper_RendererReceiveShadows13GetFloatValueEPv
bjh:_Physics_Raycast_m2994111303
sDe:_PreviousInfo_t581002487_marshal_pinvoke_cleanup
IX:__ZN8Material11SetPassFastEPN9ShaderLab4PassER17ShaderPassContextP6Shaderib
QSa:__ZNK13ScreenManager13GetLockCursorEv
BBd:__ZN11UnityEngine7Connect20BasePersistentValues10SaveValuesER9JSONWrite
YT:__Z18GetITerrainManagerv
vcd:__ZN5physx9PxTaskMgr12addReferenceEj
I4e:_X509CertificateEnumerator_System_Collections_IEnumerator_MoveNext_m3708362145
bFa:__Z12SetupLODFadeR9GfxDeviceR17ShaderPassContextf
dSg:_X501_ToString_m3328169518
RKa:__ZL24CollectForwardObjectsJobP27CollectForwardObjectsHeader
Nje:_NumberFormatter_FormatCustom_m3288822873
$dg:__ZL53HMACSHA256_t2622794722_CustomAttributesCacheGeneratorP21CustomAttributesCache
iOa:__ZNK25CameraStackRenderingState24ResolveTempToEyeTexturesEv
JMa:__Z13IsNodeVisibleRK9SceneNodeRK4AABBRK22SceneCullingParameters
Apf:_EventInfo__ctor_m1190141300
Wbf:_DelayedFixupRecord_FixupImpl_m4249966635
hni:_emscripten_glStencilMask__wrapper
Hrh:__ZN15dense_hashtableI10KeyWrapperIPK19Il2CppGenericMethodES4_N6il2cpp8metadata23Il2CppGenericMethodHashEN14dense_hash_setIS4_S7_NS4_14EqualsComparerINS6_26Il2CppGenericMethodCompareEEENSt3__29allocatorIS4_EEE8IdentityESB_SE_EC2ERKSH_j
KP:__ZN11TypeManager19ClassNameToTypeInfoEPKcb
RDe:_BigInteger_ToString_m3837784224
BBa:__ZN15RenderNodeQueue7CleanupEv
$va:__ZNK17ArchiveFileSystem8PositionERK13FileEntryData
lec:__ZN16NovodexAllocator8allocateEjPKcS1_i
Ree:_DllNotFoundException__ctor_m267198482
qKa:__Z17PrepareShadowMapsRK11CullResultsRK11ActiveLightRK10MinMaxAABB
OUf:_NativeEventCalls_CreateEvent_internal_m1605829321
Dvh:__ZL24UnresolvedVirtualCall_13P12Il2CppObjectaPK10MethodInfo
BAf:_InternalEnumerator_1_System_Collections_IEnumerator_get_Current_m3239681450_AdjustorThunk
mCb:__ZNSt3__26vectorIN9ShaderLab20SerializedSubProgram15VectorParameterENS_9allocatorIS3_EEEC2ERKS6_
OKa:__ZN9ShaderLab10GrabPassesD2Ev
Ohh:_MonoBehaviour_set_useGUILayout_m2666356651
Cdb:__ZN14Texture2DArray13UploadTextureEv
jMd:_SecurityFrame_t1002202659_marshal_pinvoke
q7:__ZN18AwakeFromLoadQueue25RegisterObjectInstanceIDsEv
Rqd:__ZN5physx21PxProfileNameProviderD2Ev
xXd:_Buffer_BlockCopy_m1586717258
zdg:__ZL93X509Certificate_t283079845_CustomAttributesCacheGenerator_X509Certificate_GetName_m2354987368P21CustomAttributesCache
KVc:__ZN5physx2Sc5Scene22removeBroadPhaseRegionEj
Fyf:_InternalEnumerator_1__ctor_m3589241961_AdjustorThunk
My:__ZN13ProduceHelperI13AudioListenerLb0EE7ProduceE18MemLabelIdentifier18ObjectCreationMode
ldc:__ZN5physx2Cm12RenderBuffer5clearEv
jie:_CompareInfo_GetSortKey_m3691382873
wHc:__ZNK5physx2Sc9ClothCore21getStiffnessFrequencyEv
kce:_DBNull_ToString_m3228904745
IHd:_SHA1Managed_HashCore_m2658295635
H3g:__Z80RuntimeInvoker_Void_t1841601450_Int32_t2071877448_Int32_t2071877448_Il2CppObjectPK10MethodInfoPvPS2_
a2c:__ZN5physx13PxsCCDContext14postCCDAdvanceEPNS_10PxBaseTaskE
NPe:_RC4_get_IV_m506011366
mTg:_X509Crl__ctor_m2469408229
Cvb:__Z18Transfer_BlittableI19StreamedBinaryWriteILb0EELb0EyEvRK29SerializationCommandArgumentsR31RuntimeSerializationCommandInfo
Oag:__ZL82SafeHandle_t2733794115_CustomAttributesCacheGenerator_SafeHandle_Close_m1146946803P21CustomAttributesCache
O5e:_X509SubjectKeyIdentifierExtension_CopyFrom_m136762226
cHg:_Enumerator_System_Collections_IEnumerator_Reset_m610822832_AdjustorThunk
bRh:__ZN6il2cpp6icalls8mscorlib6System2IO6MonoIO20GetFileSystemEntriesEP12Il2CppStringS6_iiPi
TTb:__Z41MonoBehaviour_Set_Custom_PropUseGUILayoutP12Il2CppObjecth
cji:_glGenRenderbuffers__wrapper
MEe:_BigInteger_op_Division_m1581119694
hdf:_CallbackHandler_Invoke_m1498072969
chf:_DSACryptoServiceProvider__ctor_m701823690
q8c:__ZNK5physx10BPWorkTask7getNameEv
akf:_CustomAttributeData_GetCustomAttributes_m2421330738
wwc:__ZN5physx2Sc8ShapeSim16onResetFilteringEv
CUh:__ZN30dense_hashtable_const_iteratorINSt3__24pairIK10KeyWrapperINS1_IPKcS4_EEEiEES6_24NamespaceAndNamePairHashN14dense_hash_mapIS6_iS9_NS6_14EqualsComparerI26NamespaceAndNamePairEqualsEENS0_9allocatorIS8_EEE9SelectKeyESD_SF_EppEv
nYf:_Type_get_IsEnum_m313908919
FSb:__Z44Register_UnityEngine_Component_get_transformv
Zjc:__ZN5physx2Sc16ActorInteractionD2Ev
nta:__ZN17ArchiveFileSystem12MountArchiveEPKcS1_
Aee:_StackFrame_GetMethod_m72881026
LWb:__Z18Transfer_BlittableI9JSONWriteLb1E8Vector4fEvRK29SerializationCommandArgumentsR31RuntimeSerializationCommandInfo
IK:__Z11RequireTypePKcS0_S0_
GEf:_Enumerator_System_Collections_IEnumerator_Reset_m70453843_gshared
Pab:__ZThn32_NK8Renderer14GetSubsetIndexEi
cxc:__ZN5physx2Sc16ArticulationCore26setExternalDriveIterationsEj
OJb:__ZN13ProduceHelperI15ResourceManagerLb0EE7ProduceE18MemLabelIdentifier18ObjectCreationMode
mga:__ZN9GfxDevice15ImmediateVertexEfff
VHb:__Z13RegisterClassI8MaterialEvv
Reg:__ZL51Evidence_t1407710183_CustomAttributesCacheGeneratorP21CustomAttributesCache
vNc:__ZN5physx14NpRigidDynamic10clearForceENS_11PxForceMode4EnumE
r3a:__ZN16GraphicsSettings13AwakeFromLoadE17AwakeFromLoadMode
phe:_FieldAccessException__ctor_m3893881490
jp:__ZN6Object13AwakeFromLoadE17AwakeFromLoadMode
$da:__ZN13GfxDeviceGLES15SetStencilStateEPK18DeviceStencilStatei
Kkg:__ZL72PKCS12_t1362584795_CustomAttributesCacheGenerator_U3CU3Ef__switchU24map5P21CustomAttributesCache
yd:_emscripten_glUniform1iv
VNd:_String_System_IConvertible_ToDouble_m3860911722
xVa:__ZN16MemoryFileSystemD2Ev
aHf:_Dictionary_2_System_Collections_Generic_ICollectionU3CSystem_Collections_Generic_KeyValuePairU3CTKeyU2CTValueU3EU3E_Contains_m842343255_gshared
wDb:__ZN9ShaderLab18SerializedPropertyD2Ev
xwf:_InternalEnumerator_1_System_Collections_IEnumerator_get_Current_m1931522460_AdjustorThunk
jKd:_SecurityPermission_IsEmpty_m1869313067
B4e:_X509CertificateCollection__ctor_m3709509050
cTc:__ZN5physx7NpSceneD2Ev
ZHe:_EncryptedPrivateKeyInfo_get_Salt_m2734354394
iTh:__ZNK15dense_hashtableI10KeyWrapperIP18Il2CppGenericClassES3_N6il2cpp8metadata22Il2CppGenericClassHashEN14dense_hash_setIS3_S6_NS3_14EqualsComparerINS5_25Il2CppGenericClassCompareEEENSt3__29allocatorIS3_EEE8IdentityESA_SD_E10test_emptyERK30dense_hashtable_const_iteratorIS3_S3_S6_SF_SA_SD_E
XXh:__ZN6il2cpp2os5posix15PosixWaitObject4WaitEjb
x7c:__ZNK5physx16PxsBroadPhaseMBP18getNumDeletedPairsEv
mud:__ZN5physx7profile8ZoneImplINS_28PxProfileNameProviderForwardEE10startEventEty
yV:__ZN15dense_hashtableINSt3__24pairIKPKcPK4RTTIEES3_N11TypeManager23ConstCharPtrHashFunctorEN14dense_hash_mapIS3_S7_SA_NS9_19ConstCharPtrEqualToE13stl_allocatorIS8_L18MemLabelIdentifier6ELi16EEE9SelectKeyESC_SF_E12resize_deltaEjj
u2c:__ZN5physx10PxsCCDPair17sweepAdvanceToToiEfb
tHb:__ZN15ApplicationInfo16GetInstallerNameEv
iVa:__Z23ConvertIntegerToTypePtrItEbPvR14SafeBinaryRead
eHf:_Dictionary_2_System_Collections_IEnumerable_GetEnumerator_m1615804423_gshared
Pd:_emscripten_glStencilFunc
b$g:__Z101RuntimeInvoker_Void_t1841601450_Il2CppObject_Il2CppObject_Il2CppObject_Il2CppObject_Int32_t2071877448PK10MethodInfoPvPS2_
yvc:__ZN5physx6shdfnd8PoolBaseINS_2Cm5BlockIhLj384EEENS0_19ReflectionAllocatorIS4_EEE17releaseEmptySlabsEv
vid:__ZN5physx16PxsIslandManager11freeBuffersEv
wvh:__ZL23UnresolvedVirtualCall_6P12Il2CppObjectiPK10MethodInfo
oJf:_DefaultComparer_GetHashCode_m3315096533_gshared
osf:_MonoMethod_MakeGenericMethod_impl_m2063853616
hoc:__ZN5physx2Cm12DelegateTaskINS_2Sc17ParticleSystemSimEXadL_ZNS3_21prepareCollisionInputEPNS_10PxBaseTaskEEEE11runInternalEv
kMd:__Z46il2cpp_codegen_get_marshal_directive_exceptionPKc
uFb:__ZN9ShaderLab20SerializedSubProgram14AddMatrixParamEPKcii15ShaderParamTypei
Vd:_glGetActiveUniformBlockName
Q4f:__ZL65Il2CppArray_CustomAttributesCacheGenerator_Array_Sort_m2090966156P21CustomAttributesCache
Wme:_Guid_AppendByte_m2890893073
E$a:__ZNK17FileSystemHandler8IsHiddenERK13FileEntryData
JYd:_Char_System_IConvertible_ToType_m3106771703_AdjustorThunk
P7e:_Interval_Intersects_m3480157390_AdjustorThunk
Ruh:__ZN6il2cpp2vm13MetadataCache28GetGenericContainerFromIndexEi
$zg:_GCHandle_Alloc_m1063472408
ev:__ZN4FMOD7Channel20set3DConeOrientationEP11FMOD_VECTOR
bn:FUNCTION_TABLE_iiifii
kgf:_CryptoConfig_CreateFromName_m391442950
STh:__ZN6il2cpp2vm12GenericClass11SetupEventsEP11Il2CppClass
_5:__ZN19RuntimeSceneManager18LoadSceneAsyncIntoER10UnitySceneRKN4core12basic_stringIcNS2_20StringStorageDefaultIcEEEENS_11LoadingModeEb
u3d:_SortedList__ctor_m3698381356
tah:__Z31RuntimeInvoker_Slot_t2022531261PK10MethodInfoPvPS2_
BSh:__ZN6il2cpp2vm15ReboxIReferenceEP14Il2CppIUnknownP11Il2CppClass
ewe:_StreamWriter_LowLevelWrite_m4205372900
_mh:__ZN6il2cpp6icalls8mscorlib6System7Decimal14decimalCompareEP19il2cpp_decimal_reprS5_
G4h:__ZThn4_N6il2cpp2vm13CachedCCWBaseINS0_13ManagedObjectEE7ReleaseEv
Gqc:__ZN5physx26PxcFsComputeJointLoadsSimdERKNS_9PxcFsDataEPKNS_12PxcFsInertiaEPNS_6shdfnd3aos6Mat33VEPKfjjNS_21PxcFsScratchAllocatorE
yqf:_Module__ctor_m3853650010
c1d:_CollectionBase_System_Collections_IList_get_Item_m2370387510
nQc:__ZN5physx6shdfnd8SyncImpl7getSizeEv
Ocg:__ZL59RemotingException_t109604560_CustomAttributesCacheGeneratorP21CustomAttributesCache
M2:__ZNSt3__26__treeINS_12__value_typeIN9ShaderLab16FastPropertyNameE10ColorRGBAfEENS_19__map_value_compareIS3_S5_NS_4lessIS3_EELb1EEENS_9allocatorIS5_EEE12__find_equalIS3_EERPNS_16__tree_node_baseIPvEENS_21__tree_const_iteratorIS5_PNS_11__tree_nodeIS5_SF_EEiEESI_RKT_
fki:_glCopyTexImage2D__wrapper
Wfg:__ZL88UTF7Encoding_t741406939_CustomAttributesCacheGenerator_UTF7Encoding_GetBytes_m3015176946P21CustomAttributesCache
Lch:_Camera_FireOnPreCull_m1679634170
dag:__ZL68TargetInvocationException_t4098620458_CustomAttributesCacheGeneratorP21CustomAttributesCache
Rjg:__ZL56RankException_t1539875949_CustomAttributesCacheGeneratorP21CustomAttributesCache
Wac:__ZN5physx11PxHitBufferINS_12PxRaycastHitEED0Ev
V2:__Z18ClearByDrawingQuad13GfxClearFlagsRK10ColorRGBAffjR17ShaderPassContext
KCg:_DynamicPropertyCollection_FindProperty_m1233265924
Q4:__ZN6prcoreL17RemapGenericFloatI14TexFormatRHalf15TexFormatRFloatEEvPKNS_9InnerInfoE
QEa:__Z16ShouldUseShadowsb
VJ:__ZN15DirectorManager21RebuildStageCallbacksEv
nn:FUNCTION_TABLE_iifff
Q5:__ZN19RuntimeSceneManager9LoadSceneERKN4core12basic_stringIcNS0_20StringStorageDefaultIcEEEES6_S6_RK9UnityGUIDiNS_11LoadingModeE
qma:__ZN7ApiGLES10DrawArraysE16GfxPrimitiveTypejjj
t0b:__ZN5physx3Cct13BoxController15getPxControllerEv
Ns:__ZN10SampleClip13LoadBaseSoundEv
E6b:__ZN5physx2Gu22gjkRelativePenetrationINS0_17ShrunkConvexHullVES2_EEjRKT_RKT0_RKNS_6shdfnd3aos15PsMatTransformVERKNSA_6FloatVERNSA_5Vec3VESI_SI_RSE_PhSK_Rh
BZg:__Z62RuntimeInvoker_Il2CppObject_Int32_t2071877448_SByte_t454417549PK10MethodInfoPvPS2_
YWh:__ZN15dense_hashtableINSt3__24pairIK10KeyWrapperIP12Il2CppObjectEN6il2cpp2gc9CachedCCWEEES5_NS7_5utils11PointerHashIS3_EEN14dense_hash_mapIS5_S9_SD_NS5_14EqualsComparerINS0_8equal_toIS4_EEEENS0_9allocatorISA_EEE9SelectKeyESI_SK_E15insert_noresizeERKSA_
tjd:__ZN5physx2Sc19ParticlePacketShapeC2ERNS0_17ParticleSystemSimEjPNS_16PxvParticleShapeE
U2:__ZN22DeviceMVPMatricesStateC2ER9GfxDevice
Qvg:_Regex_IsMatch_m1286520424
nAc:__ZN5physx9NpPhysics18createTriangleMeshERNS_13PxInputStreamE
qn:FUNCTION_TABLE_iiiiifiiiif
Y1g:__Z48RuntimeInvoker_Int64_t909078037_Int64_t909078037PK10MethodInfoPvPS2_
NNd:_String__ctor_m372528291
FEa:__ZNK6Camera32ResolveLastTargetToCurrentTargetEv
ofd:__ZN5physx2Cm12DelegateTaskINS_2Sc5SceneEXadL_ZNS3_14updateDynamicsEPNS_10PxBaseTaskEEEED0Ev
$6:__ZNSt3__26__treeIiNS_4lessIiEE13stl_allocatorIiL18MemLabelIdentifier1ELi16EEE7destroyEPNS_11__tree_nodeIiPvEE
ac:invoke_viiifi
Lqg:__ZL79Physics_t634932869_CustomAttributesCacheGenerator_Physics_RaycastAll_m233036521P21CustomAttributesCache
Xye:_LongComparer_Compare_m3981323622
vXg:__Z64RuntimeInvoker_UInt64_t2909196914_Il2CppObject_Int32_t2071877448PK10MethodInfoPvPS2_
Hnd:__ZN5physx6shdfnd5ArrayIPNS_7PxActorENS0_19ReflectionAllocatorIS3_EEE8recreateEj
nHe:__ZN23InterfaceActionInvoker2IP8String_tP12Il2CppObjectE6InvokeEjP11Il2CppClassS3_S1_S3_
Hba:__ZNK11AssetBundle14GetPreloadDataEiR13dynamic_arrayIiLj4EE
fJe:_EncryptedData_get_EncryptedContent_m2732115576
cf:_JS_Sound_SetPosition
lvg:_Assertion_set_FalseExpression_m1781616372
K5e:_X509SubjectKeyIdentifierExtension_FromHexChars_m2515150420
Z8:__ZNK9Texture3D26CanReuploadDataToGfxDeviceEv
Cuh:__ZL13GetSharedInstPK17Il2CppGenericInst
x5f:__ZL51IReflect_t3412036974_CustomAttributesCacheGeneratorP21CustomAttributesCache
ugh:_RenderPipelineManager_CleanupRenderPipeline_m2242901458
VAg:_AppDomainLevelActivator__ctor_m230071814
Fdh:_Component_GetComponentsInChildren_m908027537
Izd:__ZN22BaseUnityConnectClient17SaveSessionValuesEv
xEg:_CallContextRemotingData_Clone_m2226242476
cO:__Z63ThreadAndSerializationSafeCheckSetMonoBehaviourBeingTransferredP13MonoBehaviour
LDc:__ZNK5physx7NpCloth14getNbParticlesEv
igc:__ZN5physx2Sc10NPhaseCore24releaseShapeInstancePairEPNS0_19ShapeInstancePairLLEjj
UKa:__Z24SetupActiveLightsContextR21ActiveLightingContextRK12ActiveLightsRK11CullResultsP14ShadowMapCacheRK10MinMaxAABB
NHf:_Dictionary_2_System_Collections_Generic_ICollectionU3CSystem_Collections_Generic_KeyValuePairU3CTKeyU2CTValueU3EU3E_Contains_m3400497673_gshared
Oad:__ZN5physx2GuL34fullContactsGenerationConvexConvexERKNS0_11ConvexHullVERS1_RKNS_6shdfnd3aos12PsTransformVES9_bbPNS0_17PersistentContactERjRNS0_13ContactBufferERNS0_25PersistentContactManifoldERNS6_5Vec3VERKNS6_6FloatVEb
gce:_DBNull_System_IConvertible_ToUInt32_m2681284284
pIh:__ZNK15dense_hashtableINSt3__24pairIK10KeyWrapperIPK22Il2CppGenericParameterEPK24MonoGenericParameterInfoEES6_N6il2cpp5utils11PointerHashIS4_EEN14dense_hash_mapIS6_SA_SF_NS6_14EqualsComparerINS0_8equal_toIS5_EEEENS0_9allocatorISB_EEE9SelectKeyESK_SM_E3endEv
G2a:__ZN6Camera8TransferI24GenerateTypeTreeTransferEEvRT_
Ga:invoke_iiiiiiif
Ca:invoke_iiiiiiii
jlb:__ZN24RingBufferMemoryFileData16ConsumeReadBytesEy
U5c:__ZN5physx21SapPostUpdateWorkTaskD0Ev
d4e:_X509ChainElementCollection_Contains_m3599995067
toi:b120
fwc:__ZN5physx7NpActor18releaseConstraintsERNS_12PxRigidActorE
rdc:__ZN5physx6shdfnd5ArrayINS_11PxDebugLineENS0_19ReflectionAllocatorIS2_EEE8recreateEj
aUg:__Z53RuntimeInvoker_Il2CppObject_Il2CppObject_Il2CppObjectPK10MethodInfoPvPS2_
gMc:__ZNK5physx22NpParticleBaseTemplateINS_16PxParticleSystemENS_16NpParticleSystemEE20getMaxMotionDistanceEv
uK:__Z21PostprocessStacktracePKcRN4core12basic_stringIcNS1_20StringStorageDefaultIcEEEE
WXe:_SslClientStream_OnLocalPrivateKeySelection_m3649986106
kY:__ZN19RenderBufferManager13GetTempBufferEii17DepthBufferFormat19RenderTextureFormatj22RenderTextureReadWrite14VRTextureUsagei
yib:__ZN18StreamedBinaryReadILb0EE21TransferSTLStyleArrayI13dynamic_arrayI16SplashScreenLogoLj4EEEEvRT_17TransferMetaFlags
_Nc:__ZNK5physx14NpRigidDynamic25getContactReportThresholdEv
qNd:_Single_CompareTo_m2081476257
QLf:_Array_InternalArray__ICollection_Remove_TisX509ChainStatus_t4278378721_m4127982424_gshared
sSb:__Z47Register_UnityEngine_Camera_get_allCamerasCountv
rIc:__ZN5physx22NpParticleBaseTemplateINS_15PxParticleFluidENS_15NpParticleFluidEE16releaseParticlesEv
Lzd:__ZN22BaseUnityConnectClient20StartEventDispatcherEv
_dh:_Component_SendMessage_m2241432133
Tma:__ZL25ProgramUniformMatrix4x3fvPK7ApiGLESjiihPKv
BUa:__Z29StdTemplateConversionFunctionIsiEbPvR14SafeBinaryRead
Xed:__Z22updateIslandsToProcessRKN5physx2Cm10BitMapBaseINS_6shdfnd9AllocatorEEEPKjRKNS_11NodeManagerERS4_
WJf:_EqualityComparer_1_System_Collections_IEqualityComparer_Equals_m3376587337_gshared
Cya:__ZN12InputManager13InputEndFrameEv
a3d:_SyncHashtable__ctor_m2029869827
nAh:__ZNSt3__26__treeIP11Il2CppClassNS_4lessIS2_EENS_9allocatorIS2_EEE25__emplace_unique_key_argsIS2_JRKS2_EEENS_4pairINS_15__tree_iteratorIS2_PNS_11__tree_nodeIS2_PvEEiEEbEERKT_DpOT0_
uMh:__ZN6il2cpp2vm6Thread5SetupEP12Il2CppThread
xrd:__ZN8Collider30GetRelativePositionAndRotationERK9TransformR10Matrix4x4f
A2c:__ZN5physx35PxcSweepEstimateAnyShapeHeightfieldERKNS_11PxsCCDShapeES2_PKNS_12PxsRigidBodyES5_RKNS_11PxTransformES8_f
Mdc:__ZN5physx3Cct13BoxControllerC2ERKNS_16PxControllerDescERNS_9PxPhysicsEPNS_7PxSceneE
QLg:_Collection_1_CheckWritable_m2756357359_gshared
Oai:___munmap
X7d:_Convert_ToInt64_m1722087499
Xf:_localtime_r
UBa:__ZN22RenderingCommandBuffer13GetAndCheckRTE24BuiltinRenderTextureTypeRKN9ShaderLab16FastPropertyNameEPKcPP13RenderTexture
Sgg:__ZL81AppDomain_t2719102437_CustomAttributesCacheGenerator_assembly_resolve_in_progressP21CustomAttributesCache
Jag:__ZL65InterfaceTypeAttribute_t4113096249_CustomAttributesCacheGeneratorP21CustomAttributesCache
Zf:_strftime
ohf:_DSACryptoServiceProvider_OnKeyGenerated_m1573093697
qI:__ZN12FileAccessorD2Ev
Q1:__ZN10ColorRGBAf8TransferI18StreamedBinaryReadILb0EEEEvRT_
neb:__ZN14VertexDataInfoC2Ev
khe:_Exception_GetObjectData_m2653827630
umh:_Vector3_Equals_m2692262876_AdjustorThunk
kzf:_InternalEnumerator_1_get_Current_m2415979394_gshared
nxb:__ZL17Transfer_GUIStyleI18StreamedBinaryReadILb1EELb1EEvRK29SerializationCommandArgumentsR31RuntimeSerializationCommandInfo
IAh:__ZN6il2cpp6icalls8mscorlib6SystemL9IsPrivateEPK12PropertyInfo
G2c:__ZNK5physx18PxcConvexTriangles16getPolygonNormalEj
ckf:_CustomAttributeData_GetCustomAttributes_m3258419955
TM:__ZN9shadertag10InitializeEv
dFa:__ZN13BatchRenderer20RenderSingleWithPassER17ShaderPassContextPK18SharedMaterialDataP6ShaderPN9ShaderLab4PassEiPKNS7_10GrabPassesEjib15BatchBreakCause
Dvd:__ZN5physx24NpPtrTableStorageManager8canReuseEjj
cRd:_EncoderFallback__ctor_m1639180960
dcb:__ZN15QualitySettings14QualitySetting8TransferI24GenerateTypeTreeTransferEEvRT_
yPf:_Array_InternalArray__ICollection_CopyTo_TisParameterModifier_t1820634920_m4127516211_gshared
uMd:_DecoderReplacementFallback__ctor_m2344783488
QSc:__ZN5physx2Sc27ConstraintProjectionManager33processConstraintForGroupBuildingEPNS0_13ConstraintSimERNS0_20ScratchAllocatorListIS3_Lj64EEE
_Ee:_SequentialSearchPrimeGeneratorBase_GenerateNewPrime_m545729286
j4h:__ZN6il2cpp6icalls8mscorlib6System9Threading16NativeEventCalls19ResetEvent_internalE12Il2CppIntPtr
Hmd:__ZN5physx20InternalTriangleMesh17allocateTrianglesEjb
SOb:__ZN22BlockMemoryCacheWriter14LockCacheBlockEjPPhS1_
e_h:__ZN6il2cpp2os6Thread10RunWrapperEPv
eLc:__ZN5physx22NpParticleBaseTemplateINS_15PxParticleFluidENS_15NpParticleFluidEED2Ev
VQc:__ZN5physx2Cm29ConstraintImmediateVisualizer19visualizeDoubleConeERKNS_11PxTransformEfb
UZb:__Z22TransferField_NonArrayI8JSONRead27Converter_SimpleNativeClassI8GUIStyleEEvRK23StaticTransferFieldInfoR31RuntimeSerializationCommandInfoRT0_
e1b:__ZN5physx6shdfnd5ArrayINS_13PxExtendedBoxENS0_19ReflectionAllocatorIS2_EEE8recreateEj
i8c:__ZN5physx20ProcessBPResultsTask11runInternalEv
skc:__ZN5physx6shdfnd5ArrayIPvNS0_19ReflectionAllocatorINS_2Cm5BlockIS2_Lj16EEEEEE4copyINS0_15InlineAllocatorILj256ES7_EEEEvRKNS1_IS2_T_EE
Dg:_llvm_eh_typeid_for
FNb:__Z13RegisterClassI10GameObjectEvv
Y6f:__ZL53HashValues_t2390200547_CustomAttributesCacheGeneratorP21CustomAttributesCache
P2e:_X509BasicConstraintsExtension_get_PathLengthConstraint_m3004531343
y8f:__ZL125GenericTypeParameterBuilder_t1370236603_CustomAttributesCacheGenerator_GenericTypeParameterBuilder_GetConstructors_m103067670P21CustomAttributesCache
wTc:__ZN5physx7NpScene19getActiveTransformsERjh
Xgd:__ZN5physx6shdfnd5ArrayIPKNS_24PxsIndexedContactManagerENS0_19ReflectionAllocatorIS4_EEE8recreateEj
eye:_MissingMemberException__ctor_m4277447068
sC:__Z7ToUpperIN4core12basic_stringIcNS0_20StringStorageDefaultIcEEEEET_RKS5_
Etf:_StrongNameKeyPair_System_Runtime_Serialization_ISerializable_GetObjectData_m1693082120
R_e:_NameValueCollection__ctor_m1767369537
czb:__Z18Transfer_BlittableI18StreamedBinaryReadILb0EELb1E8Vector4fEvRK29SerializationCommandArgumentsR31RuntimeSerializationCommandInfo
eZh:__ZN6il2cpp2vm6Method8GetParamEPK10MethodInfoj
Qpe:_Int64_CompareTo_m1953686218
OLh:_GenericComparer_1__ctor_m221205314_gshared
gSf:_BaseInvokableCall_ThrowOnInvalidArg_TisSingle_t2076509932_m3470174535_gshared
YQh:__ZN6il2cpp6icalls8mscorlib6System2IO6MonoIO4ReadE12Il2CppIntPtrP11Il2CppArrayiiPi
Jmi:_glBindVertexArray__wrapper
dqd:__ZN5physx6shdfnd5ArrayINS_11RTreeNodeNQENS0_19ReflectionAllocatorIS2_EEE19resizeUninitializedEj
ehc:__ZNK5physx2Sc16InteractionScene18getLLIslandManagerEv
_gf:_DSA_Create_m3450041777
K0:__ZN8Material8TransferI14SafeBinaryReadEEvRT_
d2c:__ZN5physx17PxcNpMemBlockPool34acquireExceptionalConstraintMemoryEj
L7a:__ZN12CubemapArray17UploadToGfxDeviceEv
b5:__ZN6prcoreL17RemapGenericFloatI15TexFormatRGHalf17TexFormatRGBAHalfEEvPKNS_9InnerInfoE
jeg:__ZL54PaddingMode_t3032142640_CustomAttributesCacheGeneratorP21CustomAttributesCache
lLh:__ZN24dense_hashtable_iteratorINSt3__24pairIK10KeyWrapperIP11Il2CppClassES4_EES5_N6il2cpp8metadata16SZArrayClassHashEN14dense_hash_mapIS5_S4_SA_NS5_14EqualsComparerINS9_19SZArrayClassCompareEEENS0_9allocatorIS7_EEE9SelectKeyESE_SG_E30advance_past_empty_and_deletedEv
MS:__ZN13RuntimeStaticI21AssetReferenceStorageLb0EE16StaticInitializeEPv
p3c:__ZN5physxL23PxcSweepConvexTrianglesERKNS_11PxsCCDShapeES2_RKNS_11PxTransformES5_S5_S5_fRNS_6PxVec3ES7_RNS_10PxcNpCacheERNS_18PxcNpThreadContextERKNS_2Cm23FastVertex2ShapeScalingERNS_2Gu9TriangleVEf
PBc:__ZNK5physx7NpShape16getPlaneGeometryERNS_15PxPlaneGeometryE
B3e:_X509Chain_CheckRevocationOnChain_m2441901351
z4h:__ZN6il2cpp2vm13ManagedObject14QueryInterfaceERK10Il2CppGuidPPv
SId:_SymmetricAlgorithm_CreateDecryptor_m4240570785
nqd:__ZN5physx27InternalTriangleMeshBuilder14fillRemapTableEv
ht:__ZN11AudioSource4StopEb
Foc:__ZN5physx6shdfnd8PoolBaseINS_13NpRigidStaticENS0_19ReflectionAllocatorIS2_EEE17releaseEmptySlabsEv
Xqb:__ZN14SafeBinaryRead21TransferSTLStyleArrayI13dynamic_arrayI10Matrix4x4fLj4EEEEvRT_17TransferMetaFlags
KXd:_Byte_System_IConvertible_ToDecimal_m1036493607
Igg:__ZL47Timer_t791717973_CustomAttributesCacheGeneratorP21CustomAttributesCache
oX:__Z25GetSplashScreenBackgroundRK5RectTIfE
xV:__ZN14dense_hash_mapIPKcPK4RTTIN11TypeManager23ConstCharPtrHashFunctorENS5_19ConstCharPtrEqualToE13stl_allocatorINSt3__24pairIKS1_S4_EEL18MemLabelIdentifier6ELi16EEEixERSB_
HCd:__ZN13RuntimeStaticI19UnityConnectServiceLb0EE16StaticInitializeEPv
Ttf:_ResourceManager__ctor_m498829021
Wqa:__ZN18GlslGpuProgramGLESD2Ev
kSa:__ZN13RenderTexture14SetVolumeDepthEi
xud:__ZThn116_NK5physx7profile8ZoneImplINS_28PxProfileNameProviderForwardEE10hasClientsEv
ybd:__ZN5physx2Gu20pcmContactCapsuleBoxERKNS0_13GeometryUnionES3_RKNS_11PxTransformES6_RKfRNS0_5CacheERNS0_13ContactBufferE
idf:_SerializationCallbacks__ctor_m722356782
y_b:__ZN10Matrix4x4f8TransferI8JSONReadEEvRT_
MP:__ZN14dense_hash_mapIPKcPK4RTTIN11TypeManager23ConstCharPtrHashFunctorENS5_19ConstCharPtrEqualToE13stl_allocatorINSt3__24pairIKS1_S4_EEL18MemLabelIdentifier6ELi16EEE5beginEv
Kag:__ZL49Marshal_t785896760_CustomAttributesCacheGeneratorP21CustomAttributesCache
SN:__ZN17PersistentManager18ReadObjectThreadedEi
Zha:__ZN25TransformFeedbackSkinning31CleanupTransformFeedbackShadersEv
V3h:__ZN6il2cpp6icalls8mscorlib6System7Runtime16CompilerServices14RuntimeHelpers15InitializeArrayEP11Il2CppArray12Il2CppIntPtr
JAf:_InternalEnumerator_1_System_Collections_IEnumerator_get_Current_m2851415307_gshared
Jgh:_Input_GetMouseButton_m464100923
c$e:_DefaultUriParser__ctor_m4218024811
Jce:_Decimal_System_IConvertible_ToInt16_m3159038792_AdjustorThunk
Ucb:__ZN10VertexData8TransferI18StreamedBinaryReadILb0EEEEvRT_
toc:__ZN5physx2Sc5Scene9addStaticERNS0_10StaticCoreEPKPvjj
KJe:_PKCS12_GetExistingParameters_m2413397265
wSa:__ZN14PreloadManager16UpdatePreloadingEv
_1a:__ZN12BaseRendererD2Ev
E5a:__ZN14SafeBinaryRead21TransferSTLStyleArrayI19StaticArrayTransferIiLi4EEEEvRT_17TransferMetaFlags
d_c:__ZN5physx2Sc5Scene9addShapesEPKPvjjRNS0_8RigidSimEPNS_12PxsRigidBodyERPNS0_8ShapeSimEPNS_9PxBounds3E
GYg:__Z148RuntimeInvoker_Int32_t2071877448_Il2CppObject_Int32_t2071877448_Int32_t2071877448_Il2CppObject_Int32_t2071877448_Int32_t2071877448_Int32_t2071877448PK10MethodInfoPvPS2_
mUh:__ZNK15dense_hashtableINSt3__24pairIK10KeyWrapperINS1_IPKcS4_EEEiEES6_24NamespaceAndNamePairHashN14dense_hash_mapIS6_iS9_NS6_14EqualsComparerI26NamespaceAndNamePairEqualsEENS0_9allocatorIS8_EEE9SelectKeyESD_SF_E10test_emptyEj
z_h:__ZN14dense_hash_mapI10KeyWrapperIPK19Il2CppGenericMethodEP10MethodInfoN6il2cpp8metadata23Il2CppGenericMethodHashENS4_14EqualsComparerINS8_26Il2CppGenericMethodCompareEEENSt3__29allocatorINSD_4pairIKS4_S6_EEEEEC2EjRKS9_RKSC_
oad:__ZN5physx23PxcPCMContactConvexMeshERKNS_2Gu13GeometryUnionES3_RKNS_11PxTransformES6_RKfRNS_10PxcNpCacheERNS0_13ContactBufferE
EXa:__ZNK21UnityDefaultAllocatorI17LowLevelAllocatorE8ContainsEPKv
vyh:__ZNSt3__213__vector_baseI6pollfdNS_9allocatorIS1_EEED2Ev
qTe:_ClientSessionInfo_get_Id_m3046630969
Nh:_emscripten_get_main_loop_timing
jse:_DirectoryInfo__ctor_m3750996792
ccb:__ZN24GenerateTypeTreeTransfer21TransferSTLStyleArrayINSt3__26vectorIN15QualitySettings14QualitySettingENS1_9allocatorIS4_EEEEEEvRT_17TransferMetaFlags
glh:_ResourceRequest_t2560315377_marshal_pinvoke_cleanup
MQa:__ZN23ManagedAttributeManager52CallManagedGetParentTypeDisallowingMultipleInclusionE17ScriptingClassPtr
Sgb:__ZNSt3__26vectorI9InputAxisNS_9allocatorIS1_EEE6resizeEj
C4h:__ZN6il2cpp2vm13ManagedObject7GetIidsEPjPP10Il2CppGuid
qKd:_SecurityElement_IsValidAttributeValue_m483287146
DQd:_Decoder_set_Fallback_m1780632169
Wgg:__ZL56AppDomainSetup_t611332832_CustomAttributesCacheGeneratorP21CustomAttributesCache
Ro:getTempRet0
rTd:_ArithmeticException__ctor_m104771799
p$g:__Z114RuntimeInvoker_Void_t1841601450_Il2CppObject_Il2CppObject_Int32_t2071877448_Il2CppObject_Il2CppObject_Il2CppObjectPK10MethodInfoPvPS2_
vjf:_AssemblyTitleAttribute__ctor_m1696431446
h6g:__Z80RuntimeInvoker_Il2CppObject_Ray_t2469606224_Single_t2076509932_Int32_t2071877448PK10MethodInfoPvPS2_
d$h:__ZN24dense_hashtable_iteratorINSt3__24pairIK10KeyWrapperIPK19Il2CppGenericMethodEP10MethodInfoEES6_N6il2cpp8metadata23Il2CppGenericMethodHashEN14dense_hash_mapIS6_S9_SD_NS6_14EqualsComparerINSC_26Il2CppGenericMethodCompareEEENS0_9allocatorISA_EEE9SelectKeyESH_SJ_E30advance_past_empty_and_deletedEv
IPe:_PrivateKeyInfo_RemoveLeadingZero_m3396807048
vIg:_List_1_GrowIfNeeded_m185971996_gshared
vOh:__ZN6il2cpp6icalls8mscorlib6System9ThreadingL21lookup_cached_cultureEP12Il2CppThreadi
QLa:__ZN18DeferredRenderLoopD2Ev
Vmf:_GenericTypeParameterBuilder_GetMethods_m1243855818
FQ:__ZNK16TypeTreeIterator4NameEv
PH:__ZN15FileSystemEntry3SetEPKc
rhd:__ZN5physx6shdfnd5ArrayIPNS_13PxcNpMemBlockENS0_19ReflectionAllocatorIS3_EEE6resizeEjRKS3_
oEd:_MACTripleDES__ctor_m884945242
cOc:__ZN5physx14NpRigidDynamic8requiresERNS_23PxProcessPxBaseCallbackE
Pu:__ZN20SoundChannelInstance15ParameterBuffer5ApplyEPN4FMOD7ChannelE
lgb:__ZN23SharedMeshRenderingDataD0Ev
L3f:__ZL73Enum_t2459695545_CustomAttributesCacheGenerator_Enum_ToObject_m1688724857P21CustomAttributesCache
dud:__ZN5physx7profile8ZoneImplINS_28PxProfileNameProviderForwardEE21setProfileZoneManagerEPNS_20PxProfileZoneManagerE
Yzd:__ZN11UnityEngine15PlatformWrapper24GetRuntimePlatformStringEv
wi:_glIsEnabled
OAb:__ZN15CacheWriterBaseD2Ev
mbc:__ZN5physx3Cct17CapsuleController15setFootPositionERKNS_14PxExtendedVec3E
K8b:__ZN5physx2Gu33PCMCapsuleVsMeshContactGeneration13generateEEMTDERKNS_6shdfnd3aos5Vec3VES6_RKNS3_6FloatVES6_jS6_S6_PNS0_21MeshPersistentContactERj
mnb:__Z25scripting_class_get_image17ScriptingClassPtr
ayc:__ZN18MultiQueryCallbackIN5physx10PxSweepHitEED0Ev
Ai:_emscripten_glDrawElementsInstanced
LQg:_GeneralNames_get_IPAddresses_m1712556836
COe:_HMAC_Initialize_m3052649104
Faa:__ZN18JobBatchDispatcherD2Ev
lGb:__ZN9Transform17MainThreadCleanupEv
K2h:_GC_clear_hdr_marks
Dni:_emscripten_glCreateShader__wrapper
oag:__ZL73CompilationRelaxationsAttribute_t238494011_CustomAttributesCacheGeneratorP21CustomAttributesCache
k9g:__Z74RuntimeInvoker_Void_t1841601450_Int32_t2071877448_KeyValuePair_2_t38854645PK10MethodInfoPvPS2_
qId:_SHA512Managed_processBlock_m3220567420
w_e:_NameObjectCollectionBase_get_Keys_m446053925
Ki:_emscripten_glGetShaderiv
xGf:_Transform_1__ctor_m353209818_gshared
Dxa:__ZZ23InitPlayerLoopCallbacksvEN41EarlyUpdateUpdateAllUnityWebStreamsstruct7ForwardEv
Rv:__ZN4FMOD6System10getVersionEPj
Kse:_FileLoadException_GetObjectData_m2047020314
lrg:__ZL96RemoteSettings_t392466225_CustomAttributesCacheGenerator_RemoteSettings_CallOnUpdate_m1624968574P21CustomAttributesCache
UNf:_Array_InternalArray__IndexOf_TisSByte_t454417549_m1427585061_gshared
cVg:__Z75RuntimeInvoker_Byte_t3683104436_Il2CppObject_Int32_t2071877448_Il2CppObjectPK10MethodInfoPvPS2_
d5d:_Decimal_u64_m3991988111
Gmh:_YieldInstruction_t3462875981_marshal_pinvoke
uRg:_X509Certificate_Parse_m1764345628
NDg:_SynchronizationAttribute_GetClientContextSink_m1264319894
dni:_emscripten_glCullFace__wrapper
_ea:__ZN9GfxDevice21ReleaseSharedMeshDataEP14SharedMeshData
ZKe:_SmallXmlParser_Peek_m2814840810
Ihb:__ZNSt3__27__sort5IRNS_6__lessINS_4pairIPKN5Unity4TypeE7Hash128EES8_EEPS8_EEjT0_SC_SC_SC_SC_T_
z3d:_Enumerator_Reset_m466659019
Bqh:__ZNK15dense_hashtableINSt3__24pairIK10KeyWrapperIPKcEP11Il2CppClassEES5_N6il2cpp5utils11StringUtils12StringHasherIS4_EEN14dense_hash_mapIS5_S8_SE_NS5_14EqualsComparerINSC_21CaseSensitiveComparerEEENS0_9allocatorIS9_EEE9SelectKeyESI_SK_E10test_emptyEj
IPg:_UnityAction_1_EndInvoke_m2822290096_gshared
R1h:_GC_unreachable_finalize_mark_proc
Vf:___syscall192
n3h:_maybe_finalize
Sj:_emscripten_glGetProgramiv
LEg:_ConstructionCall_GetObjectData_m3974358557
Pwc:__ZN5physx14NpShapeManagerC2Ev
x0:__ZN8Material28UpdateHashesOnPropertyChangeEN9ShaderLab16FastPropertyNameE
Fre:_DirectoryInfo_get_Parent_m1198766078
L0d:_CaseInsensitiveComparer_Compare_m1192858479
_ob:__Z18Transfer_BlittableI14SafeBinaryReadLb1E8Vector4fEvRK29SerializationCommandArgumentsR31RuntimeSerializationCommandInfo
tve:_StreamAsyncResult_set_Done_m4272090534
Ojf:_Default_SelectMethod_m622251293
aUh:__ZN6il2cpp2vm5Image13ClassFromNameEPK11Il2CppImagePKcS6_
fei:dynCall_vdddddd
GDb:__ZN24GenerateTypeTreeTransfer21TransferSTLStyleArrayINSt3__26vectorIN9ShaderLab14SerializedPassENS1_9allocatorIS4_EEEEEEvRT_17TransferMetaFlags
Lkc:__ZN5physx6shdfnd8internal8HashBaseIPNS_2Sc13ConstraintSimES5_NS0_4HashIS5_EENS1_11HashSetBaseIS5_S7_NS0_9AllocatorELb1EE6GetKeyES9_Lb1EE6createERKS5_Rb
AN:__ZL32MarkLevelGameManagerDependenciesR27GarbageCollectorThreadState
o5g:__Z49RuntimeInvoker_Void_t1841601450_UInt16_t986882611PK10MethodInfoPvPS2_
hha:__ZNK13GfxDeviceGLES26HasActiveRandomWriteTargetEv
xah:__Z37RuntimeInvoker_ILTokenInfo_t149559338PK10MethodInfoPvPS2_
Asc:__ZNK5physx15NpActorTemplateINS_18PxArticulationLinkEE7getNameEv
Eii:_glGetActiveUniformsiv__wrapper
I0b:__ZNK5physx3Cct10Controller16getInternalStateERNS_17PxControllerStateE
XO:__ZN13MonoBehaviour19SetupScriptingCacheE17ScriptingClassPtrP10MonoScript
G3g:__Z59RuntimeInvoker_Il2CppObject_Double_t4078015681_Il2CppObjectPK10MethodInfoPvPS2_
y4g:__Z83RuntimeInvoker_Void_t1841601450_Il2CppObject_Il2CppObject_Il2CppObject_Il2CppObjectPK10MethodInfoPvPS2_
EN:__ZNK15dense_hashtableINSt3__24pairIKiiEEi21InstanceIDHashFunctorN14dense_hash_mapIiiS4_NS0_8equal_toIiEE13stl_allocatorIS3_L18MemLabelIdentifier1ELi16EEE9SelectKeyES7_SA_E13find_positionERS2_
dZc:__ZN5physx10PxsContext15setScratchBlockEPvj
hsg:__ZL74UnityEventBase_t828812576_CustomAttributesCacheGenerator_m_PersistentCallsP21CustomAttributesCache
kJf:_DefaultComparer__ctor_m2265472997_gshared
FRh:__ZN6il2cpp2vm13LivenessState18ShouldProcessValueEP12Il2CppObjectP11Il2CppClass
rgb:__ZN4PPtrI6SpriteE8TransferI14SafeBinaryReadEEvRT_
rKh:__ZN15dense_hashtableINSt3__24pairIK10KeyWrapperIP11Il2CppClassES4_EES5_N6il2cpp8metadata16SZArrayClassHashEN14dense_hash_mapIS5_S4_SA_NS5_14EqualsComparerINS9_19SZArrayClassCompareEEENS0_9allocatorIS7_EEE9SelectKeyESE_SG_E16reset_thresholdsEv
Ifc:__ZN5physx2Cm27getDynamicGlobalPoseAlignedERKNS_11PxTransformES3_S3_RS1_
$_g:__Z45RuntimeInvoker_Il2CppObject_IntPtr_t_IntPtr_tPK10MethodInfoPvPS2_
cDb:__ZNSt3__26vectorIN9ShaderLab14SerializedPassENS_9allocatorIS2_EEE8__appendEj
Wnd:__ZN5physx6shdfnd5ArrayIPvNS0_19ReflectionAllocatorIN17PxcPoolMallocData10PoolData32EEEE15growAndPushBackERKS2_
vCb:__ZNSt3__26vectorIN9ShaderLab20SerializedSubProgram13BufferBindingENS_9allocatorIS3_EEEC2INS_11__wrap_iterIPS3_EEEET_SB_RKS5_PNS_9enable_ifIXaasr21__is_forward_iteratorISB_EE5valuesr16is_constructibleIS3_NS_15iterator_traitsISB_E9referenceEEE5valueEvE4typeE
STe:_Context_get_SupportedCiphers_m2172827298
dMb:__ZZL23RegisterLightPropertiesR22GenericPropertyBindingEN20Wrapper_LightColorb213GetFloatValueEPv
FG:__ZNK13ScreenManager21IsMultiDisplayEnabledEv
PYg:__Z170RuntimeInvoker_Int32_t2071877448_Il2CppObject_Int32_t2071877448_Int32_t2071877448_Il2CppObject_Int16_t4041245914_Int32_t2071877448_SByte_t454417549_ContextU26_t3131521781PK10MethodInfoPvPS2_
c9a:__ZN9Texture2D23VirtualRedirectTransferER18StreamedBinaryReadILb0EE
pfe:_Double_System_IConvertible_ToUInt16_m286326038_AdjustorThunk
sbf:_TypeInfo__ctor_m1475908211
M1a:__ZNSt3__26__treeINS_12__value_typeIN4core12basic_stringIcNS2_20StringStorageDefaultIcEEEEjEENS_19__map_value_compareIS6_S7_NS_4lessIS6_EELb1EEE13stl_allocatorIS7_L18MemLabelIdentifier6ELi16EEE7destroyEPNS_11__tree_nodeIS7_PvEE
DP:__ZN16ScriptingManager27NativeTypeForScriptingClassE17ScriptingClassPtr
C3e:_X509Chain_WrapUp_m1072032285
QSg:_X509CertificateEnumerator_System_Collections_IEnumerator_MoveNext_m1448966539
eTf:_Object_FindObjectOfType_TisIl2CppObject_m2967490724_gshared
eTe:_TlsServerHelloDone__ctor_m2125611008
Fza:_unity_z_tr_stored_block
lUg:__Z46RuntimeInvoker_Single_t2076509932_Il2CppObjectPK10MethodInfoPvPS2_
KMd:_SecuritySafeCriticalAttribute__ctor_m2508714287
SHb:__Z13RegisterClassI5LightEvv
cNf:_Array_compare_TisIl2CppObject_m1481822507_gshared
uwd:__ZN5physx2Gu20registerHeightFieldsEv
Eab:__ZN8Renderer20RendererAddedToSceneEv
Igf:_DES_get_Key_m2584608215
cNa:__ZL22ScheduleSceneNodesJobsP25ScheduleSceneNodesJobDataj
I5c:__ZN5physx22concludeContactCoulombERKNS_23PxcSolverConstraintDescERNS_16PxcSolverContextE
zk:_emscripten_set_canvas_size
J4f:__ZL65Il2CppArray_CustomAttributesCacheGenerator_Array_Sort_m3645766612P21CustomAttributesCache
aJc:__ZNK5physx15NpParticleFluid12getStiffnessEv
a2d:_Hashtable__ctor_m741952536
NCb:__ZNSt3__26vectorIN9ShaderLab20SerializedSubProgramENS_9allocatorIS2_EEE8__appendEj
fF:__ZN20DynamicHeapAllocatorI17LowLevelAllocatorE8AllocateEji
LFa:__ZN20DynamicPropertySheet15SetVectorQueuedERKN9ShaderLab16FastPropertyNameERK8Vector4fN19ShaderPropertySheet8SetFlagsE
lPd:_String_Format_m1263743648
dch:_DefaultExecutionOrder_get_order_m1561221759
m_d:_ArrayList_get_IsSynchronized_m481976864
G6a:__ZN14RenderSettings23VirtualRedirectTransferER19StreamedBinaryWriteILb0EE
_Wb:__ZL26Transfer_SimpleNativeClassI9JSONWrite10RectOffsetLb0EEvRK29SerializationCommandArgumentsR31RuntimeSerializationCommandInfo
j2h:_GC_push_conditional
Ika:__ZN17GenericDynamicVBO10AllocateVBEjR21DynamicVBOChunkHandle
AJg:_List_1_get_Item_m1547593893_gshared
Wre:_Path_GetPathRoot_m1269357080
O9c:__ZL27PxcTestFacesSepAxesBackfaceRKN5physx2Gu13PolygonalDataES3_RKNS_2Cm8Matrix34ES7_RKNS4_23FastVertex2ShapeScalingESA_S7_RKNS_6PxVec3ERfRSB_RjPjSG_fSD_
gTh:__ZN30dense_hashtable_const_iteratorI10KeyWrapperIP18Il2CppGenericClassES3_N6il2cpp8metadata22Il2CppGenericClassHashEN14dense_hash_setIS3_S6_NS3_14EqualsComparerINS5_25Il2CppGenericClassCompareEEENSt3__29allocatorIS3_EEE8IdentityESA_SD_EppEv
FGf:_Transform_1__ctor_m4161450529_gshared
Yk:_glMapBufferRange
X8a:__ZN9Texture2D8TransferI18StreamedBinaryReadILb0EEEEvRT_
nTb:__Z31Input_CUSTOM_GetMouseButtonDowni
O4f:__ZL65Il2CppArray_CustomAttributesCacheGenerator_Array_Sort_m1730553742P21CustomAttributesCache
nEc:__ZNK5physx7NpCloth23getExternalAccelerationEv
Srf:_MonoGenericMethod_get_ReflectedType_m3194343466
ITd:_Array_System_Collections_ICollection_get_Count_m2897196527
Qba:__ZN13LoadOperation19IntegrateTimeSlicedEi
Nbb:__ZNK15QualitySettings26GetTypeInfoVirtualInternalEv
m7e:_InterpreterFactory__ctor_m3331468903
g7c:__ZN5physx16PxsBroadPhaseMBP9updatePPUEPNS_10PxBaseTaskE
pKe:_X501__cctor_m3795360380
uha:__ZN13GfxDeviceGLES22DispatchComputeProgramE12ObjectHandleI18ComputeProgram_TagPvE15ComputeBufferIDj
Q7d:_Convert_ToInt32_m2297793940
kaa:__Z17TransformAABBSlowRK4AABBRK10Matrix4x4fRS_
Q9a:__ZN15SerializeTraitsI13dynamic_arrayI7Hash128Lj8EEE19ResizeSTLStyleArrayERS2_i18MemLabelIdentifier
lJh:__ZN13Il2CppHashMapINSt3__24pairIPK9FieldInfoP11Il2CppClassEEj17ReflectionMapHashIS7_ENS0_8equal_toIS7_EENS0_9allocatorINS1_IK10KeyWrapperIS7_EjEEEEEC2EjRKS9_RKSB_
CBb:__ZN9ShaderLab21SerializedShaderState8TransferI14SafeBinaryReadEEvRT_
sbi:_ftruncate
oHd:_RSAPKCS1SignatureFormatter_SetKey_m2365816458
Pne:_Int16_GetHashCode_m304503362_AdjustorThunk
zFh:__ZN15dense_hashtableINSt3__24pairIK10KeyWrapperINS1_IPK11Il2CppImageP11Il2CppClassEEEjEES9_17ReflectionMapHashIS8_EN14dense_hash_mapIS9_jSD_NS9_14EqualsComparerINS0_8equal_toIS8_EEEENS0_9allocatorISB_EEE9SelectKeyESI_SK_E8min_sizeEjj
jLc:__ZN5physx6shdfnd8PoolBaseINS_16NpParticleSystemENS0_19ReflectionAllocatorIS2_EEE12allocateSlabEv
Dcd:__ZN5physx9PxTaskMgr12dispatchTaskEjb
CUf:_CompressedStack__ctor_m276924800
I1:__ZN15SerializeTraitsINSt3__24pairIN4core12basic_stringIcNS2_20StringStorageDefaultIcEEEES6_EEE8TransferI24GenerateTypeTreeTransferEEvRS7_RT_
lni:b89
nmi:b88
Yki:b81
Tki:b80
cmi:b83
gQ:__ZN18ResourceImageGroup7CleanupEv
gmi:b85
wic:__ZN5physx2Gu36closestPtPointTetrahedronTesselationEPNS_6shdfnd3aos5Vec3VES4_S4_RjRS3_S6_
jmi:b87
hmi:b86
Gq:__ZN11Quaternionf8TransferI24GenerateTypeTreeTransferEEvRT_
bad:__ZN5physx25PxcPCMContactSphereConvexERKNS_2Gu13GeometryUnionES3_RKNS_11PxTransformES6_RKfRNS_10PxcNpCacheERNS0_13ContactBufferE
KLb:__ZN13ProduceHelperI4MeshLb0EE7ProduceE18MemLabelIdentifier18ObjectCreationMode
GPe:_PrivateKeyInfo_Decode_m1053025782
g5e:_X509ChainElementCollection_System_Collections_ICollection_CopyTo_m1467895312
Ejd:__ZN5physx2Cm18DelegateFanoutTaskINS_2Sc5SceneEXadL_ZNS3_20particlePostShapeGenEPNS_10PxBaseTaskEEEED0Ev
sJe:_PKCS12_Decrypt_m2457743414
Uph:__ZN15dense_hashtableINSt3__24pairIK10KeyWrapperIPK11Il2CppClassEPKcEES6_N6il2cpp5utils11PointerHashIS3_EEN14dense_hash_mapIS6_S9_SE_NS6_14EqualsComparerINS0_8equal_toIS5_EEEENS0_9allocatorISA_EEE9SelectKeyESJ_SL_EC2ERKSO_j
Ll:_glDeleteShader
fhe:_Exception_GetType_m3898489832
Y4:__ZN6prcoreL17RemapGenericFloatI15TexFormatRGHalf16TexFormatRGFloatEEvPKNS_9InnerInfoE
Sed:__ZN5physx16PxsIslandManager17cleanupEdgeEventsEv
fzc:__ZN5physx6shdfnd8PoolBaseINS_10NpMaterialENS0_19ReflectionAllocatorIS2_EEE15disposeElementsEv
yxa:__ZZ23InitPlayerLoopCallbacksvEN38EarlyUpdateExecuteMainThreadJobsstruct7ForwardEv
iRb:__Z27scripting_add_internal_callPKcPKv
yQf:_Array_InternalArray__Insert_TisUriScheme_t1876590943_m2728325409_gshared
XIh:__ZN13Il2CppHashMapINSt3__24pairIPK9EventInfoP11Il2CppClassEEj17ReflectionMapHashIS7_ENS0_8equal_toIS7_EENS0_9allocatorINS1_IK10KeyWrapperIS7_EjEEEEEC2EjRKS9_RKSB_
hWh:__GLOBAL__sub_I_GarbageCollector_cpp
qM:__Z17GetPlayerSettingsv
$1b:__ZL21ContactReductionAllInRN5physx2Gu13ContactBufferEjjRKNS_7PxMat33EPKNS_6PxVec3EPKh
bTg:_X509Store_CheckStore_m1027496478
K9f:__ZL82MethodBase_t904190842_CustomAttributesCacheGenerator_MethodBase_Invoke_m1075809207P21CustomAttributesCache
k7g:__Z133RuntimeInvoker_Boolean_t3825574718_Vector3U26_t425862308_Vector3U26_t425862308_Single_t2076509932_Int32_t2071877448_Int32_t2071877448PK10MethodInfoPvPS2_
LZ:__ZN13RenderTexture8TransferI24GenerateTypeTreeTransferEEvRT_
Ubi:__ZNSt3__212basic_stringIcNS_11char_traitsIcEENS_9allocatorIcEEEC2ERKS5_jjRKS4_
PDf:_DefaultComparer_Compare_m1606207039_gshared
v6h:__ZN6il2cpp2vm9Parameter30GetDefaultParameterValueObjectEPK10MethodInfoPK13ParameterInfoPb
buf:_ResourceReader_ReadValueVer2_m252146049
Sqf:_MonoCMethod_get_Attributes_m3914742834
vhh:_MonoBehaviour_Invoke_m666563676
blf:_ConstructorBuilder_get_DeclaringType_m4264602248
FYb:__Z18Transfer_BlittableI8JSONReadLb0EfEvRK29SerializationCommandArgumentsR31RuntimeSerializationCommandInfo
lwe:_StringReader__ctor_m643998729
Z$e:_IPv6Address_TryParse_m2220524278
ltc:__ZN5physx19NpRigidBodyTemplateINS_18PxArticulationLinkEE16setRigidBodyFlagENS_15PxRigidBodyFlag4EnumEb
U2g:__Z75RuntimeInvoker_DateTime_t693205669_DateTime_t693205669_TimeSpan_t3430258949PK10MethodInfoPvPS2_
BCg:_Context_get_DefaultContext_m2211922324
rAg:_MarshalDirectiveException__ctor_m1606841389
XPe:_RSAManaged_GetPaddedValue_m2972141669
kVe:_TlsServerCertificate_ProcessAsSsl3_m277089231
MMf:_Array_InternalArray__IEnumerable_GetEnumerator_TisUInt16_t986882611_m3665860884_gshared
EW:__Z19scripting_gc_enablev
fwg:_AnchorInfo__ctor_m617409099
mvd:__ZN5physx7profile11EventBufferINS_24PxDefaultContextProviderENS_6shdfnd6MutexTINS0_26WrapperReflectionAllocatorIhEEEENS0_14ScopedLockImplIS7_EENS_24PxProfileNullEventFilterEE9stopEventEty
eUa:__Z29StdTemplateConversionFunctionIihEbPvR14SafeBinaryRead
T7e:_Interval_CompareTo_m2909556284_AdjustorThunk
jeb:__ZN14SafeBinaryRead21TransferSTLStyleArrayI13dynamic_arrayI11ColorRGBA32Lj4EEEEvRT_17TransferMetaFlags
K6e:_Interpreter_GetLastDefined_m2450713313
wvg:_Parser_ParseAssertionType_m3316669790
P3f:__ZL73Enum_t2459695545_CustomAttributesCacheGenerator_Enum_ToObject_m2460371738P21CustomAttributesCache
zHh:__ZN6il2cpp2gc19AppendOnlyGCHashMapINSt3__24pairIPK11Il2CppImageP11Il2CppClassEEP22Il2CppReflectionModule17ReflectionMapHashIS9_ENS2_8equal_toIS9_EEEC2Ev
PN:__Z20GetPersistentManagerv
ACg:_Context_Finalize_m1386439645
fW:__ZN21SystemInfoStringCache16StaticInitializeEPv
sRe:_TlsStream__ctor_m4117943603
mEh:__ZN15dense_hashtableINSt3__24pairIK10KeyWrapperIPK10Il2CppTypeEjEES6_N6il2cpp8metadata14Il2CppTypeHashEN14dense_hash_mapIS6_jSB_NS6_14EqualsComparerINSA_26Il2CppTypeEqualityComparerEEENS0_9allocatorIS8_EEE9SelectKeyESF_SH_E12maybe_shrinkEv
aRf:_Array_InternalArray__set_Item_TisParameterModifier_t1820634920_m3126548327_gshared
bhc:__ZN5physx2Sc7BodySim18internalWakeUpBaseEf
RYh:__ZN6il2cpp2gc16GarbageCollector23MakeDescriptorForObjectEPji
Xse:_FileStream__ctor_m756268517
ttf:_ParameterModifier_t1820634920_marshal_pinvoke
pmb:__ZNK13MonoBehaviour7GetNameEv
HRh:__ZN13dynamic_arrayIP12Il2CppObjectLj4EE9push_backEv
H6:__ZN19ScriptingInvocation28AdjustArgumentsToMatchMethodEv
sTh:__ZN15dense_hashtableI10KeyWrapperIP18Il2CppGenericClassES3_N6il2cpp8metadata22Il2CppGenericClassHashEN14dense_hash_setIS3_S6_NS3_14EqualsComparerINS5_25Il2CppGenericClassCompareEEENSt3__29allocatorIS3_EEE8IdentityESA_SD_E6insertERKS3_
Eqh:__ZNK15dense_hashtableINSt3__24pairIK10KeyWrapperIPKcEP11Il2CppClassEES5_N6il2cpp5utils11StringUtils12StringHasherIS4_EEN14dense_hash_mapIS5_S8_SE_NS5_14EqualsComparerINSC_21CaseSensitiveComparerEEENS0_9allocatorIS9_EEE9SelectKeyESI_SK_E10test_emptyERK30dense_hashtable_const_iteratorIS9_S5_SE_SM_SI_SK_E
D4a:__Z20RenderMultipleMeshesRK15RenderNodeQueueRK18RenderMultipleData17ShaderChannelMask
PNh:__ZN6il2cpp2vm4Type19GetGenericParameterEPK10Il2CppType
Jxf:_InternalEnumerator_1__ctor_m439810834_AdjustorThunk
IDf:_InternalEnumerator_1_get_Current_m2826780083_gshared
yPc:__ZN5physx20NpRigidActorTemplateINS_13PxRigidStaticEE15exportExtraDataERNS_22PxSerializationContextE
v_b:__ZN8JSONRead21TransferSTLStyleArrayI13dynamic_arrayI11ColorRGBA32Lj4EEEEvRT_18MemLabelIdentifier17TransferMetaFlags
lld:__ZN5physx13BigConvexData5VLoadERNS_13PxInputStreamE
md:_glBeginQuery
Eif:_Assembly_GetCustomAttributes_m95309865
n$c:__ZN5physx11NodeManager6resizeEj
YAa:__ZN6Camera12RenderStereoENS_10RenderFlagE8CullFlagPNS_24PerformEyeRenderFunctionE
gOe:_RC4__ctor_m1585026462
YG:__ZN20LocalFileSystemPosix10ToAbsoluteEPKc
B4a:__ZN20TierGraphicsSettings8TransferI19StreamedBinaryWriteILb0EEEEvRT_
rBf:_InternalEnumerator_1_get_Current_m2286118957_AdjustorThunk
VNf:_Array_InternalArray__IndexOf_TisX509ChainStatus_t4278378721_m1338369069_gshared
U4d:_Convert_ToBoolean_m48997236
MUc:__ZNK5physx7NpScene28getSceneQueryStaticTimestampEv
So:__ZN6Object17MainThreadCleanupEv
V_d:_ArrayListWrapper_set_Capacity_m2792463350
c4a:__Z32TransferEnumWithNameForceIntSizeI14SafeBinaryRead7HDRModeEvRT_RT0_PKc17TransferMetaFlags
kai:_getcwd
ySd:_StringBuilder_Append_m1128243247
gwg:_AnchorInfo_get_Offset_m142119297
nXa:__ZN25ThreadsafeLinearAllocatorD2Ev
O0c:__ZN5physx2Sq10AABBPruner11preallocateEj
bX:__Z21SendMessageToEveryoneRK17MessageIdentifier11MessageData
tT:__ZN21BillboardBatchManager16StaticInitializeEPv
xih:_Object_get_name_m2079638459
joi:b117
EJ:__ZN12_GLOBAL__N_138ArchiveRedirectFileSystemStaticDestroyEPv
cPg:_InvokableCall_1_add_Delegate_m3048312905_gshared
Yge:_EventHandler_Invoke_m1137722757
Osh:__ZNK15dense_hashtableINSt3__24pairIK10KeyWrapperI13dynamic_arrayIPK10Il2CppTypeLj4EEEPFvvEEES8_N6il2cpp8metadata19Il2CppSignatureHashEN14dense_hash_mapIS8_SB_SF_NS8_14EqualsComparerINSE_22Il2CppSignatureCompareEEENS0_9allocatorISC_EEE9SelectKeyESJ_SL_E5beginEv
lSc:__ZN5physx2Sc19ShapeInstancePairLLC2ERNS0_8ShapeSimES3_RNS0_9ActorPairENS_7PxFlagsINS_10PxPairFlag4EnumEtEE
Bze:_MonoType_IsSubclassOf_m2211166238
jPh:__ZN6il2cpp6icalls8mscorlib6System5Array9GetLengthEP11Il2CppArrayi
Mtf:_TypeFilter_EndInvoke_m997625354
zN:__ZN19RuntimeSceneManagerC2Ev
lEf:_Comparer_1__ctor_m2876014041_gshared
Sqe:_InvalidCastException__ctor_m2730571470
h5e:_X509ChainElementCollection_System_Collections_IEnumerable_GetEnumerator_m2559704689
Ekg:__ZL86BigInteger_t925946153_CustomAttributesCacheGenerator_BigInteger_op_Implicit_m622924526P21CustomAttributesCache
q7e:_InterpreterFactory_set_Gap_m2761943153
x2e:_PublicKey_get_Key_m126090744
ixe:_UnexceptionalStreamReader_Peek_m1725179274
sta:__ZN17ArchiveFileSystem10AddStorageEP20ArchiveStorageReader
rtc:__ZN5physx19NpRigidBodyTemplateINS_18PxArticulationLinkEE27setMaxDepenetrationVelocityEf
mxh:__ZL25UnresolvedVirtualCall_104P12Il2CppObjectS0_S0_S0_iPK10MethodInfo
YGc:__ZN5physx2Sc9ClothCore16setStretchConfigENS_22PxClothFabricPhaseType4EnumERKNS_20PxClothStretchConfigE
gxd:_PxCreateFoundation
Uoa:__ZN12_GLOBAL__N_112UploadFormatE13TextureFormat
LJf:_EqualityComparer_1_System_Collections_IEqualityComparer_GetHashCode_m1203798961_gshared
hoh:__ZN6il2cpp2vm5Class15GetEnumBaseTypeEP11Il2CppClass
gse:_DirectoryNotFoundException__ctor_m3713860966
jjh:_Physics_Raycast_m2009151399
p8a:__ZNK9Texture2D16GetNpotTexelSizeEv
kyf:_InternalEnumerator_1__ctor_m245588437_gshared
X5e:_Capture_get_Text_m3472127896
Gxd:__ZN13dynamic_arrayItLj2EE6insertEPtPKtS3_
O5g:__Z35RuntimeInvoker_Category_t1984577050PK10MethodInfoPvPS2_
iJf:_DefaultComparer_GetHashCode_m4073394827_gshared
kWd:__ZN21InterfaceFuncInvoker1ItP12Il2CppObjectE6InvokeEjP11Il2CppClassS1_S1_
Nka:__ZN9GfxDevice22GetDefaultVertexBufferE26GfxDefaultVertexBufferTypej
Cai:___fseeko_unlocked
tki:_glGetActiveUniform__wrapper
uai:_sscanf
vdc:__ZN5physx3Cct17CapsuleControllerC2ERKNS_16PxControllerDescERNS_9PxPhysicsEPNS_7PxSceneE
Deb:__ZN14SafeBinaryRead21TransferSTLStyleArrayINSt3__26vectorI17BlendShapeChannelNS1_9allocatorIS3_EEEEEEvRT_17TransferMetaFlags
Y2:__Z17BeginSplashScreenv
ueh:_ControllerColliderHit_get_moveDirection_m3053186297
qEb:__ZN9ShaderLab16SerializedShader8TransferI19StreamedBinaryWriteILb0EEEEvRT_
k_f:_UInt32_Parse_m2400360707
q4d:_Stack_Pop_m3788808882
obe:_DateTime_op_Equality_m1867073872
lKh:__ZN14dense_hash_mapI10KeyWrapperIP11Il2CppClassES2_N6il2cpp8metadata16SZArrayClassHashENS3_14EqualsComparerINS5_19SZArrayClassCompareEEENSt3__29allocatorINSA_4pairIKS3_S2_EEEEE15set_deleted_keyERSD_
yvb:__Z18Transfer_BlittableI19StreamedBinaryWriteILb0EELb0EaEvRK29SerializationCommandArgumentsR31RuntimeSerializationCommandInfo
tka:__ZN18GfxFramebufferGLES18GetFramebufferNameERK20GfxRenderTargetSetup
Wxh:__ZL25UnresolvedVirtualCall_140P12Il2CppObject20TimeSpan_t3430258949S1_PK10MethodInfo
odi:_saveSetjmp
UQh:__ZN6il2cpp6icalls8mscorlib6System2IO6MonoIO11GetFileTypeE12Il2CppIntPtrPi
G9b:__ZN5physx6shdfnd5ArrayINS_12PxDebugPointENS0_19ReflectionAllocatorIS2_EEE15growAndPushBackERKS2_
Hhi:_glGetFramebufferAttachmentParameteriv__wrapper
Spb:__Z22scripting_array_length17ScriptingArrayPtr
mKd:_SecurityElement_GetAttribute_m4288291176
hsd:__ZN8Collider13AwakeFromLoadE17AwakeFromLoadMode
M9:__ZN14SafeBinaryRead20TransferTypelessDataEjPvi
sgh:_RenderPipelineManager_get_currentPipeline_m679160301
rag:__ZL66StringFreezingAttribute_t2691375565_CustomAttributesCacheGeneratorP21CustomAttributesCache
YVb:__ZN9rapidjson13GenericReaderINS_4UTF8IcEES2_13JSONAllocatorE10ParseFalseILj1ENS_25GenericInsituStringStreamIS2_EENS_15GenericDocumentIS2_S3_S3_EEEEvRT0_RT1_
AZa:__ZN33AssetBundleLoadFromAsyncOperation7PerformEv
oM:__Z19GetActiveColorSpacev
ZJf:_EqualityComparer_1__cctor_m1672307556_gshared
w9e:_SoapTypeAttribute_get_IsInteropXmlElement_m2941294827
nZd:_Char_System_IConvertible_ToUInt32_m1557991717_AdjustorThunk
EPd:_Encoding_get_UTF8Unmarked_m628720656
$je:_NumberFormatter_RoundBits_m1545255255
WM:__Z6StrCmpPKcS0_
LFb:__Z21CheckGpuProgramUsable20ShaderGpuProgramType
g8g:__Z55RuntimeInvoker_Boolean_t3825574718_Keyframe_t1449471340PK10MethodInfoPvPS2_
xjf:_Binder__cctor_m3736115807
nZh:__ZN6il2cpp2os9Directory20GetFileSystemEntriesERKNSt3__212basic_stringIcNS2_11char_traitsIcEENS2_9allocatorIcEEEESA_iiPi
Fvc:__ZN5physx6shdfnd5ArrayIPvNS0_19ReflectionAllocatorINS_2Cm5BlockIhLj128EEEEEE4copyINS0_15InlineAllocatorILj256ES7_EEEEvRKNS1_IS2_T_EE
JVd:_Attribute_GetHashCode_m2653962112
pEg:_AsyncResult_GetReplyMessage_m262842621
$Gg:_Enumerator__ctor_m3021143890_AdjustorThunk
lzc:__ZN5physx6shdfnd8PoolBaseINS_16NpConnectorArrayENS0_19ReflectionAllocatorIS2_EEE15disposeElementsEv
wib:__ZN12AspectRatios8TransferI18StreamedBinaryReadILb0EEEEvRT_
Txd:__ZN14PhysicsManager19CreatePvdConnectionEv
q6f:__ZL66X509ExtensionCollection_t1640144839_CustomAttributesCacheGeneratorP21CustomAttributesCache
NNb:__ZN10GameObject14CopyPropertiesERS_
JGd:_RSACryptoServiceProvider_Common_m2581564813
CRg:_X509CertificateEnumerator_MoveNext_m4060814498
mue:_MemoryStream_CheckIfClosedThrowDisposed_m2253054610
Evf:_ArrayReadOnlyList_1_GetEnumerator_m634288642_gshared
TSa:__ZNK13ScreenManager12IsFullScreenEv
Xai:_rand
iii:_emscripten_glFramebufferRenderbuffer__wrapper
ird:__ZNK8Collider16SupportsMaterialEv
uyc:__ZNK5physx12NpConstraint9getActorsERPNS_12PxRigidActorES3_
JZh:__ZN6il2cpp5utils9PathUtils7CombineIcEENSt3__212basic_stringIT_NS3_11char_traitsIS5_EENS3_9allocatorIS5_EEEERKNS0_10StringViewIS5_EERKSA_
jef:_SerializationInfo_GetInt32_m4039439501
QRb:__Z60Register_UnityEngine_AsyncOperation_set_allowSceneActivationv
Qnd:__ZN5physx6shdfnd8PoolBaseIN17PxcPoolMallocData10PoolData16ENS0_19ReflectionAllocatorIS3_EEE15disposeElementsEv
Ord:__ZN9Rigidbody23UpdateInterpolationNodeEv
GFh:__ZN15dense_hashtableINSt3__24pairIK10KeyWrapperINS1_IPK11Il2CppImageP11Il2CppClassEEEjEES9_17ReflectionMapHashIS8_EN14dense_hash_mapIS9_jSD_NS9_14EqualsComparerINS0_8equal_toIS8_EEEENS0_9allocatorISB_EEE9SelectKeyESI_SK_E12expand_arrayEjN21dense_hash_map_traits17integral_constantIbLb0EEE
MMa:__Z22PrepareOptimizedPlanesPK5PlaneiPKN4math7_float4E
rT:__ZN17UniqueIDGenerator15CreatePureIndexEv
br:__ZN11UnityEngine9Animation28GenericAnimationBindingCache15DidReloadDomainEv
DLe:_AppDomain_InternalGetProcessGuid_m1278588156
nsf:_MonoMethod_MakeGenericMethod_m3628255919
T2d:_HashValues_get_Count_m234926373
FLf:_Array_InternalArray__ICollection_Remove_TisIl2CppObject_m2425110446_gshared
mre:_BinaryReader_ReadBoolean_m2892291883
xnh:__ZN15dense_hashtableINSt3__24pairIK10KeyWrapperIPK22Il2CppGenericParameterEP11Il2CppClassEES6_N6il2cpp5utils11PointerHashIS4_EEN14dense_hash_mapIS6_S9_SE_NS6_14EqualsComparerINS0_8equal_toIS5_EEEENS0_9allocatorISA_EEE9SelectKeyESJ_SL_E14squash_deletedEv
hjb:__ZNSt3__26__treeINS_12__value_typeIN4core12basic_stringIcNS2_20StringStorageDefaultIcEEEE4PPtrI6ObjectEEENS_19__map_value_compareIS6_SA_NS_4lessIS6_EELb1EEE13stl_allocatorISA_L18MemLabelIdentifier51ELi16EEE7destroyEPNS_11__tree_nodeISA_PvEE
lvf:_ArrayReadOnlyList_1_Clear_m2539474626_gshared
Vdg:__ZL66DSASignatureDeformatter_t2187578719_CustomAttributesCacheGeneratorP21CustomAttributesCache
Ufd:__ZN21PxsParallelSolverTaskD0Ev
oMb:__ZZL23RegisterLightPropertiesR22GenericPropertyBindingEN18Wrapper_LightRange13SetFloatValueEPvf
Zma:__ZNSt3__26vectorI27ComputeShaderBuiltinSamplerNS_9allocatorIS1_EEE21__push_back_slow_pathIKS1_EEvRT_
B7g:__Z95RuntimeInvoker_Void_t1841601450_ObjectU5BU5DU26_t3223402458_Int32_t2071877448_Int32_t2071877448PK10MethodInfoPvPS2_
wQd:_ASCIIEncoding_GetString_m3931709239
E1g:__Z52RuntimeInvoker_DateTime_t693205669_Int16_t4041245914PK10MethodInfoPvPS2_
Yxg:_Uri__ctor_m3927533881
I5f:__ZL61DllImportAttribute_t3000813225_CustomAttributesCacheGeneratorP21CustomAttributesCache
DM:__ZNK9Transform18TransformDirectionERK8Vector3f
Jjd:__ZN5physx21PxsBodyTransformVault6updateEv
zwa:__ZNK17ArchiveFileSystem12GetAssetGUIDERK13FileEntryData
CFb:__ZNSt3__26vectorIN9ShaderLab20SerializedSubProgram15MatrixParameterENS_9allocatorIS3_EEE21__push_back_slow_pathIKS3_EEvRT_
fni:_emscripten_glClearStencil__wrapper
A1b:__ZL29GeomMTDCallback_CapsuleConvexRN5physx6PxVec3ERfRKNS_10PxGeometryERKNS_11PxTransformES5_S8_
pKf:_EqualityComparer_1_get_Default_m1852501307_gshared
o4g:__Z94RuntimeInvoker_Void_t1841601450_Il2CppObject_ByteU5BU5DU26_t790777611_ByteU5BU5DU26_t790777611PK10MethodInfoPvPS2_
Ith:__ZN15dense_hashtableINSt3__24pairIK10KeyWrapperIPK11Il2CppClassEPKcEES6_N6il2cpp5utils11PointerHashIS3_EEN14dense_hash_mapIS6_S9_SE_NS6_14EqualsComparerINS0_8equal_toIS5_EEEENS0_9allocatorISA_EEE9SelectKeyESJ_SL_E12resize_deltaEjj
Fci:__ZNK10__cxxabiv120__si_class_type_info27has_unambiguous_public_baseEPNS_19__dynamic_cast_infoEPvi
Lle:_NumberFormatInfo_get_PercentNegativePattern_m1162448153
Z6f:__ZL56SyncHashtable_t1343674558_CustomAttributesCacheGeneratorP21CustomAttributesCache
ylb:__ZN24RingBufferMemoryFileData9SetLengthEy
agi:_glTexSubImage3D__wrapper
g6e:_FactoryCache_Add_m2602974721
Tya:__Z21WriteImageAsyncThreadPv
vS:__ZL16GetInterfaceImpl18UnityInterfaceGUID
Aoh:__ZN6il2cpp2vmL17SetupFieldOffsetsENS0_15FieldLayoutKindEP11Il2CppClassjRKNSt3__26vectorIjNS4_9allocatorIjEEEE
sIg:_List_1_System_Collections_IList_get_Item_m936612973_gshared
tE:__ZN13EmscriptenWWW7GetSizeEv
Z$h:__ZN6il2cpp6icalls8mscorlib6System15MonoCustomAttrs27GetCustomAttributesInternalEP12Il2CppObjectP20Il2CppReflectionTypeb
Z_b:__ZN8JSONRead21TransferSTLStyleArrayI13dynamic_arrayI8Vector3fLj4EEEEvRT_18MemLabelIdentifier17TransferMetaFlags
via:__Z24PluginsSetGraphicsDevicePvi18GfxDeviceEventType
Ocf:_ObjectReader_ReadAssembly_m869834280
Q$b:__ZNK5physx3Cct13BoxController11getPositionEv
Z3a:__ZN22RenderingCommandBufferD0Ev
FMc:__ZN5physx14NpRigidDynamicC2ERKNS_11PxTransformE
kmf:_EnumBuilder_GetPropertyImpl_m2717304076
n5b:__Z27sweepCCTBox_HeightFieldGeomRKN5physx10PxGeometryERKNS_11PxTransformERKNS_2Gu3BoxERKNS_6PxVec3EfRNS_10PxSweepHitENS_7PxFlagsINS_9PxHitFlag4EnumEtEEf
yK:__ZNK18ScriptingObjectPtr17ToScriptingStringEv
ku:__ZL31InitializeAudioScriptingClassesv
oDa:__Z14SortGUIByDepthP10GUIElementS0_
moe:_NumberFormatter_NumberToString_m126384393
BS:__ZN13RuntimeStaticI13dynamic_arrayIPK31TransferFunctionScriptingTraitsLj4EELb0EE16StaticInitializeEPv
eFg:_LogicalCallContext__ctor_m3173272863
i1b:__ZN5physx3Cct9SweepTest18updateTouchedGeomsEPKNS0_30InternalCBData_FindTouchedGeomERKNS0_13UserObstaclesERKNS_17PxExtendedBounds3ERKNS_19PxControllerFiltersERKNS_6PxVec3E
nye:_MonoCustomAttrs__cctor_m2608447972
$ne:_Int32_FindSign_m3803672540
IEf:_Enumerator_System_Collections_IEnumerator_Reset_m70453843_AdjustorThunk
tvd:_PxCloseExtensions
HH:__ZNK20LocalFileSystemPosix21GetAvailableDiskSpaceEPKcRy
iW:__ZNSt3__26__treeIiNS_4lessIiEENS_9allocatorIiEEE7destroyEPNS_11__tree_nodeIiPvEE
Uze:_MonoType_get_TypeHandle_m3750614457
S2e:_X509Certificate2__ctor_m1095336775
nea:__ZNK9GfxDevice14GetWorldMatrixEv
Ksf:_MonoProperty_GetGetMethod_m1100580870
DHf:_Dictionary_2__ctor_m1950568359_gshared
U_h:__ZN15dense_hashtableINSt3__24pairIK10KeyWrapperIPK19Il2CppGenericMethodEP10MethodInfoEES6_N6il2cpp8metadata23Il2CppGenericMethodHashEN14dense_hash_mapIS6_S9_SD_NS6_14EqualsComparerINSC_26Il2CppGenericMethodCompareEEENS0_9allocatorISA_EEE9SelectKeyESH_SJ_E13set_empty_keyERKSA_
$Fa:__Z19scripting_array_new17ScriptingClassPtrjj
C9a:__ZN14SafeBinaryRead21TransferSTLStyleArrayI13dynamic_arrayI12LightmapDataLj4EEEEvRT_17TransferMetaFlags
XLe:_ArgumentException__ctor_m3312963299
K$a:__ZN21AssetBundleFileSystem11CreateAsDirER13FileEntryData
UCb:__ZNSt3__26vectorIN9ShaderLab20SerializedSubProgram16TextureParameterENS_9allocatorIS3_EEE6assignIPS3_EENS_9enable_ifIXaasr21__is_forward_iteratorIT_EE5valuesr16is_constructibleIS3_NS_15iterator_traitsISA_E9referenceEEE5valueEvE4typeESA_SA_
rYh:__ZNSt3__26vectorIN6il2cpp2os10ThreadImpl10APCRequestENS_9allocatorIS4_EEE26__swap_out_circular_bufferERNS_14__split_bufferIS4_RS6_EE
fIh:__ZN15dense_hashtableINSt3__24pairIK10KeyWrapperIPK22Il2CppGenericParameterEPK24MonoGenericParameterInfoEES6_N6il2cpp5utils11PointerHashIS4_EEN14dense_hash_mapIS6_SA_SF_NS6_14EqualsComparerINS0_8equal_toIS5_EEEENS0_9allocatorISB_EEE9SelectKeyESK_SM_E15set_deleted_keyERKSB_
_yf:_InternalEnumerator_1_System_Collections_IEnumerator_Reset_m2726857860_AdjustorThunk
M5e:_X509SubjectKeyIdentifierExtension__ctor_m3887138480
TGg:_Enumerator_System_Collections_IEnumerator_get_Current_m2853089017_AdjustorThunk
KGc:__ZNK5physx2Sc9ClothCore20getNbCollisionPlanesEv
Bg:_emscripten_exit_fullscreen
z6c:__ZNK5physx23PxsBroadPhaseContextSap7getTypeEv
Pld:__ZNK5physx13GuMeshFactory17getNbHeightFieldsEv
cAg:_GCHandle_Free_m1639542352_AdjustorThunk
ZTe:_Context_set_ClientRandom_m631392719
OZh:__ZN6il2cpp6icalls8mscorlib6System6String19InternalAllocateStrEi
T_b:__Z29Transfer_Blittable_ArrayFieldI8JSONRead11QuaternionfEvRT_R9ArrayInfoRK23StaticTransferFieldInfo
tcg:__ZL65SoapParameterAttribute_t2780084514_CustomAttributesCacheGeneratorP21CustomAttributesCache
a1c:__ZNK5physx2Gu12OBBAABBTestsILb1EEclENS_6shdfnd3aos5Vec3VES5_
qLb:__ZNK24RendererAnimationBinding15GenerateBindingERKN4core12basic_stringIcNS0_20StringStorageDefaultIcEEEEbRN11UnityEngine9Animation14GenericBindingE
L3a:__Z15GetFlareManagerv
rHb:__ZN15ApplicationInfo24GetApplicationIdentifierEv
gYa:__ZN9Behaviour8TransferI18StreamedBinaryReadILb0EEEEvRT_
ztg:_Enumerator_System_Collections_IEnumerator_get_Current_m1429268283
reh:_ControllerColliderHit_get_transform_m3183428555
R9b:__ZN26IntersectAnyVsMeshCallbackILi0ELb0EED2Ev
a9h:___toread
FD:__ZN19CloudServiceHandler10QueueEventEPN11UnityEngine15CloudWebService14CloudEventInfoE
gdi:___cxa_is_pointer_type
Zna:__ZN4gles20DestroyRenderSurfaceEP7ApiGLESP17RenderSurfaceGLES
SGg:_Enumerator_System_Collections_IEnumerator_get_Current_m2853089017_gshared
$Ch:__ZNK15dense_hashtableINSt3__24pairIK10KeyWrapperINS1_IPK14Il2CppAssemblyP11Il2CppClassEEEjEES9_17ReflectionMapHashIS8_EN14dense_hash_mapIS9_jSD_NS9_14EqualsComparerINS0_8equal_toIS8_EEEENS0_9allocatorISB_EEE9SelectKeyESI_SK_E10test_emptyEj
v4b:__ZN12_GLOBAL__N_141SphereMeshContactGenerationCallback_ScaleD0Ev
ubc:__ZN5physx3Cct17CapsuleController16setContactOffsetEf
Y5g:__Z52RuntimeInvoker_Void_t1841601450_StringU26_t638738783PK10MethodInfoPvPS2_
v2:__ZN17PersistentManager40GlobalToLocalSerializedFileIndexInternalERK26SerializedObjectIdentifier
rB:__ZN11UnityEngine15CloudWebService17SessionEventQueue14ParseEventDataERKN4core12basic_stringIcNS2_20StringStorageDefaultIcEEEE
JCe:_SimpleCollator_CompareOrdinal_m2176988387
Grg:__ZL47Rect_t3681755626_CustomAttributesCacheGeneratorP21CustomAttributesCache
Lhe:_CCGregorianCalendar_GetYear_m1289900195
Wxc:__ZN12GeomQueryAnyIN5physx10PxSweepHitEE7geomHitERKNS0_2Sq17SceneQueryManagerERKNS0_15MultiQueryInputERKNS3_9ShapeDataERKNS0_10PxGeometryERKNS0_11PxTransformENS0_7PxFlagsINS0_9PxHitFlag4EnumEtEEjPS1_fbPNS0_9PxBounds3E
koe:_Int16_ToString_m2592645088
Ria:__ZN13TranslateGLES4InitERK12GraphicsCaps16GfxDeviceLevelGL
qAb:__Z29Transfer_Blittable_ArrayFieldI18StreamedBinaryReadILb0EE10ColorRGBAfEvRT_R9ArrayInfoRK23StaticTransferFieldInfo
F3b:__ZN43CapsuleHeightfieldContactGenerationCallback7onEventEjPj
ntd:__ZThn4_N12MemoryStream4readEPvj
nef:_SerializationInfoEnumerator_Reset_m2206466680
R8g:__Z48RuntimeInvoker_Void_t1841601450_Slot_t2267560602PK10MethodInfoPvPS2_
Zxa:__ZZ23InitPlayerLoopCallbacksvEN33PostLateUpdateInputEndFramestruct7ForwardEv
i7f:__ZL57DebuggingModes_t2073970606_CustomAttributesCacheGeneratorP21CustomAttributesCache
tlb:__ZN24RingBufferMemoryFileDataD0Ev
Njb:__ZNSt3__26vectorIN30RuntimeInitializeOnLoadManager15ClassMethodInfoE13stl_allocatorIS2_L18MemLabelIdentifier12ELi16EEE8__appendEj
AJb:__ZN13ProduceHelperI10TagManagerLb0EE7ProduceE18MemLabelIdentifier18ObjectCreationMode
mQc:__ZN5physx6shdfnd8internal8HashBaseIPNS_13NpVolumeCacheES4_NS0_4HashIS4_EENS1_11HashSetBaseIS4_S6_NS0_9AllocatorELb0EE6GetKeyES8_Lb0EE15reserveInternalEj
q4g:__Z84RuntimeInvoker_Il2CppObject_Il2CppObject_Il2CppObject_Il2CppObject_Int32_t2071877448PK10MethodInfoPvPS2_
YAc:__ZN5physx6shdfnd8internal8HashBaseIPKNS_6PxBaseES5_NS0_4HashIS5_EENS1_11HashSetBaseIS5_S7_NS0_9AllocatorELb0EE6GetKeyES9_Lb0EE6createERKS5_Rb
e5c:__ZN5physx28solveFrictionCoulombPreBlockEPKNS_23PxcSolverConstraintDescEjRNS_16PxcSolverContextE
f4h:__ZN6il2cpp8metadataL7CompareEPK10Il2CppTypeS3_
fsb:__Z18Transfer_BlittableI17RemapPPtrTransferLb0E11ColorRGBA32EvRK29SerializationCommandArgumentsR31RuntimeSerializationCommandInfo
Vkf:_TypeBuilder_get_is_created_m736553860
PPe:_RSAManaged__ctor_m1370411656
Uyb:__Z18Transfer_BlittableI18StreamedBinaryReadILb0EELb1E10ColorRGBAfEvRK29SerializationCommandArgumentsR31RuntimeSerializationCommandInfo
A7a:__ZN12CubemapArray23VirtualRedirectTransferER17RemapPPtrTransfer
zQb:__ZL27GetComponentsImplementationILb0ELi0EEbR10GameObjectbRK17CompareParametersRK39GetComponentsImplementation_ReturnValue
mP:__Z21CreateMonoScriptCacheRKN4core12basic_stringIcNS_20StringStorageDefaultIcEEEE17ScriptingClassPtr22InitScriptingCacheTypeP6Objecti
Ymb:__ZN9Scripting36IsSystemCollectionsGenericDictionaryE17ScriptingClassPtr
Cwg:_BalancingGroup__ctor_m2474435406
Fwc:__ZN5physx12NpConstraint12actorDeletedEPNS_12PxRigidActorE
KQ:__ZL16ReadTypeTreeImplILb0EEbR8TypeTreeRK16TypeTreeIteratorRPKhS6_i
VXd:_Byte_System_IConvertible_ToInt32_m1032609763_AdjustorThunk
OFb:__ZN9ShaderLab7ProgramD0Ev
pfc:__ZN5physx2Sc8ShapeSim18reinsertBroadPhaseEv
_6a:__ZNK22BuiltinResourceManager21GetResourceInstanceIDEPKN5Unity4TypeERKN4core12basic_stringIcNS4_20StringStorageDefaultIcEEEE
c$d:_ArrayListWrapper_IndexOf_m3574835167
Wuc:__ZN5physx2Sc5Scene11removeShapeERNS0_8ShapeSimEb
kGa:__ZN28LightProbeProxyVolumeContext8CopyFromERKS_
FPa:__ZN23TransformChangeDispatch32QueueTransformChangeIfHasChangedER18TransformHierarchy
IId:_SymmetricAlgorithm_get_FeedbackSize_m544664262
$Ka:__ZN18DeferredRenderLoop15RenderFinalPassEP13RenderTextureS1_
_na:__ZN7ApiGLES18DeleteRenderbufferERj
$ic:__ZN5physx6shdfnd5ArrayIPvNS0_15InlineAllocatorILj256ENS0_19ReflectionAllocatorINS_16NpConnectorArrayEEEEEE15growAndPushBackERKS2_
Uma:__ZL23ProgramUniformMatrix4fvPK7ApiGLESjiihPKv
Fgg:__ZL67ThreadInterruptedException_t63303933_CustomAttributesCacheGeneratorP21CustomAttributesCache
TLb:__ZN13ProduceHelperI11LightProbesLb0EE7ProduceE18MemLabelIdentifier18ObjectCreationMode
N8c:__ZN5physx14SingleAABBTaskC2Ev
ZCf:_InternalEnumerator_1_MoveNext_m3629145604_gshared
CCb:__ZN9ShaderLab20SerializedSubProgram15MatrixParameter8TransferI14SafeBinaryReadEEvRT_
WVd:_BitConverter_AmILittleEndian_m2716658112
BQb:__ZL27GetComponentsImplementationILb0ELi1EEbR10GameObjectbRK17CompareParametersRK39GetComponentsImplementation_ReturnValue
VUa:__Z29StdTemplateConversionFunctionIatEbPvR14SafeBinaryRead
uUf:_UTF8Decoder__ctor_m1460357288
t_:__ZN13RenderTexture7ReleaseEv
Nfb:__ZN10MeshFilter23VirtualRedirectTransferER14SafeBinaryRead
XKa:__ZN19ShaderPropertySheet26SetTextureWithExplicitSizeEN9ShaderLab16FastPropertyNameE9TextureIDiiff
sug:_PatternCompiler_EmitBranchEnd_m3390109636
j5d:_Convert_ToByte_m1201588964
Xfb:__ZN12MeshRenderer17MainThreadCleanupEv
ERb:__Z36AsyncOperation_Get_Custom_PropIsDoneP12Il2CppObject
Jqa:__ZN22CreateGpuProgramOutput12CreateParamsEv
Oef:_RuntimeMethodHandle_GetHashCode_m2682236001_AdjustorThunk
wtc:__ZNK5physx18NpArticulationLink11getChildrenEPPNS_18PxArticulationLinkEj
_Ag:_ActivationServices_AllocateUninitializedClassInstance_m3410698501
Hia:__ZNK14GfxContextGLES13GetDefaultFBOEv
PLf:_Array_InternalArray__ICollection_Remove_TisSByte_t454417549_m2474211570_gshared
ghd:__Z15atomIntegrationfPKPN5physx11PxsBodyCoreEPKPNS_12PxsRigidBodyEjPKNS_2Cm13SpatialVectorEPNS_13PxcSolverBodyEPNS_17PxcSolverBodyDataEPS9_RjSH_
kX:__ZN14GraphicsHelper5ClearE13GfxClearFlagsRK10ColorRGBAffjR17ShaderPassContext
rPc:__ZN5physx13NpRigidStatic11createShapeERKNS_10PxGeometryEPKPNS_10PxMaterialEtNS_7PxFlagsINS_11PxShapeFlag4EnumEhEE
NBh:_il2cpp_class_is_enum
AMh:__ZN6il2cpp2vm6Thread49CheckCurrentThreadForInterruptAndThrowIfNecessaryEv
t0:__ZNSt3__23mapIN9ShaderLab16FastPropertyNameEN18UnityPropertySheet11UnityTexEnvENS_4lessIS2_EENS_9allocatorINS_4pairIKS2_S4_EEEEEixERS9_
yda:__ZNK13TranslateGLES25GetTextureTargetDimensionEj
bnc:__ZN5physx11NpAggregate22removeActorAndReinsertERNS_7PxActorEb
Hog:__ZL93Input_t1785128008_CustomAttributesCacheGenerator_Input_INTERNAL_get_mousePosition_m2302165941P21CustomAttributesCache
Iod:__ZZL19ExtractHullPolygonsRjRN5physx2Gu9ContainerERKNS0_17ConvexHullBuilderEPS2_S3_EN5Local9FloodFillES3_PKNS0_11AdjTriangleEjPb
Amf:_FieldBuilder_get_FieldType_m2267463269
rVd:_SimpleEnumerator_Clone_m3032847657
mug:_PatternCompiler_EmitInfo_m597931026
eNe:_ModulusRing_Multiply_m3113924743
MTe:_Context_get_ServerSettings_m225713600
Bi:_emscripten_glVertexAttrib4f
nmg:__ZL66Uri_t19570940_CustomAttributesCacheGenerator_Uri__ctor_m3854873816P21CustomAttributesCache
Syd:__ZL28RegisterModuleICalls_Physicsv
mFb:__ZNSt3__26vectorIN20GpuProgramParameters14ConstantBufferENS_9allocatorIS2_EEE8__appendEj
ao:FUNCTION_TABLE_vf
Xze:_MonoType_GetGenericArguments_m2708198481
BEa:__ZN11HaloManager21ReleaseGeometryJobMemEP25DynamicVBOGeometryJobData
yIg:_List_1_AddEnumerable_m2489692396_gshared
Lpc:__ZN5physx14NpArticulation26setMaxProjectionIterationsEj
Mcc:__ZN5physx3Cct15ObstacleContext14removeObstacleEj
RLh:_GenericEqualityComparer_1_GetHashCode_m3450627064_gshared
NUf:_WaitHandle__ctor_m1256161634
yja:__ZN4gles10SetTextureER15DeviceStateGLESjjj19BuiltinSamplerState
Hga:__ZN9GfxDevice18SetGlobalDepthBiasEff
Hzh:__ZN6il2cpp6icalls8mscorlib6System8MonoType12get_AssemblyEP20Il2CppReflectionType
s6e:_Group_get_Success_m2001463544
aMd:_SecurityException_get_PermissionType_m3543350822
Oi:_emscripten_glGetPointerv
SMc:__ZNK5physx15NpActorTemplateINS_14PxRigidDynamicEE13getActorFlagsEv
aTh:__ZN15dense_hashtableI10KeyWrapperIP18Il2CppGenericClassES3_N6il2cpp8metadata22Il2CppGenericClassHashEN14dense_hash_setIS3_S6_NS3_14EqualsComparerINS5_25Il2CppGenericClassCompareEEENSt3__29allocatorIS3_EEE8IdentityESA_SD_E5clearEv
_td:__ZN5physx7profile8ZoneImplINS_28PxProfileNameProviderForwardEE17handleBufferFlushEPKhj
_mc:__ZN5physx2Sc5ActorC2ERNS0_16InteractionSceneEhNS0_14IslandNodeInfo4TypeE
Eqc:__ZN5physx21PxcArticulationHelper16prepareDataBlockERNS_9PxcFsDataEPKNS_19PxsArticulationLinkEtPNS_11PxTransformEPNS_12PxcFsInertiaEPNS_30PxcArticulationJointTransformsEj
Q4g:__Z74RuntimeInvoker_Boolean_t3825574718_Il2CppObject_IPv6AddressU26_t2456310193PK10MethodInfoPvPS2_
JHc:__ZN5physx15NpActorTemplateINS_7PxClothEED2Ev
k8f:__ZL55StreamReader_t2360341767_CustomAttributesCacheGeneratorP21CustomAttributesCache
w_g:__Z135RuntimeInvoker_IntPtr_t_Il2CppObject_Int32_t2071877448_Int32_t2071877448_Int32_t2071877448_Int32_t2071877448_MonoIOErrorU26_t1029615899PK10MethodInfoPvPS2_
mGc:__ZN5physx2Sc9ClothCore16setRestPositionsEPKNS_6PxVec4E
UCa:__Z27ConvertSubMeshesToTrianglesR13dynamic_arrayI7SubMeshLj4EERS_ItLj2EE
voh:__ZN6il2cpp2vmL15GetBitmapNoInitEP11Il2CppClassPjRjj
vWa:__ZL13MotionHandleriPK27EmscriptenDeviceMotionEventPv
q4e:_X509Certificate2Collection__ctor_m819526826
Vpg:__ZL114PlayableHandle_t1502856514_CustomAttributesCacheGenerator_PlayableHandle_INTERNAL_CALL_IsValidInternal_m2792360706P21CustomAttributesCache
Nt:__ZN12AudioManager5ResetEv
rOe:_KeyBuilder_Key_m3814433741
YLe:_ArgumentException__ctor_m158205422
i5:__ZN6prcoreL17RemapGenericFloatI17TexFormatRGBAHalf15TexFormatRGHalfEEvPKNS_9InnerInfoE
GZh:__ZN6il2cpp6icalls8mscorlib6System11Environment20GetWindowsFolderPathEi
vFb:__ZN9ShaderLab20SerializedSubProgram15AddTextureParamEPKcii16TextureDimension
DA:__ZN23CloudWebServicesManager23VirtualRedirectTransferER17RemapPPtrTransfer
Uxh:__ZL25UnresolvedVirtualCall_138P12Il2CppObject38CustomAttributeNamedArgument_t94157543PK10MethodInfo
XLg:__ZN21InterfaceFuncInvoker1Ib40CustomAttributeTypedArgument_t1498197914E6InvokeEjP11Il2CppClassP12Il2CppObjectS0_
w5b:__ZNK5physx2Gu15HeightFieldUtil12traceSegmentI24ConvexVsHeightfieldSweepLb0ELb0ELb1EEEvRKNS_6PxVec3ES6_PT_PS5_
rld:__ZNK5physx12PxConvexMesh19getConcreteTypeNameEv
X5b:__ZN5physx2Gu19gjkLocalPenetrationINS0_9TriangleVENS0_17ShrunkConvexHullVEEEjRKT_RKT0_RKNS_6shdfnd3aos6FloatVERNSB_5Vec3VESG_SG_RSC_PhSI_Rhb
zwh:__ZL24UnresolvedVirtualCall_63P12Il2CppObjectS0_S0_S0_PK10MethodInfo
Sye:_MonoEnumInfo_get_enum_info_m1382505982
D7b:__ZN5physx2Gu15GJKLocalRayCastERNS0_9TriangleVERNS0_4BoxVERKNS_6shdfnd3aos6FloatVERKNS6_5Vec3VESC_RS7_RSA_SE_fb
Vod:__ZN5physx18AdjacenciesBuilderC2Ev
nfc:__ZN5physx2Sc13ShapeIterator4initERKNS0_8ActorSimE
N0:__ZN14SafeBinaryRead19TransferSTLStyleMapINSt3__23mapIN4core12basic_stringIcNS3_20StringStorageDefaultIcEEEES7_NS1_4lessIS7_EE13stl_allocatorINS1_4pairIKS7_S7_EEL18MemLabelIdentifier1ELi16EEEEEEvRT_17TransferMetaFlags
ECg:_Context_get_IsDefaultContext_m3300558634
xB:__ZN11UnityEngine15CloudWebService16SessionContainer21PrepareDataErrorEventERN4core12basic_stringIcNS2_20StringStorageDefaultIcEEEE
S_h:__ZNSt3__218uninitialized_copyIPNS_4pairIK10KeyWrapperIPK19Il2CppGenericMethodEP10MethodInfoEESB_EET0_T_SD_SC_
Qvb:__Z19TransferField_ArrayI19StreamedBinaryWriteILb0EE27Converter_SimpleNativeClassI8GUIStyleEEvRK23StaticTransferFieldInfoR31RuntimeSerializationCommandInfoRT0_
Pmg:__ZL101AssetBundleRequest_t2674559435_CustomAttributesCacheGenerator_AssetBundleRequest_get_asset_m624603186P21CustomAttributesCache
mBc:__ZN5physx14NpArticulationC2Ev
jki:_emscripten_glCopyTexSubImage2D__wrapper
vG:__ZNK13ScreenManager12GetIsFocusedEv
cbf:_RemotingServices_RegisterInternalChannels_m1827304423
iyh:__ZNSt3__213__vector_baseIN6il2cpp2os19SocketHandleWrapperENS_9allocatorIS3_EEED2Ev
nFe:_ASN1_get_Length_m3359111015
aTa:__ZN13sorted_vectorINSt3__24pairIN4core12basic_stringIcNS2_20StringStorageDefaultIcEEEEPK17MessageIdentifierEEN10vector_mapIS6_S9_NS0_4lessIS6_EENS0_9allocatorISA_EEE13value_compareESF_E10insert_oneERKSA_
DVf:_Thread_GetCachedCurrentUICulture_m5590127
x7a:__ZNK12CubemapArray20GetRuntimeMemorySizeEv
asa:__ZN9GfxDevice5FlushEv
rDb:__Z14resize_trimmedINSt3__26vectorIN9ShaderLab18SerializedPropertyENS0_9allocatorIS3_EEEEEvRT_j
kDe:_Context_t2636657155_marshal_pinvoke_back
m0g:__Z89RuntimeInvoker_Boolean_t3825574718_Il2CppObject_Il2CppObject_StreamingContext_t1417235061PK10MethodInfoPvPS2_
IXd:_Byte_System_IConvertible_ToDateTime_m1583041031
Ewh:__ZL24UnresolvedVirtualCall_68P12Il2CppObjectS0_iS0_S0_S0_S0_S0_S0_PK10MethodInfo
Ncb:__ZN10VertexData8TransferI24GenerateTypeTreeTransferEEvRT_
x_h:__ZN13Il2CppHashMapIPK19Il2CppGenericMethodP10MethodInfoN6il2cpp8metadata23Il2CppGenericMethodHashENS6_26Il2CppGenericMethodCompareENSt3__29allocatorINS9_4pairIK10KeyWrapperIS2_ES4_EEEEEC2EjRKS7_RKS8_
eJe:_EncryptedData_get_EncryptionAlgorithm_m1301274243
mMa:__ZL10CullLightsRK22SceneCullingParametersR11CullResults
KUd:_Array_IndexOf_m2819632474
DTc:__ZN5physx7NpScene21setDominanceGroupPairEhhRKNS_20PxDominanceGroupPairE
aOb:__Z40GetTemporaryCachePathApplicationSpecificv
Vea:__ZN9GfxDevice16EndAsyncJobFrameEv
qGh:__ZNK15dense_hashtableINSt3__24pairIK10KeyWrapperINS1_IPK12PropertyInfoP11Il2CppClassEEEjEES9_17ReflectionMapHashIS8_EN14dense_hash_mapIS9_jSD_NS9_14EqualsComparerINS0_8equal_toIS8_EEEENS0_9allocatorISB_EEE9SelectKeyESI_SK_E10test_emptyERK30dense_hashtable_const_iteratorISB_S9_SD_SM_SI_SK_E
plb:__ZN24RingBufferMemoryFileData11SetGrowableEb
Bfh:_PersistentCall__ctor_m2079279187
J4d:_Convert_ToBase64String_m1936815455
Ik:___syscall3
tLc:__ZNK5physx15NpActorTemplateINS_16PxParticleSystemEE7getNameEv
Lk:___syscall6
iga:__ZN9GfxDevice15GetNextCPUFenceEv
Nk:___syscall4
zde:_Decimal_ToString_m759431975
UWh:__ZN6il2cpp2vm3RCW14QueryInterfaceILb1EEEP14Il2CppIUnknownP15Il2CppComObjectRK10Il2CppGuid
uVg:__Z59RuntimeInvoker_UnicodeCategory_t682236799_Int16_t4041245914PK10MethodInfoPvPS2_
MQb:__ZN9Scripting25BroadcastScriptingMessageER10GameObjectPKc18ScriptingObjectPtr
bl:_emscripten_glShaderBinary
_Vf:_DelegatePInvokeWrapper_ThreadStart_t3437517264
Mof:_OpCode_Equals_m3738130494
MTd:_Array_InternalArray__RemoveAt_m1126483634
Qch:_Camera_INTERNAL_CALL_RaycastTry_m1030092423
FXe:_SslStreamBase_Dispose_m747909841
_zf:_InternalEnumerator_1_Dispose_m4038440306_AdjustorThunk
o_e:_DictionaryNodeEnumerator_get_DictionaryNode_m3521889822
mde:_DivideByZeroException__ctor_m280382972
Mkd:__ZNK5physx2Sc15ClothFabricCore16getTetherLengthsEPfj
Txb:__ZN17AnimationCurveTplIfE8TransferI18StreamedBinaryReadILb1EEEEvRT_
Jbe:_DateTimeOffset_GetHashCode_m3312197462_AdjustorThunk
iBd:__ZN18UnityConnectClientD2Ev
M0e:_ServicePoint_set_UseNagleAlgorithm_m2618011464
fBh:_il2cpp_set_data_dir
tYc:__ZN5physx2Sc13ConstraintSim8getForceERNS_6PxVec3ES3_
lyg:_Uri_get_IsUnc_m2111738174
Z0a:__ZN16LevelGameManager23VirtualRedirectTransferER19StreamedBinaryWriteILb0EE
Jcb:__Z32TransferEnumWithNameForceIntSizeI14SafeBinaryRead16GfxPrimitiveTypeEvRT_RT0_PKc17TransferMetaFlags
Vof:_ParameterBuilder_get_Attributes_m2421099277
k1b:__ZN5physx15PxGeometryQuery18computePenetrationERNS_6PxVec3ERfRKNS_10PxGeometryERKNS_11PxTransformES6_S9_
vAd:__ZN11UnityEngine15PlatformWrapper30GetGraphicsDriverLibraryStringEv
TFf:_Enumerator_VerifyState_m262343092_AdjustorThunk
lyd:__ZN5Unity12PhysicsQueryC2Ev
cwh:__ZL24UnresolvedVirtualCall_40P12Il2CppObjectS0_PK10MethodInfo
zPe:_EncryptedPrivateKeyInfo_Decode_m1706190306
Vyb:__Z18Transfer_BlittableI18StreamedBinaryReadILb0EELb0E4AABBEvRK29SerializationCommandArgumentsR31RuntimeSerializationCommandInfo
Qed:__ZN5physx10PxsContext13updateIslandsEfPNS_10PxBaseTaskE
jeh:_ControllerColliderHit_t4070855101_marshal_pinvoke
Q8d:_Convert_ToUInt16_m1665900934
r2g:__Z52RuntimeInvoker_UInt32_t2149682021_Double_t4078015681PK10MethodInfoPvPS2_
zOa:__Z14DrawGUITextureRK5RectTIfEP7Texture11ColorRGBA32P8Materiali
bNe:_Kernel_DwordMod_m978954867
QZ:__ZN15TextureSettings8TransferI24GenerateTypeTreeTransferEEvRT_
ZWg:__Z52RuntimeInvoker_Decimal_t724701077_Double_t4078015681PK10MethodInfoPvPS2_
wtg:_MatchCollection_GetEnumerator_m3516985966
pYb:__ZN9JSONWrite8TransferI4AABBEEvRT_PKc17TransferMetaFlags
DTf:_UTF7Encoding__ctor_m2365939916
Aua:__ZN25MultiBlocksMemoryFileData9SetLengthEy
Thd:__ZNK18ScBeforeSolverTask7getNameEv
f8a:__ZNK9Texture2D20GetRuntimeMemorySizeEv
uZf:_TypeInitializationException__ctor_m2993591639
b5c:__ZN5physx14solve1D4_BlockEPKNS_23PxcSolverConstraintDescEjRNS_16PxcSolverContextE
jm:_emscripten_glUniform2iv
Pdg:__ZL46DES_t1353513560_CustomAttributesCacheGeneratorP21CustomAttributesCache
J1b:__ZL33GeomMTDCallback_ConvexHeightFieldRN5physx6PxVec3ERfRKNS_10PxGeometryERKNS_11PxTransformES5_S8_
fig:__ZL79Convert_t2607082565_CustomAttributesCacheGenerator_Convert_ToSingle_m2156102599P21CustomAttributesCache
Ooh:__ZN6il2cpp2vm5Class10GetMethodsEP11Il2CppClassPPv
suf:_ResourceEnumerator_MoveNext_m2405062020
aIa:__Z30AddDefaultStreamsToMeshBuffersR9GfxDeviceR11MeshBuffersRK16DrawBuffersRange17ShaderChannelMaskS6_
L4f:__ZL65Il2CppArray_CustomAttributesCacheGenerator_Array_Sort_m3500510484P21CustomAttributesCache
cLd:_Hash_GetObjectData_m315532943
aja:__ZN7ApiGLES17DeleteFramebufferERN2gl6HandleILNS0_10ObjectTypeE9EEES3_
Doh:__ZN13dynamic_arrayIP11Il2CppClassLj4EE7reserveEj
Opa:__ZN15UniformTFMethod13MapBoneBufferEj
JSe:_RecordProtocol_SendAlert_m2816808523
iad:__ZN5physx26PxcPCMContactCapsuleConvexERKNS_2Gu13GeometryUnionES3_RKNS_11PxTransformES6_RKfRNS_10PxcNpCacheERNS0_13ContactBufferE
ywe:_SynchronizedReader_Read_m1399666181
krf:_MonoEvent_get_Name_m2796714646
$Ih:__ZN15dense_hashtableINSt3__24pairIK10KeyWrapperINS1_IPK9EventInfoP11Il2CppClassEEEjEES9_17ReflectionMapHashIS8_EN14dense_hash_mapIS9_jSD_NS9_14EqualsComparerINS0_8equal_toIS8_EEEENS0_9allocatorISB_EEE9SelectKeyESI_SK_E15set_deleted_keyERKSB_
Ggf:_DES_IsWeakKey_m3832577339
TMf:_Array_InternalArray__IEnumerable_GetEnumerator_TisHitInfo_t1761367055_m2486283755_gshared
NVb:__ZN9rapidjson13GenericReaderINS_4UTF8IcEES2_13JSONAllocatorE11ParseObjectILj0ENS_19GenericStringStreamIS2_EENS_15GenericDocumentIS2_S3_S3_EEEEvRT0_RT1_
CXd:_Convert_ToBoolean_m2032547942
s0h:__ZN6il2cpp2vm4Enum21GetEnumValuesAndNamesEP11Il2CppClassPP11Il2CppArrayS6_
QTe:_Context_get_SentConnectionEnd_m3114190867
coc:__ZN5physx10PxsContext17addParticleSystemEPNS_15PxsParticleDataERKNS_26PxvParticleSystemParameterEb
_lc:__ZN5physx3Scb5Scene13addRigidNoSimINS0_4BodyELb1ELb1EEEvRT_RNS0_13ObjectTrackerE
lYa:__ZN12ImmediatePtrI10GameObjectE8TransferI19StreamedBinaryWriteILb0EEEEvRT_
B7a:__ZN12CubemapArray23VirtualRedirectTransferER24GenerateTypeTreeTransfer
Mvh:__ZL24UnresolvedVirtualCall_22P12Il2CppObjectS0_iS0_S0_S0_PK10MethodInfo
mR:__ZN12FileAccessor4OpenER15FileSystemEntry14FilePermission16FileAutoBehavior
mZh:__ZN6il2cpp2os9Directory6CreateERKNSt3__212basic_stringIcNS2_11char_traitsIcEENS2_9allocatorIcEEEEPi
L1:__ZN4PPtrI6ShaderE8TransferI18StreamedBinaryReadILb0EEEEvRT_
V6b:__ZL19sweepBoxVsTrianglesjPKN5physx10PxTriangleERKNS_2Gu3BoxERKNS_6PxVec3EfRNS_10PxSweepHitENS_7PxFlagsINS_9PxHitFlag4EnumEtEEbPKj
ybb:__ZN23TransformChangeDispatch32QueueTransformChangeIfHasChangedERK15TransformAccess
Tje:_NumberFormatter_AppendNonNegativeNumber_m629862866
z2:__ZNSt3__26vectorINS_4pairIN9ShaderLab16FastPropertyNameEN18UnityPropertySheet11UnityTexEnvEEENS_9allocatorIS6_EEE21__push_back_slow_pathIKS6_EEvRT_
Owa:__ZN15ArchiveReadFile5WriteEyPKvPy
xuf:_ResourceInfo__ctor_m2401359321_AdjustorThunk
SZh:__ZN6il2cpp2os26LibraryNamePrefixAndSuffixC2EPKcS3_
V1d:_Hashtable__ctor_m392789568
mVf:_Mutex_CreateMutex_internal_m2352956576
ETf:_UTF7Encoding__cctor_m4192443836
B:tempValue
TUa:__Z29StdTemplateConversionFunctionIaiEbPvR14SafeBinaryRead
Bne:_Int16_System_IConvertible_ToSingle_m3277935657
PK:__Z29scripting_class_from_fullnamePKcS0_S0_
pog:__ZL97GameObject_t1756533147_CustomAttributesCacheGenerator_GameObject_GetComponentInParent_m1235194528P21CustomAttributesCache
S1b:__ZN5physx2Gu29ConvexVsMeshContactGeneration20generateLastContactsEv
Mic:__ZNK5physx2Gu22SupportMapRelativeImplINS0_4BoxVEE14doSupportSweepERKNS_6shdfnd3aos5Vec3VE
Nth:__ZN15dense_hashtableINSt3__24pairIK10KeyWrapperIPKcEP11Il2CppClassEES5_N6il2cpp5utils11StringUtils12StringHasherIS4_EEN14dense_hash_mapIS5_S8_SE_NS5_14EqualsComparerINSC_21CaseSensitiveComparerEEENS0_9allocatorIS9_EEE9SelectKeyESI_SK_E12resize_deltaEjj
xpg:__ZL111Object_t1021602117_CustomAttributesCacheGenerator_Object_DestroyImmediate_m3563317232____allowDestroyingAssets1P21CustomAttributesCache
nJc:__ZN5physx2Sc17ParticleSystemSim16getParticleStateEv
c9:__ZN9Texture3D34UpdateFileTextureUploadInstructionEP28FileTextureUploadInstructionj
Zgd:__ZN5physx6shdfnd5ArrayINS_25PxsCompoundContactManagerENS0_19ReflectionAllocatorIS2_EEE8recreateEj
$Rf:_Component_GetComponents_TisIl2CppObject_m3784130262_gshared
Ufh:_UnityEvent_FindMethod_Impl_m3303953986
Ii:_glReadBuffer
zZf:_UInt16_System_IConvertible_ToBoolean_m887616848
V7c:__ZN5physx14PxsAABBManagerC2ERNS_2Cm13EventProfilerERNS_19PxcScratchAllocatorE
dng:__ZL120ScriptableObject_t1975622470_CustomAttributesCacheGenerator_ScriptableObject_Internal_CreateScriptableObject_m1778903390P21CustomAttributesCache
mz:__ZN11AudioModule22CreateAudioClipFromWWWEP10IWWWStreamPKcbbi
sSd:_StringBuilder_set_Length_m3039225444
z9d:_CultureAwareComparer_GetHashCode_m3681260951
OLa:__ZNK26RenderDeferredObjectSorterclERK16RenderObjectDataS2_
sJa:__ZN15SHConstantCacheC2ER13BatchRendererR15RenderLoopStats
c3h:_GC_initialize_offsets
dZa:__ZNK15dense_hashtableINSt3__24pairIKiPKN5Unity4TypeEEEi21InstanceIDHashFunctorN14dense_hash_mapIiS6_S8_NS0_8equal_toIiEE13stl_allocatorIS7_L18MemLabelIdentifier65ELi16EEE9SelectKeyESB_SE_E13find_positionERS2_
t4f:__ZL65Il2CppArray_CustomAttributesCacheGenerator_Array_Clear_m782967417P21CustomAttributesCache
ddi:___cxa_guard_abort
dJa:__Z30SetupBakedOcclusionForGeometrybRK26SharedLightmapSettingsDataRK15LightmapIndicesR17ShaderPassContext
vkf:_CustomAttributeTypedArgument_t1498197914_marshal_pinvoke_back
zP:__ZN14MessageHandler28MessageIDToMessageIdentifierEi
B$e:_HttpRequestCreator_Create_m3607509610
gxh:__ZL24UnresolvedVirtualCall_98P12Il2CppObject8IntPtr_tPK10MethodInfo
Pbf:_ArrayFixupRecord__ctor_m3659990982
aUe:_Context_get_RandomCS_m3946020109
p3f:__ZL72IntPtr_t_CustomAttributesCacheGenerator_IntPtr_op_Inequality_m3044532593P21CustomAttributesCache
b4f:__ZL81Il2CppArray_CustomAttributesCacheGenerator_Array_SetValue_m2421438042____indices1P21CustomAttributesCache
m5h:__ZN6il2cpp2vm10WaitHandle19NewManualResetEventEb
Njf:_Default_ReorderArgumentArray_m3980835731
w1f:_Version_GetHashCode_m880841176
IOg:_Nullable_1_ToString_m1238126148_AdjustorThunk
zd:emscriptenWebGLGetUniform
Rwe:_NullTextReader_ReadLine_m3363797886
Z8b:__ZN5physx2Gu19sweepCapsuleCapsuleERKNS0_7CapsuleES3_RKNS_6PxVec3EfRfRS4_S8_jRt
v3c:__ZN5physx2Gu29EPASupportMapPairRelativeImplINS0_9TriangleVENS0_11ConvexHullVEED0Ev
K9:__Z32TransferEnumWithNameForceIntSizeI14SafeBinaryRead13TextureFormatEvRT_RT0_PKc17TransferMetaFlags
PNa:__ZL10CleanUpJobP20CullingGroupsJobData
sZd:_Char_CompareTo_m3044885427_AdjustorThunk
zse:_FileStream_GetSecureFileName_m508045384
fA:__ZN13Simd4fFactoryIN6detail9FourTupleEEC2Effff
$Bf:_InternalEnumerator_1_System_Collections_IEnumerator_get_Current_m2035754659_AdjustorThunk
Mfb:__ZN10MeshFilter23VirtualRedirectTransferER24GenerateTypeTreeTransfer
kld:__ZN5physx13BigConvexData4LoadERNS_13PxInputStreamE
sOa:__ZN13RenderManager15BatchModeUpdateEv
Kdb:__ZN14SafeBinaryRead21TransferSTLStyleArrayI13dynamic_arrayI8Vector2fLj4EEEEvRT_17TransferMetaFlags
u2:__ZN17PersistentManager51InstanceIDToLocalSerializedObjectIdentifierInternalEiR31LocalSerializedObjectIdentifier
Ftf:_StrongNameKeyPair_System_Runtime_Serialization_IDeserializationCallback_OnDeserialization_m2330221363
hvc:__ZN5physx2Sc8ActorSim24postDominanceGroupChangeEv
O2g:__Z116RuntimeInvoker_Boolean_t3825574718_Il2CppObject_Int32_t2071877448_Int32_t2071877448_Il2CppObject_Int32U26_t455636984PK10MethodInfoPvPS2_
bd:_glVertexAttribIPointer
Q0f:_UnhandledExceptionEventHandler_EndInvoke_m2207457167
$vc:__ZN5physx2Cm8PtrTable5clearERNS0_22PtrTableStorageManagerE
yKf:_Array_InternalArray__ICollection_Contains_TisTableRange_t2011406615_m605506746_gshared
y8d:_Decimal_op_Explicit_m729046406
Jcc:__ZN5physx3Cct15ObstacleContext7releaseEv
H4c:__ZN5physx27solveFrictionBlockWriteBackEPKNS_23PxcSolverConstraintDescEjRNS_16PxcSolverContextEPNS_25PxcThresholdStreamElementEjPi
ogf:_CryptographicUnexpectedOperationException__ctor_m3552441227
__d:_ArrayListWrapper_Clear_m321161741
z$f:_UInt64_System_IConvertible_ToDouble_m2828923873
ZZg:__Z45RuntimeInvoker_Il2CppObject_Int16_t4041245914PK10MethodInfoPvPS2_
prh:__ZN15dense_hashtableI10KeyWrapperIPK17Il2CppGenericInstES4_N6il2cpp8metadata21Il2CppGenericInstHashEN14dense_hash_setIS4_S7_NS4_14EqualsComparerINS6_24Il2CppGenericInstCompareEEENSt3__29allocatorIS4_EEE8IdentityESB_SE_E16reset_thresholdsEv
Mqd:__ZN5physx6shdfnd10Foundation19AlignCheckAllocator8allocateEjPKcS4_i
Bwf:_InternalEnumerator_1_get_Current_m1943362081_AdjustorThunk
Pbi:__ZNKSt3__221__basic_string_commonILb1EE20__throw_length_errorEv
ESd:_StringBuilder_Insert_m1733097906
s4g:__Z88RuntimeInvoker_Void_t1841601450_Il2CppObject_Int32_t2071877448_Il2CppObject_Il2CppObjectPK10MethodInfoPvPS2_
Zi:_JS_SystemInfo_GetMemory
xYe:_SslStreamBase_get_HashStrength_m480059173
toa:__ZN18GfxFramebufferGLES13ReadbackImageER14ImageReferenceiiiiii
u4d:_Enumerator_MoveNext_m1419609883
av:__ZN4FMOD7Channel19setReverbPropertiesEPK29FMOD_REVERB_CHANNELPROPERTIES
_O:__ZN13MonoBehaviour22GetScriptFullClassNameEv
sCh:_il2cpp_object_get_class
ehd:__ZN5physx6shdfnd4sortIPNS_15PxsContactPatchENS_27SortBoundsPredicateManifoldENS0_19ReflectionAllocatorIS3_EEEEvPT_jRKT0_RKT1_j
gAg:_GuidAttribute__ctor_m1099153635
kFa:__ZN13BatchRendererC2ER15RenderLoopStatsRK15RenderNodeQueuebb
L$e:_ServicePointManager_FindServicePoint_m3137356168
B8:__ZN20SphericalHarmonicsL211AddWeightedERKS_f
FSc:__ZN5physx2Sc24ElementInteractionMarker12onDeactivateEj
Lsb:__Z19TransferField_ArrayI17RemapPPtrTransfer27Converter_SimpleNativeClassI8GUIStyleEEvRK23StaticTransferFieldInfoR31RuntimeSerializationCommandInfoRT0_
jN:__ZL22StaticInitializeShaderPv
u9d:_Convert_ToUInt64_m345450801
NSh:__ZN6il2cpp2vm3RCW7CleanupEP15Il2CppComObject
AVb:__ZN9JSONWrite8TransferI10ColorRGBAfEEvRT_PKc17TransferMetaFlags
d9g:__Z52RuntimeInvoker_Void_t1841601450_Keyframe_t1449471340PK10MethodInfoPvPS2_
Dsd:__ZN14PhysicsManager23VirtualRedirectTransferER19StreamedBinaryWriteILb0EE
tP:__Z25scripting_method_get_name18ScriptingMethodPtr
kUb:__Z35Register_UnityEngine_Resources_Loadv
urb:__Z19TransferField_ArrayI14SafeBinaryRead16Converter_StringEvRK23StaticTransferFieldInfoR31RuntimeSerializationCommandInfoRT0_
kbi:_rename
e3h:_GC_exit_check
oAe:_NotSupportedException__ctor_m3232764727
$_e:_TypeConverterAttribute_Equals_m2330345916
L2b:__ZNK5physx2Gu15OBBTriangleTest10obbTriTestERKNS_6PxVec3ES4_S4_
YN:__Z20UnlockObjectCreationv
ibe:_DateTime_ToString_m1117481977
L5g:__Z55RuntimeInvoker_Il2CppObject_RegexOptionsU26_t3063574985PK10MethodInfoPvPS2_
$re:_MonoIO_CreateDirectory_m379525469
Tgd:__ZN5physx18PxsDynamicsContext23atomIntegrationParallelEfPKPNS_11PxsBodyCoreEPKPNS_12PxsRigidBodyEjPKNS_2Cm13SpatialVectorEPNS_13PxcSolverBodyEPNS_17PxcSolverBodyDataEPSA_RjSI_RNS_10PxBaseTaskE
tXe:_SslClientStream_remove_PrivateKeySelection_m427666577
pOd:_String_Concat_m2000667605
oYh:__ZN6il2cpp2os10ThreadImpl12QueueUserAPCEPFvPvES2_
bs:__Z32TransferEnumWithNameForceIntSizeI14SafeBinaryReadN10SampleClip17CompressionFormatEEvRT_RT0_PKc17TransferMetaFlags
$Ad:__ZN22BaseUnityConnectClient10QueueEventERN11UnityEngine15CloudWebService17CloudServiceEventEPKcjb
Kdc:__ZN5physx12PxControllerD2Ev
E8b:__ZNK5physx2Gu15HeightFieldUtil12traceSegmentI25CapsuleTraceSegmentReportLb0ELb0ELb1EEEvRKNS_6PxVec3ES6_PT_PS5_
pbc:__ZN5physx3Cct17CapsuleController13setStepOffsetEf
h9c:__ZN5physx10PxsContext23prepareCMDiscreteUpdateEPNS_10PxBaseTaskE
ZVd:_BitConverter_ToInt64_m1329623425
mJb:__ZN8RendererC2E12RendererType18MemLabelIdentifier18ObjectCreationMode
vfg:__ZL95ASCIIEncoding_t3022927988_CustomAttributesCacheGenerator_ASCIIEncoding_GetByteCount_m1396020051P21CustomAttributesCache
Cvc:__ZN5physx6shdfnd5ArrayIPvNS0_19ReflectionAllocatorINS_2Cm5BlockIhLj256EEEEEE4copyINS0_15InlineAllocatorILj256ES7_EEEEvRKNS1_IS2_T_EE
tf:_emscripten_glGetError
f0d:_SynchronizedArrayListWrapper_CopyTo_m3318520063
OEg:_MethodCall_get_Properties_m1893707917
M3f:__ZL72Enum_t2459695545_CustomAttributesCacheGenerator_Enum_ToObject_m604645223P21CustomAttributesCache
hzc:__ZN5physx6shdfnd8PoolBaseINS_11NpAggregateENS0_19ReflectionAllocatorIS2_EEE15disposeElementsEv
S7b:__ZThn4_N16RayRTreeCallbackILi1ELb1EE14processResultsEjPj
aPa:__ZNK13RenderTexture32CalculateNeedsInvertedProjectionEv
xcc:__ZN5physx2Gu17RadixSortBuffered4SortEPKfj
Bf:emscriptenWebGLGet
Vjh:_Rect_GetHashCode_m559954498_AdjustorThunk
sR:__Z19CanReplaceComponentRN5Unity9ComponentEPKNS_4TypeEPN4core12basic_stringIcNS5_20StringStorageDefaultIcEEEE
vKb:__ZN12CubemapArray11InitTextureEiii13TextureFormatb
d4:__ZN6prcoreL18BlitIntegerToFloatERK14ImageReferenceRS0_
Pqg:__ZL93Physics_t634932869_CustomAttributesCacheGenerator_Physics_RaycastAll_m410413656____layerMask2P21CustomAttributesCache
zta:__ZNK15Lz4Decompressor20DecompressStreamInitEPPv
CEh:__ZN24dense_hashtable_iteratorINSt3__24pairIK10KeyWrapperIPK10Il2CppTypeEjEES6_N6il2cpp8metadata14Il2CppTypeHashEN14dense_hash_mapIS6_jSB_NS6_14EqualsComparerINSA_26Il2CppTypeEqualityComparerEEENS0_9allocatorIS8_EEE9SelectKeyESF_SH_E30advance_past_empty_and_deletedEv
sMg:_Collection_1_set_Item_m3803272710_gshared
vsf:_MonoMethodInfo_t3646562144_marshal_pinvoke_cleanup
a3e:_X509Certificate2_get_SignatureAlgorithm_m3069898012
A$e:_HttpRequestCreator__ctor_m2513916021
Gpe:_Int64_System_IConvertible_ToSingle_m1678482180
L0g:__Z54RuntimeInvoker_Il2CppObject_IntPtr_t_Int32_t2071877448PK10MethodInfoPvPS2_
KIa:__ZL24AssignProjectorQueuesJobP30AssignProjectorQueuesJobHeader
VWf:_TimeSpan_get_Hours_m3804628138
Fug:_Regex__ctor_m3250610064
sFb:__ZN9ShaderLab20SerializedSubProgram14SetConstBufferEPKci
aMe:_ArgumentNullException__ctor_m911049464
Oqf:_TargetParameterCountException__ctor_m2760108938
_8e:_SoapAttribute_SetReflectionObject_m2774156012
Ikh:_Check_Source_m3385315029
v3g:__Z66RuntimeInvoker_Void_t1841601450_Int32_t2071877448_Int64_t909078037PK10MethodInfoPvPS2_
Zge:_EventHandler_BeginInvoke_m3027583606
SF:__Z40DebugStringToFilePostprocessedStacktraceRK21DebugStringToFileData
j0c:__ZN5physx2Sq12BucketPruner11shiftOriginERKNS_6PxVec3E
$Zb:__Z29Transfer_Blittable_ArrayFieldI8JSONReadjEvRT_R9ArrayInfoRK23StaticTransferFieldInfo
FDf:_InternalEnumerator_1__ctor_m3220229132_AdjustorThunk
Blc:__ZN5physx6shdfnd5ArrayIPNS_2Sc16ArticulationCoreENS0_19ReflectionAllocatorIS4_EEE15growAndPushBackERKS4_
Hih:_Object_GetInstanceID_m1920497914
tDg:_ContextAttribute__ctor_m4006843177
BBf:_InternalEnumerator_1_get_Current_m314017974_AdjustorThunk
gg:__setLetterbox
L2:__ZNSt3__26__treeINS_12__value_typeIN9ShaderLab16FastPropertyNameEfEENS_19__map_value_compareIS3_S4_NS_4lessIS3_EELb1EEENS_9allocatorIS4_EEE12__find_equalIS3_EERPNS_16__tree_node_baseIPvEENS_21__tree_const_iteratorIS4_PNS_11__tree_nodeIS4_SE_EEiEESH_RKT_
Ffd:__ZN5physx19normalizePartitionsERNS_6shdfnd5ArrayIjNS0_19ReflectionAllocatorIjEEEEPNS_23PxcSolverConstraintDescEPKNS_13PxcSolverBodyEjjS5_
J6f:__ZL57CollectionBase_t1101587467_CustomAttributesCacheGeneratorP21CustomAttributesCache
G3b:__ZN18ContactCapsuleMesh20processTriangleCacheILj16EEEbRN5physx2Gu13TriangleCacheIXT_EEE
Heb:__ZNSt3__26vectorI17BlendShapeChannelNS_9allocatorIS1_EEE6assignINS_11__wrap_iterIPS1_EEEENS_9enable_ifIXaasr21__is_forward_iteratorIT_EE5valuesr16is_constructibleIS1_NS_15iterator_traitsISA_E9referenceEEE5valueEvE4typeESA_SA_
M1e:_AsnEncodedData_ToString_m724151831
JOa:__ZN11TimeManager11GetRealtimeEv
yUf:_UTF8Encoding_GetByteCount_m1469571127
ihc:__ZN5physx2Sc16InteractionScene25removeFromActiveActorListERNS0_5ActorE
NPb:__Z15WeldVertexArrayR13dynamic_arrayI8Vector3fLj4EERS_I13BoneInfluenceLj16EERS_ItLj2EES7_
Yqf:_MonoMethodInfo_GetDeclaringType_m4186531677
y9e:_SoapTypeAttribute_SetReflectionObject_m1566293812
Gdc:__ZN5physx3Ext21InertiaTensorComputer6rotateERKNS_7PxMat33E
lbf:_RemotingServices_CreateClientProxy_m1631035355
d0f:_UInt64_ToString_m2892887310
Ked:__ZN5physx22PxcDiscreteNarrowPhaseERNS_18PxcNpThreadContextERNS_13PxcNpWorkUnitE
o9:_stbir_resize
E_h:__ZN15dense_hashtableINSt3__24pairIK10KeyWrapperIPK19Il2CppGenericMethodEP10MethodInfoEES6_N6il2cpp8metadata23Il2CppGenericMethodHashEN14dense_hash_mapIS6_S9_SD_NS6_14EqualsComparerINSC_26Il2CppGenericMethodCompareEEENS0_9allocatorISA_EEE9SelectKeyESH_SJ_EC2ERKSM_j
Sfb:__ZN4PPtrI4MeshE8TransferI14SafeBinaryReadEEvRT_
had:__ZN5physx23PxcPCMContactCapsuleBoxERKNS_2Gu13GeometryUnionES3_RKNS_11PxTransformES6_RKfRNS_10PxcNpCacheERNS0_13ContactBufferE
_ta:__Z37ReadDirectoryInfo_UnityWebAndUnityRawR12FileAccessorRKN20ArchiveStorageHeader6HeaderERNS1_13DirectoryInfoE
vMf:_Array_InternalArray__IEnumerable_GetEnumerator_TisInt64_t909078037_m1219751804_gshared
RM:__ZNSt3__26__treeINS_12__value_typeIPKciEENS_19__map_value_compareIS3_S4_15compare_tstringIS3_ELb1EEENS_9allocatorIS4_EEE7destroyEPNS_11__tree_nodeIS4_PvEE
E5f:__ZL96RuntimeTypeHandle_t2330101084_CustomAttributesCacheGenerator_RuntimeTypeHandle_Equals_m452760426P21CustomAttributesCache
WIf:_Dictionary_2_ToTValue_m1381983709_gshared
fAe:_MulticastDelegate_KPM_m1592985119
MFa:__ZN20DynamicPropertySheet14SetValueQueuedEN9ShaderLab16FastPropertyNameEN19ShaderPropertySheet12PropertyTypeEjNS2_8SetFlagsE
ASh:__ZN6il2cpp2vm12ReboxIfBoxedEP14Il2CppIUnknownP11Il2CppClass
oYg:__Z119RuntimeInvoker_Void_t1841601450_SByte_t454417549_SByte_t454417549_Int32_t2071877448_Int32_t2071877448_Int32_t2071877448PK10MethodInfoPvPS2_
uTa:__ZN25PathNamePersistentManagerD2Ev
RN:__ZN17PersistentManager48IntegrateObjectAndUnlockIntegrationMutexInternalEi
W8f:__ZL112TypeBuilder_t3308873219_CustomAttributesCacheGenerator_TypeBuilder_MakeGenericType_m4282022646____typeArguments0P21CustomAttributesCache
ibh:__Z89RuntimeInvoker_Il2CppObject_Scene_t1684909666_Scene_t1684909666_Il2CppObject_Il2CppObjectPK10MethodInfoPvPS2_
Vo:__ZN6Object12SetHideFlagsENS_9HideFlagsE
OG:__ZN20LocalFileSystemPosix4ReadER13FileEntryDatayyPvPy
jii:_emscripten_glGetFramebufferAttachmentParameteriv__wrapper
$Na:__ZN13RendererScene15InitializeUmbraEv
l8:__Z28CalculateGlobalMatrixInverse23TransformAccessReadOnly
uXb:__ZN4PPtrI6ObjectE8TransferI9JSONWriteEEvRT_
PYd:_Char_System_IConvertible_ToChar_m1489061093_AdjustorThunk
MTf:_UTF7Encoding_GetCharCount_m2589913583
Xsg:__ZL117RenderPipelineManager_t984453155_CustomAttributesCacheGenerator_RenderPipelineManager_set_currentPipeline_m3825706412P21CustomAttributesCache
BJc:__ZNK5physx15PxsParticleData15getWorldBoundsVEv
oAa:_UNITY_png_write_sCAL_s
zue:_MemoryStream_CalculateNewCapacity_m3533542025
zsg:__ZL66ExcludeFromDocsAttribute_t665825653_CustomAttributesCacheGeneratorP21CustomAttributesCache
C9b:__ZN12_GLOBAL__N_124HfTrianglesEntityReport27onEventEjPj
v7h:__ZN6il2cpp6icalls8mscorlib6System6Object7GetTypeEP12Il2CppObject
$Lc:__ZN5physx22NpParticleBaseTemplateINS_16PxParticleSystemENS_16NpParticleSystemEE17setStaticFrictionEf
yqh:__ZNK15dense_hashtableINSt3__24pairIK10KeyWrapperIPKcEP11Il2CppClassEES5_N6il2cpp5utils11StringUtils12StringHasherIS4_EEN14dense_hash_mapIS5_S8_SE_NS5_14EqualsComparerINSC_21CaseSensitiveComparerEEENS0_9allocatorIS9_EEE9SelectKeyESI_SK_E5beginEv
oyg:_Uri_Reduce_m2577728307
uXf:_TimeSpan_Equals_m4102942751_AdjustorThunk
Buc:__ZN5physx17PxsContactManager16resetCachedStateEv
ns:__ZN4FMOD6SoundI7releaseEv
yOc:__ZN5physx20NpRigidActorTemplateINS_14PxRigidDynamicEE15setActorSimFlagEb
Oua:__ZN10MemoryFile9SetLengthEy
p_f:_UInt16_ToString_m2038947049_AdjustorThunk
acc:__ZNK5physx3Cct26CharacterControllerManager16getNbControllersEv
lnb:__Z28scripting_class_is_interface17ScriptingClassPtr
wh:_glTexStorage2D
fFb:__ZNK9ShaderLab10SubProgram14EnsureCompiledEv
Hdf:_ObjectManager_RecordFixup_m3572285566
A7f:__ZL55DaylightTime_t3800227331_CustomAttributesCacheGeneratorP21CustomAttributesCache
qvd:__ZN5physx7profile10DataBufferINS_6shdfnd6MutexTINS0_26WrapperReflectionAllocatorIhEEEENS0_14ScopedLockImplIS6_EEE17handleBufferFlushEPKhj
t3d:_SortedList_InitTable_m460350503
lP:__Z18BuildScriptClassId17ScriptingClassPtr
tyf:_InternalEnumerator_1_get_Current_m4279678504_AdjustorThunk
eq:__ZNK16LevelGameManager7GetNameEv
vLg:_Collection_1_System_Collections_IList_get_Item_m2415649949_gshared
ZKb:__ZN8Renderer28HandleParentHierarchyChangesEPK23TransformAccessReadOnlyj
Nnf:_ILTokenInfo_t149559338_marshal_pinvoke_cleanup
ZH:__ZL31DeleteLastPathNameComponentImplRKN4core12basic_stringIcNS_20StringStorageDefaultIcEEEEPKc
GHb:__Z13RegisterClassI18DelayedCallManagerEvv
lBd:__ZN18UnityConnectClient15GetCloudServiceEv
Zsb:__Z18Transfer_BlittableI24GenerateTypeTreeTransferLb0EiEvRK29SerializationCommandArgumentsR31RuntimeSerializationCommandInfo
qid:__ZN5physx20PxsConstraintProjectEPKNS_13PxsConstraintEbf
hCc:__ZN5physx7NpShape7setFlagENS_11PxShapeFlag4EnumEb
hnb:__ZL28SerializationCommandGroupForRK31TransferFunctionScriptingTraits17ScriptingClassPtr17ScriptingFieldPtrRK20CoreScriptingClasses
z1a:__ZN10TagManager32RegisterDefaultTagsAndLayerMasksEv
nrg:__ZL118AttributeHelperEngine_t958797062_CustomAttributesCacheGenerator_AttributeHelperEngine_GetRequiredComponents_m120894667P21CustomAttributesCache
ned:__ZN5physx2Sc35ParticleElementRbElementInteraction12onDeactivateEj
A_a:__ZN14CachingManager12ReadInfoFileERKN4core12basic_stringIcNS0_20StringStorageDefaultIcEEEEPlPNSt3__26vectorIS4_NS8_9allocatorIS4_EEEE
x_d:_ArrayList_InsertRange_m1478230997
Qia:__ZN4gles8InitCapsEP7ApiGLESP12GraphicsCapsR16GfxDeviceLevelGL
i3:__ZN6prcore14BlitImageFloatERK14ImageReferenceRS0_NS0_8BlitModeE
uVd:_Swapper_EndInvoke_m677693941
U3a:__Z24CalculateVertexLightDataRK15SharedLightDataR14GfxVertexLight
ei:_glEnable
r0a:__ZNK13Lz4Compressor29CalculateCompressedBufferSizeEj
Wyh:__ZN6il2cpp2vm19SocketPollingThreadC2Ev
ADa:__ZNK25CameraStackRenderingState21GetImageEffectTextureEb
Ief:_RuntimeMethodHandle__ctor_m2437574937_AdjustorThunk
VXc:__ZN5physx2Sq8AABBTreeC2Ev
QZf:_UInt16_System_IConvertible_ToInt64_m2835280558_AdjustorThunk
yjh:_Quaternion_GetHashCode_m2270520528_AdjustorThunk
Hmg:__ZL53g_UnityEngine_Assembly_CustomAttributesCacheGeneratorP21CustomAttributesCache
ajb:__ZNSt3__26vectorI4PPtrI6ObjectE13stl_allocatorIS3_L18MemLabelIdentifier51ELi16EEE6assignINS_11__wrap_iterIPS3_EEEENS_9enable_ifIXaasr21__is_forward_iteratorIT_EE5valuesr16is_constructibleIS3_NS_15iterator_traitsISD_E9referenceEEE5valueEvE4typeESD_SD_
gjf:_AssemblyName_get_Name_m1815759940
x6f:__ZL63KeyNotFoundException_t1722175009_CustomAttributesCacheGeneratorP21CustomAttributesCache
JIf:_Dictionary_2_InitArrays_m2270022740_gshared
W4d:_Convert_ToBoolean_m2188088811
Xzd:__ZN11UnityEngine7Connect15DeviceInfoEvent16CollectExtraInfoEv
Q2g:__Z115RuntimeInvoker_Boolean_t3825574718_Il2CppObject_Int32_t2071877448_Il2CppObject_SByte_t454417549_Int32U26_t455636984PK10MethodInfoPvPS2_
o0h:__ZN6il2cpp2os11Environment22SetEnvironmentVariableERKNSt3__212basic_stringIcNS2_11char_traitsIcEENS2_9allocatorIcEEEESA_
sld:__ZN5physx2Gu10ConvexMeshD2Ev
PSd:_UnicodeEncoding_GetChars_m3765282346
uqe:_IntPtr__ctor_m4104029105
Zcg:__ZL114BinaryFormatter_t1866979105_CustomAttributesCacheGenerator_BinaryFormatter_get_DefaultSurrogateSelector_m219714691P21CustomAttributesCache
BHh:__ZN6il2cpp2gc19AppendOnlyGCHashMapIPK10Il2CppTypeP20Il2CppReflectionTypeNS_8metadata14Il2CppTypeHashENS7_26Il2CppTypeEqualityComparerEEC2Ev
NCf:_InternalEnumerator_1_System_Collections_IEnumerator_get_Current_m771161214_AdjustorThunk
dze:_MonoType_get_attributes_m1493788675
nbi:_atol
p5h:__ZN6il2cpp6icalls8mscorlib6System10Reflection9FieldInfo25internal_from_handle_typeE12Il2CppIntPtrS5_
r7d:_Convert_ToDouble_m4236754739
CXe:_SslClientStream_get_PrivateKeyCertSelectionDelegate_m3715949545
rii:_emscripten_glScissor__wrapper
e7f:__ZL48Stack_t1043988394_CustomAttributesCacheGeneratorP21CustomAttributesCache
go:FUNCTION_TABLE_viifi
jo:FUNCTION_TABLE_viiff
tfc:__ZNK5physx2Sc8ShapeSim10getBodySimEv
hrf:_MonoEvent_GetAddMethod_m4289563120
n5f:__ZL37Type_t_CustomAttributesCacheGeneratorP21CustomAttributesCache
UJh:__ZN15dense_hashtableINSt3__24pairIK10KeyWrapperINS1_IP11Il2CppClassjEEES4_EES6_N6il2cpp8metadata14ArrayClassHashEN14dense_hash_mapIS6_S4_SB_NS6_14EqualsComparerINSA_17ArrayClassCompareEEENS0_9allocatorIS8_EEE9SelectKeyESF_SH_E5clearEv
gqh:__ZNSt3__218uninitialized_copyIPNS_4pairIK10KeyWrapperIPK11Il2CppClassEPKcEESB_EET0_T_SD_SC_
SMh:__ZN6il2cpp2vm14TypeNameParser5ParseEb
S1g:__Z51RuntimeInvoker_Int16_t4041245914_Single_t2076509932PK10MethodInfoPvPS2_
E6f:__ZL71SynchronizedArrayListWrapper_t3317806524_CustomAttributesCacheGeneratorP21CustomAttributesCache
Gvc:__ZN5physx6shdfnd5ArrayIPvNS0_19ReflectionAllocatorINS_2Cm5BlockIhLj128EEEEEE15growAndPushBackERKS2_
lDd:__ZN23UnityPurchasingSettingsC2Ev
Efe:_Double_ToString_m1864290157
ogb:__ZNK9Transform13GetWorldScaleEv
hBf:_InternalEnumerator_1_get_Current_m4154059426_AdjustorThunk
Ikc:__ZN5physx2Sc11Interaction10onActivateEj
l8b:__ZNK5physx2Gu29EPASupportMapPairRelativeImplINS0_4BoxVENS0_11ConvexHullVEE6getDirEv
PCc:__ZN5physx14NpShapeManager15setupSceneQueryERNS_2Sq17SceneQueryManagerERKNS_12PxRigidActorERKNS_7NpShapeE
AT:__ZNSt3__26__treeINS_12__value_typeI18VertexChannelsInfo16MeshVertexFormatEENS_19__map_value_compareIS2_S4_NS_4lessIS2_EELb1EEE13stl_allocatorIS4_L18MemLabelIdentifier16ELi16EEE12__find_equalIS2_EERPNS_16__tree_node_baseIPvEENS_21__tree_const_iteratorIS4_PNS_11__tree_nodeIS4_SF_EEiEESI_RKT_
lUh:__ZNK24NamespaceAndNamePairHashclERKNSt3__24pairIPKcS3_EE
u9:__ZL37stbir__resample_horizontal_downsampleP11stbir__infoiPf
S_g:__Z78RuntimeInvoker_IntPtr_t_Il2CppObject_Int32U26_t455636984_ModuleU26_t4102634234PK10MethodInfoPvPS2_
M6:__ZNK5Unity9Component38MarkGameObjectAndComponentDependenciesER27GarbageCollectorThreadState
hI:__ZL16OutOfMemoryErrorjj18MemLabelIdentifieriPKc
rnc:__ZNK5physx2Sc9ClothCore23getExternalAccelerationEv
KSe:_RecordProtocol_SendRecord_m132002114
jy:__ZNK7Texture21GetShadowSamplingModeEv
p7b:__ZN5physx2Gu13coarseCullingERKNS_6PxVec3ES3_ffRKNS_10PxTriangleE
KG:__ZN13ScreenManager21OnWindowRegainedFocusEv
Azb:__Z18Transfer_BlittableI18StreamedBinaryReadILb0EELb1EdEvRK29SerializationCommandArgumentsR31RuntimeSerializationCommandInfo
Jji:_emscripten_glVertexAttrib2fv__wrapper
rme:_Guid__ctor_m2599802704
Zse:_FileStream_get_CanRead_m4148920720
CDd:__ZN13RuntimeStaticINSt3__26vectorIPN5physx15PxVehicleWheelsENS0_9allocatorIS4_EEEELb0EE13StaticDestroyEPv
Ped:__ZN5physx2Sc5Scene29processNarrowPhaseTouchEventsEv
Bla:__ZN4crnd12symbol_codec32decode_receive_static_data_modelERNS_25static_huffman_data_modelE
gle:_GregorianCalendar_set_CalendarType_m2438362222
E9g:__Z71RuntimeInvoker_Void_t1841601450_Int32_t2071877448_UriScheme_t1876590943PK10MethodInfoPvPS2_
upc:__ZN5physx6shdfnd5ArrayIPvNS0_15InlineAllocatorILj256ENS0_19ReflectionAllocatorINS_18NpArticulationLinkEEEEEE15growAndPushBackERKS2_
aXb:__Z18Transfer_BlittableI9JSONWriteLb0EaEvRK29SerializationCommandArgumentsR31RuntimeSerializationCommandInfo
TA:__ZN11UnityEngine15CloudWebService14DataDispatcher34OnSessionContainerArchivedAndReadyERNS0_16SessionContainerE
Jkb:__ZN13EmscriptenWWW10OnResponseEPviS0_jPc
Pcc:__ZNK5physx3Cct15ObstacleContext11getObstacleEj
Sub:__Z18Transfer_BlittableI19StreamedBinaryWriteILb0EELb0E8Vector3fEvRK29SerializationCommandArgumentsR31RuntimeSerializationCommandInfo
ABb:__ZN14SafeBinaryRead19TransferSTLStyleMapINSt3__23mapIN4core12basic_stringIcNS3_20StringStorageDefaultIcEEEEiNS1_4lessIS7_EENS1_9allocatorINS1_4pairIKS7_iEEEEEEEEvRT_17TransferMetaFlags
CFh:__ZN15dense_hashtableINSt3__24pairIK10KeyWrapperINS1_IPK11Il2CppImageP11Il2CppClassEEEjEES9_17ReflectionMapHashIS8_EN14dense_hash_mapIS9_jSD_NS9_14EqualsComparerINS0_8equal_toIS8_EEEENS0_9allocatorISB_EEE9SelectKeyESI_SK_ED2Ev
phf:_DSAParameters_t1872138834_marshal_pinvoke
Qfh:_UnityAction_BeginInvoke_m407736228
ukb:__ZN5Cache9URLToPathERKN4core12basic_stringIcNS0_20StringStorageDefaultIcEEEE7Hash128
wGh:__ZN6il2cpp2vm10Reflection14GetEventObjectEP11Il2CppClassPK9EventInfo
TSe:_TlsStream_Write_m2271546135
GI:__ZN20LocalFileSystemPosixD0Ev
Bie:_CultureInfo_ConstructInternalLocaleFromCurrentLocale_m1342751405
k2g:__Z50RuntimeInvoker_UInt16_t986882611_Int16_t4041245914PK10MethodInfoPvPS2_
p$a:__ZN21AssetBundleFileSystem5WriteER13FileEntryDatayPvPy
kSd:_Latin1Encoding_GetString_m3553289597
t$c:__ZN5physx13IslandManager6resizeEj
Sma:__ZL25ProgramUniformMatrix4x2fvPK7ApiGLESjiihPKv
TEf:_Enumerator_get_Current_m1020413567_AdjustorThunk
JIb:__ZN9TextAssetC2E18MemLabelIdentifier18ObjectCreationMode
mkc:__ZN5physx6shdfnd8PoolBaseINS_2Cm5BlockIPvLj16EEENS0_19ReflectionAllocatorIS5_EEE17releaseEmptySlabsEv
jIg:_List_1_System_Collections_ICollection_CopyTo_m2020941110_gshared
_eh:_Display_RecreateDisplayList_m3412638488
eGh:__ZN15dense_hashtableINSt3__24pairIK10KeyWrapperINS1_IPK12PropertyInfoP11Il2CppClassEEEjEES9_17ReflectionMapHashIS8_EN14dense_hash_mapIS9_jSD_NS9_14EqualsComparerINS0_8equal_toIS8_EEEENS0_9allocatorISB_EEE9SelectKeyESI_SK_E8min_sizeEjj
Pig:__ZL79Convert_t2607082565_CustomAttributesCacheGenerator_Convert_ToUInt64_m2215781574P21CustomAttributesCache
Tah:__Z52RuntimeInvoker_KeyValuePair_2_t38854645_Il2CppObjectPK10MethodInfoPvPS2_
eLh:__ZNK15dense_hashtableINSt3__24pairIK10KeyWrapperIP11Il2CppClassES4_EES5_N6il2cpp8metadata16SZArrayClassHashEN14dense_hash_mapIS5_S4_SA_NS5_14EqualsComparerINS9_19SZArrayClassCompareEEENS0_9allocatorIS7_EEE9SelectKeyESE_SG_E12test_deletedEj
zdc:__ZL20updateMassAndInertiabRN5physx11PxRigidBodyEPKfjPKNS_6PxVec3Eb
vZb:__Z18Transfer_BlittableI8JSONReadLb0EdEvRK29SerializationCommandArgumentsR31RuntimeSerializationCommandInfo
Avd:__ZN5physx24NpPtrTableStorageManagerC2Ev
KVf:_Thread_ClrState_m822263449
XCe:_SimpleCollator_LastIndexOfOrdinalIgnoreCase_m550798345
Lm:FUNCTION_TABLE_viiiiiifiii
oea:__ZNK9GfxDevice13GetViewMatrixEv
jUc:__ZN5physx7NpScene15flushSimulationEb
bBc:__ZN5physx6shdfnd8PoolBaseINS_10NpMaterialENS0_19ReflectionAllocatorIS2_EEE12allocateSlabEv
IQ:__ZN8TypeTree8BlobReadERPKhS1_ib
Yod:__ZN5physx18ReducedVertexCloudC2EPKNS_6PxVec3Ej
h7:__ZN18LoadSceneOperation23GetAllowSceneActivationEv
j5:__ZN11prophecysdk4half7convertEi
p2a:__ZN6CameraD0Ev
wEe:_ModulusRing_Multiply_m386339435
gV:__ZN31CanvasBatchIntermediateRenderer16StaticInitializeEPv
Z6d:_Decimal_op_Implicit_m4246329390
cMe:_ArgumentNullException__ctor_m2252076819
NQa:__ZN10GameObjectC2E18MemLabelIdentifier18ObjectCreationMode
g_e:_ListDictionary_GetEnumerator_m1511032609
Dlf:_TypeBuilder_get_FullName_m1626507516
ddf:_SerializationInfo__ctor_m4016423422
Ama:__ZL18ProgramUniform1uivPK7ApiGLESjiihPKv
FKb:__ZN14Texture2DArray13RebuildMipMapEv
Iph:__ZN13Il2CppHashSetIPK17Il2CppGenericInstN6il2cpp8metadata21Il2CppGenericInstHashENS4_24Il2CppGenericInstCompareENSt3__29allocatorI10KeyWrapperIS2_EEEEC2EjRKS5_RKS6_
qpb:__Z18Transfer_BlittableI14SafeBinaryReadLb1EaEvRK29SerializationCommandArgumentsR31RuntimeSerializationCommandInfo
tFb:__ZN9ShaderLab20SerializedSubProgram14AddVectorParamEPKcii15ShaderParamTypei
qtc:__ZNK5physx19NpRigidBodyTemplateINS_18PxArticulationLinkEE27getMinCCDAdvanceCoefficientEv
Gni:_emscripten_glIsFramebuffer__wrapper
YLd:_SystemException__ctor_m2688248668
Juf:_ResourceSet_ReadResources_m1669023823
B$a:__ZNK17FileSystemHandler6ParentERK13FileEntryDataRN4core12basic_stringIcNS3_20StringStorageDefaultIcEEEE
lKe:_PKCS12_RemoveCertificate_m1590055870
PMh:__ZN6il2cpp2vm6Thread7SetNameEP12Il2CppThreadP12Il2CppString
z8f:__ZL117GenericTypeParameterBuilder_t1370236603_CustomAttributesCacheGenerator_GenericTypeParameterBuilder_Equals_m2498927509P21CustomAttributesCache
lqg:__ZL107Collision_t2876846408_CustomAttributesCacheGenerator_Collision_t2876846408____frictionForceSum_PropertyInfoP21CustomAttributesCache
Yo:__ZN6Object23VirtualRedirectTransferER19StreamedBinaryWriteILb1EE
_W:__ZN13ScreenManager18SetAllowCursorLockEb
Kjb:__ZN30RuntimeInitializeOnLoadManager15ClassMethodInfo8TransferI14SafeBinaryReadEEvRT_
Lnc:__ZNK5physx2Sc10ClothShape8isActiveEv
hmb:__ZN9TextAsset8TransferI14SafeBinaryReadEEvRT_
Fz:__ZL22InitializeModule_Audiov
Y$c:__ZN5physx2Sq11PruningPoolD0Ev
VVa:__ZN16MemoryFileSystem8IsLockedERK13FileEntryData
Q7c:__ZN3MBP15removeBoxPrunerEj
VJh:__ZN15dense_hashtableINSt3__24pairIK10KeyWrapperINS1_IP11Il2CppClassjEEES4_EES6_N6il2cpp8metadata14ArrayClassHashEN14dense_hash_mapIS6_S4_SB_NS6_14EqualsComparerINSA_17ArrayClassCompareEEENS0_9allocatorIS8_EEE9SelectKeyESF_SH_E8min_sizeEjj
szg:_SatelliteContractVersionAttribute__ctor_m2605651717
Ok:_emscripten_glBindRenderbuffer
PQd:_DecoderExceptionFallbackBuffer_GetNextChar_m1727394816
$2h:_GC_dirty_init
GUd:_Array_Copy_m1969461849
xcf:_MessageFormatter_ReadMethodResponse_m4134629501
YVh:__ZN6il2cpp2vm5Field14GetValueObjectEP9FieldInfoP12Il2CppObject
gRd:_EncoderExceptionFallback_GetHashCode_m2071009120
xBe:_CodePointIndexer_ToIndex_m2133868653
Mge:_Environment_get_OSVersion_m1247315981
P4b:__ZL15SweepBoxCapsulePKN5physx3Cct9SweepTestEPKNS0_11SweptVolumeEPKNS0_11TouchedGeomERKNS_14PxExtendedVec3ERKNS_6PxVec3ERNS0_12SweptContactE
ZT:__ZN6Object17FindObjectsOfTypeEPKN5Unity4TypeER13dynamic_arrayIPS_Lj4EEb
pOb:__ZNSt3__26vectorINS_4pairIiiEE13stl_allocatorIS2_L18MemLabelIdentifier1ELi16EEE21__push_back_slow_pathIKS2_EEvRT_
U5e:_Capture_get_Length_m1952322390
FXb:__ZN9JSONWrite8TransferI4PPtrI9Texture2DEEEvRT_PKc17TransferMetaFlags
Fmb:__ZN13MonoBehaviour17RemoveFromManagerEv
ujd:__ZN5physx2Sc19ParticlePacketShapeD2Ev
ncb:__ZL11DecodeValuePPKcS0_
jGf:_ShimEnumerator_MoveNext_m2013866013_gshared
VE:__ZN13MemoryManagerC2Ev
wpa:__ZN12SkinMeshInfo10DeallocateEPS_
$wa:__ZN20ArchiveStorageReader28AcquireAndPrefillUnusedBlockEjPNS_11CacheResultE
o3g:__Z78RuntimeInvoker_Il2CppObject_SByte_t454417549_SByte_t454417549_SByte_t454417549PK10MethodInfoPvPS2_
zKb:__Z12NHxRoughnessIA4_tEvP9Texture2DPT_iiii
nxh:__ZL25UnresolvedVirtualCall_105P12Il2CppObjecthPK10MethodInfo
KFg:_MethodDictionary_get_SyncRoot_m673971424
xU:__ZN18AsyncUploadManagerD2Ev
IGb:__ZN9Transform5ResetEv
Gub:__Z22TransferField_NonArrayI24GenerateTypeTreeTransfer16Converter_StringEvRK23StaticTransferFieldInfoR31RuntimeSerializationCommandInfoRT0_
H$e:_HttpWebRequest_System_Runtime_Serialization_ISerializable_GetObjectData_m3671622902
RW:__Z17MainLoopKeepalivePv
dnc:__ZN5physx7NpScene16addActorInternalERNS_7PxActorE
ptg:_MatchCollection__ctor_m1944681790
XDd:_HMACSHA512__ctor_m1667460019
HNa:__Z24ScheduleCullingAllGroupsR8JobFenceRK22SceneCullingParameters4PPtrI6CameraERK13CullingOutputRK13dynamic_arrayIP12CullingGroupLj4EERKS_
ZId:_ToBase64Transform_get_OutputBlockSize_m949275583
$Ma:__Z14CalcHullBoundsPK8Vector3fPKhhRK5PlaneRK10Matrix4x4fR10MinMaxAABB
saf:_RealProxy__ctor_m2147093603
IFa:__Z19SetupLODFadeKeywordR17ShaderPassContexti
ivb:__Z18Transfer_BlittableI19StreamedBinaryWriteILb0EELb0E5RectTIfEEvRK29SerializationCommandArgumentsR31RuntimeSerializationCommandInfo
Poa:__ZL25CheckCopyTextureArgumentsRK7ApiGLESP11GLESTextureS3_
rU:__ZN13dynamic_arrayI26EnlightenSystemInformationLj8EE6insertEPS0_PKS0_S4_
ODg:_SynchronizedClientContextSink__ctor_m978504596
hAe:_MulticastNotSupportedException__ctor_m2164514827
U9d:_DateTime_System_IConvertible_ToChar_m2489529194_AdjustorThunk
lub:__Z29Transfer_Blittable_ArrayFieldI24GenerateTypeTreeTransferyEvRT_R9ArrayInfoRK23StaticTransferFieldInfo
sv:__ZN4FMOD7SystemI9playSoundE17FMOD_CHANNELINDEXPNS_5SoundEbPPNS_7ChannelE
tyd:__ZN13PhysicsModule31GetColliderComponentsInChildrenERK10GameObjectbbR13dynamic_arrayIPN5Unity9ComponentELj4EE
aJ:__GLOBAL__sub_I_runtime_graphics_mesh2_lump_cpp
Jrg:__ZL68PreferBinarySerialization_t2472773525_CustomAttributesCacheGeneratorP21CustomAttributesCache
BEc:__ZNK5physx7NpCloth16getStretchConfigENS_22PxClothFabricPhaseType4EnumE
ILh:__ZN6il2cpp2os4File4ReadEPNS0_10FileHandleEPciPi
Qt:__ZN12AudioManager23VirtualRedirectTransferER18StreamedBinaryReadILb0EE
ZHg:_List_1_Remove_m2616693989_gshared
zbi:_realloc
xjb:__ZN30RuntimeInitializeOnLoadManager23VirtualRedirectTransferER17RemapPPtrTransfer
kfi:dynCall_viif
jwf:_InternalEnumerator_1__ctor_m2111763266_AdjustorThunk
FC:__ZN11UnityEngine15CloudWebService13WWWRestClient21ParseHTTPHeaderStringEN4core12basic_stringIcNS2_20StringStorageDefaultIcEEEERNS0_16WWWRestHeaderMapERjPKc
nid:__ZN5physx2Sc24ConstraintProjectionTree11projectPoseERNS0_19ConstraintGroupNodeE
nsb:__ZL26Transfer_SimpleNativeClassI17RemapPPtrTransfer8GradientLb0EEvRK29SerializationCommandArgumentsR31RuntimeSerializationCommandInfo
Dsh:__ZNK15dense_hashtableINSt3__24pairIK10KeyWrapperI13dynamic_arrayIPK10Il2CppTypeLj4EEEPFvvEEES8_N6il2cpp8metadata19Il2CppSignatureHashEN14dense_hash_mapIS8_SB_SF_NS8_14EqualsComparerINSE_22Il2CppSignatureCompareEEENS0_9allocatorISC_EEE9SelectKeyESJ_SL_E10test_emptyEj
B0a:__ZNSt3__26vectorIN20ArchiveStorageHeader12StorageBlockE13stl_allocatorIS2_L18MemLabelIdentifier54ELi16EEE21__push_back_slow_pathIKS2_EEvRT_
Izh:__ZN6il2cpp6icalls8mscorlib6System8MonoType14get_attributesEP20Il2CppReflectionType
$Za:__Z43DestroyWithoutLoadingButDontDestroyFromFilei
Byd:__ZN13PhysicsModule29GetColliderMaterialInstanceIDER8Collider
eze:_MonoType_GetDefaultConstructor_m925465120
Usc:__ZNK5physx20NpRigidActorTemplateINS_18PxArticulationLinkEE14getConstraintsEPPNS_12PxConstraintEjj
sc:_emscripten_glBlendFuncSeparate
cnf:_GenericTypeParameterBuilder_IsPrimitiveImpl_m1198748291
zK:__Z20scripting_string_newPKc
YRe:_CipherSuiteCollection_Add_m3114709461
Ure:_Directory_GetCurrentDirectory_m44486537
K_g:__Z45RuntimeInvoker_RuntimeFieldHandle_t2331729674PK10MethodInfoPvPS2_
gsg:__ZL56UnityEventBase_t828812576_CustomAttributesCacheGeneratorP21CustomAttributesCache
g8d:_Convert_ToInt64_m4057339019
stc:__ZNK5physx19NpRigidBodyTemplateINS_18PxArticulationLinkEE27getMaxDepenetrationVelocityEv
omd:__ZThn8_N5physx2Gu11HeightFieldD1Ev
DKh:__ZNSt3__218uninitialized_copyIPNS_4pairIK10KeyWrapperIP11Il2CppClassES4_EES8_EET0_T_SA_S9_
MOc:__ZN5physx19NpRigidBodyTemplateINS_14PxRigidDynamicEED0Ev
irc:__ZNK5physx19PxArticulationJoint19getConcreteTypeNameEv
et:__ZN17AudioCustomFilterD2Ev
Wna:__ZN18GfxFramebufferGLES18ReleaseFramebufferEP17RenderSurfaceBaseP14GfxContextGLES
ICg:_Context_GetDynamicPropertyCollection_m1987747444
d3e:_X509Certificate2_get_Version_m1927399907
eNb:__ZN13ProduceHelperI6CameraLb0EE7ProduceE18MemLabelIdentifier18ObjectCreationMode
WD:__ZN19CloudServiceHandler34HandleSaveFileWebRequestPlayerLoopEv
Rs:__Z31GetParentSampleClipFromInstancePN11SoundHandle8InstanceE
oac:__ZN5physx11PxHitBufferINS_12PxOverlapHitEE14processTouchesEPKS1_j
yPa:__ZN6Camera22StandaloneCustomRenderENS_10RenderFlagEP6ShaderRKN4core12basic_stringIcNS3_20StringStorageDefaultIcEEEEPNS_21PerformRenderFunctionE
SPc:__ZL22addOrRemoveRigidObjectILb0ELb0ELb0ELb1EN5physx3Scb11RigidStaticEEvRNS0_2Sc5SceneERT3_b
_7h:__ZN6il2cpp2os16ThreadLocalValue8GetValueEPPv
Vth:__ZN6il2cpp2vm13MetadataCache14GetGenericInstEPKPK10Il2CppTypej
Cm:FUNCTION_TABLE_iiiiifiif
_Hd:_SHA384Managed_Initialize_m712692291
Uc:_glUniform1uiv
yag:__ZL60CallingConvention_t3354538265_CustomAttributesCacheGeneratorP21CustomAttributesCache
tUb:__Z52Object_CUSTOM_GetOffsetOfInstanceIDInCPlusPlusObjectv
ykc:__ZN5physx6shdfnd4sortIPvNS0_4LessIS2_EENS0_19ReflectionAllocatorINS_2Cm5BlockIS2_Lj8EEEEEEEvPT_jRKT0_RKT1_j
KAc:__ZNK5physx9NpPhysics11getNbShapesEv
Po:setThrew
fXg:__Z36RuntimeInvoker_IntPtr_t_Il2CppObjectPK10MethodInfoPvPS2_
rKb:__ZL21BuildEmptyCubeTexturePKci11ColorRGBA3217TextureColorSpace
DBb:__ZN14SafeBinaryRead21TransferSTLStyleArrayINSt3__26vectorIN9ShaderLab20SerializedSubProgramENS1_9allocatorIS4_EEEEEEvRT_17TransferMetaFlags
IYb:__Z15Transfer_StringI8JSONReadLb1EEvRK29SerializationCommandArgumentsR31RuntimeSerializationCommandInfo
bSf:_Component_GetComponentsInChildren_TisIl2CppObject_m2862756250_gshared
A4:__ZN6prcoreL17RemapGenericFloatI17TexFormatRGBFloat15TexFormatRGHalfEEvPKNS_9InnerInfoE
iHa:__Z25DoForwardShaderRenderLoopR17RenderLoopContextR13dynamic_arrayI16RenderObjectDataLj4EERK11CullResultsbbbN6Camera10RenderFlagE
uJe:_PKCS12_GetSymmetricAlgorithm_m1812022677
cUf:_UTF8Encoding_GetByteCount_m2372933408
FCg:_Context_get_NeedsContextSink_m1907794755
qOe:_ARC4Managed_GenerateKey_m716135508
gsb:__Z18Transfer_BlittableI17RemapPPtrTransferLb1E11ColorRGBA32EvRK29SerializationCommandArgumentsR31RuntimeSerializationCommandInfo
H3b:__ZN5physx2Gu20intersectTriangleBoxERKNS_6PxVec3ES3_S3_S3_S3_
Fzc:__ZN5physx10NpMaterial8setFlagsENS_7PxFlagsINS_14PxMaterialFlag4EnumEtEE
lXa:__ZN13BaseAllocator13TryDeallocateEPv
nwb:__Z29Transfer_Blittable_ArrayFieldI19StreamedBinaryWriteILb0EEfEvRT_R9ArrayInfoRK23StaticTransferFieldInfo
qUd:_Array_CreateInstance_m1054139389
fxf:_InternalEnumerator_1__ctor_m967618647_AdjustorThunk
DVa:__ZN16MemoryFileSystem5WriteER13FileEntryDatayPvPy
b3a:__ZNSt3__26vectorIN12FlareManager10FlareEntryENS_9allocatorIS2_EEE21__push_back_slow_pathIKS2_EEvRT_
h9h:_sprintf
tdh:_Collision_get_impactForceSum_m521972354
rHd:_SHA1_Create_m4086509717
cYg:__Z57RuntimeInvoker_Il2CppObject_RuntimeTypeHandle_t2330101084PK10MethodInfoPvPS2_
jsf:_MonoMethodInfo_GetMethodInfo_m3298558752
Bt:__ZN13AudioListener17RemoveFromManagerEv
nd:_glAttachShader
Utd:__ZN5physx6shdfnd8internal8HashBaseINS0_4PairIKtPKcEEtNS0_4HashItEENS1_11HashMapBaseItS6_S9_NS_7profile26WrapperReflectionAllocatorIS6_EEE6GetKeyESD_Lb1EE6createERS4_Rb
Mya:__ZNK6Camera19GetProjectionMatrixEv
Ljd:__ZNK5physx2Cm12DelegateTaskINS_2Sc5SceneEXadL_ZNS3_18clothPreprocessingEPNS_10PxBaseTaskEEEE7getNameEv
cVc:__ZNK5physx7NpScene24getWakeCounterResetValueEv
bOc:__ZN5physx20NpRigidActorTemplateINS_14PxRigidDynamicEE17resolveReferencesERNS_24PxDeserializationContextE
hC:__ZN11UnityEngine15CloudWebService10RestClientINS0_16WWWRestHeaderMapEE6SetUrlERKN4core12basic_stringIcNS4_20StringStorageDefaultIcEEEE
Eee:_StackTrace__ctor_m2404985356
vad:__ZN5physx2Gu32PCMConvexVsMeshContactGeneration20generateLastContactsEv
TO:__Z38PreallocateObjectFromPersistentManagerib
gae:_DateTime_System_IConvertible_ToSingle_m3927769066
Pzc:__ZThn12_N5physx10NpMaterialD0Ev
cJ:__GLOBAL__sub_I_runtime_interfaces_lump_cpp
m8a:__ZNK9Texture2D20GetUnscaledTextureIDEv
r8d:_Convert_ToSByte_m883113940
Zpd:__ZN5physx6shdfnd4sortIjNS_19SortBoundsPredicateENS0_19ReflectionAllocatorIjEEEEvPT_jRKT0_RKT1_j
Lki:_glFenceSync__wrapper
Yze:_MonoType_get_ContainsGenericParameters_m3229732653
nCc:__ZN5physx7NpShape14onRefCountZeroEv
bOf:_Array_InternalArray__IndexOf_TisContactPoint_t1376425630_m3651364246_gshared
wpd:__ZL15TestContainmentRKN5physx6PxVec3EPKfjPKNS_2Gu15HullPolygonDataE
r8a:__ZNK9Texture2D26CanReuploadDataToGfxDeviceEv
pAb:__ZN18StreamedBinaryReadILb0EE21TransferSTLStyleArrayI13dynamic_arrayI4AABBLj4EEEEvRT_17TransferMetaFlags
KZf:_UInt16_System_IConvertible_ToDouble_m4100549304_AdjustorThunk
r_g:__Z116RuntimeInvoker_Il2CppObject_Il2CppObject_Il2CppObject_Int32_t2071877448_Int32_t2071877448_MonoIOErrorU26_t1029615899PK10MethodInfoPvPS2_
K7:__Z29ClearRepeatingLogMessageStatev
xmd:__ZN5physx2Gu11HeightField12loadFromDescERKNS_17PxHeightFieldDescEb
_Md:_Single_System_IConvertible_ToInt16_m962677079
LT:__ZN21EnlightenSceneMappingaSERKS_
Qef:_RuntimeTypeHandle_get_Value_m2239757882
t8h:__ZNK6il2cpp8metadata21Il2CppGenericInstHashclEPK17Il2CppGenericInst
mNd:_Single_System_IConvertible_ToUInt32_m2447833283
Psa:__ZN7ApiGLESD2Ev
dQa:__ZN9Transform47ClearTransformHierarchyAndApplyToSerializedDataEv
PAf:_InternalEnumerator_1_get_Current_m4083613828_AdjustorThunk
iSc:__ZN5physx6shdfnd8PoolBaseINS_2Gu30LargePersistentContactManifoldENS0_19ReflectionAllocatorIS3_EEE12allocateSlabEv
xzc:__ZNK5physx10NpMaterial17getReferenceCountEv
oFd:_RijndaelManaged_GenerateKey_m3366247933
Are:_BinaryReader_ReadUInt64_m1893783375
ATa:__ZN17PersistentManager9AddStreamEv
Dfi:dynCall_fidi
BDh:__ZN15dense_hashtableINSt3__24pairIK10KeyWrapperINS1_IPK9FieldInfoP11Il2CppClassEEEjEES9_17ReflectionMapHashIS8_EN14dense_hash_mapIS9_jSD_NS9_14EqualsComparerINS0_8equal_toIS8_EEEENS0_9allocatorISB_EEE9SelectKeyESI_SK_E12resize_deltaEjj
zed:__ZN5physx20getVertexEdgeIndicesERKNS_2Gu11HeightFieldEjjjPNS_8EdgeDataE
pXc:__ZN5physx6shdfnd5ArrayIPNS_2Sc8BodyCoreENS0_19ReflectionAllocatorIS4_EEE6resizeEjRKS4_
dcc:__ZN5physx3Cct26CharacterControllerManager16createControllerERNS_9PxPhysicsEPNS_7PxSceneERKNS_16PxControllerDescE
YC:__ZN11UnityEngine15CloudWebService14RestDownloaderD2Ev
nUa:__Z29StdTemplateConversionFunctionIjhEbPvR14SafeBinaryRead
W3a:__ZN22RenderingCommandBufferC2ERKS_
ttd:__ZNK12PhysXRaycast12BatchOverlapER13dynamic_arrayI15BatchedOverlapsLj4EEPP8Colliderj
LHg:_List_1_GrowIfNeeded_m2986672263_gshared
Hvf:_ArrayReadOnlyList_1_Remove_m2325516426_gshared
g2d:_Hashtable_get_Count_m830088216
$Qb:__ZNK13MonoBehaviour13GetScriptTypeEv
PY:__ZN13RenderTexture12SetDimensionE16TextureDimension
wlh:_ScriptableObject_CreateInstance_m3921674852
de:_SDL_FreeRW
w_c:__ZN5physx6shdfnd8PoolBaseINS_2Cm5BlockIhLj128EEENS0_19ReflectionAllocatorIS4_EEE15disposeElementsEv
AHd:_SHA1Internal_FillBuff_m891541953
tkg:__ZL62ResolveEventHandler_t3842432458_CustomAttributesCacheGeneratorP21CustomAttributesCache
mGh:__ZNK15dense_hashtableINSt3__24pairIK10KeyWrapperINS1_IPK12PropertyInfoP11Il2CppClassEEEjEES9_17ReflectionMapHashIS8_EN14dense_hash_mapIS9_jSD_NS9_14EqualsComparerINS0_8equal_toIS8_EEEENS0_9allocatorISB_EEE9SelectKeyESI_SK_E5beginEv
zKc:__ZN5physx3Scb14ParticleSystem14setRestOffsetsEjRKNS_16PxStrideIteratorIKjEERKNS2_IKfEE
by:__ZN20SoundChannelInstance8getDelayE14FMOD_DELAYTYPEPjS1_
Z_a:__ZN21AssetBundleFileSystemC2EPKc
GXg:__Z61RuntimeInvoker_Void_t1841601450_Il2CppObject_Int64_t909078037PK10MethodInfoPvPS2_
Tba:__ZN10UnitySceneD0Ev
nke:_NumberFormatter_FormatExponential_m3975285307
v:tempBigInt
le:_emscripten_glVertexAttrib1fv
cCb:__ZNSt3__26vectorIN9ShaderLab20SerializedSubProgram12UAVParameterENS_9allocatorIS3_EEE7reserveEj
NSf:_Array_InternalArray__get_Item_TisTypeTag_t141209596_m1747911007_gshared
obh:_AnimationCurve_Init_m1486386337
Qdh:_Component_GetComponents_m3712441745
cWc:__ZN5physx13NpVolumeCacheC2EPNS_2Sq17SceneQueryManagerEjj
ulc:__ZThn24_N5physx2Sc20ArticulationJointSimD1Ev
Dgg:__ZL99Thread_t241561612_CustomAttributesCacheGenerator_Thread_t241561612____ExecutionContext_PropertyInfoP21CustomAttributesCache
UQd:_DecoderReplacementFallback_get_DefaultString_m3399348550
gQg:_UnityAction_4_Invoke_m3312096275_gshared
cah:__Z57RuntimeInvoker_ResourceInfo_t3933049236_Int32_t2071877448PK10MethodInfoPvPS2_
hFh:__ZN24dense_hashtable_iteratorINSt3__24pairIK10KeyWrapperINS1_IPK10MethodInfoP11Il2CppClassEEEjEES9_17ReflectionMapHashIS8_EN14dense_hash_mapIS9_jSD_NS9_14EqualsComparerINS0_8equal_toIS8_EEEENS0_9allocatorISB_EEE9SelectKeyESI_SK_E30advance_past_empty_and_deletedEv
AKc:__ZN5physx2Sc18ParticleSystemCore14setRestOffsetsEjRKNS_16PxStrideIteratorIKjEERKNS2_IKfEE
Y3b:__ZN5physx2Gu16testPolyDataAxisERKNS0_8CapsuleVERKNS0_13PolygonalDataEPNS0_12SupportLocalERKNS_6shdfnd3aos6FloatVERSB_RNSA_5Vec3VE
LOa:__ZN16ReflectionProbes16UpdateSampleDataEv
LXg:__Z71RuntimeInvoker_Int32_t2071877448_Il2CppObject_Il2CppObject_Il2CppObjectPK10MethodInfoPvPS2_
loc:__ZN5physx2Sc17ParticleSystemSimD0Ev
kob:__ZN14SafeBinaryRead21TransferSTLStyleArrayI10vector_setI4PPtrI10MonoScriptENSt3__24lessIS4_EE13stl_allocatorIS4_L18MemLabelIdentifier76ELi16EEEEEvRT_17TransferMetaFlags
J$g:__Z103RuntimeInvoker_Il2CppObject_Il2CppObject_StreamingContext_t1417235061_ISurrogateSelectorU26_t2635255864PK10MethodInfoPvPS2_
DAg:_SafeHandle_Finalize_m1839546519
kdb:__ZN14Texture2DArray5ResetEv
g_b:__ZN8JSONRead21TransferSTLStyleArrayINSt3__26vectorI10RectOffset13stl_allocatorIS3_L18MemLabelIdentifier1ELi16EEEEEEvRT_S5_17TransferMetaFlags
oDg:_Context_AllocateNamedDataSlot_m3200404053
waa:__ZN14BatchAllocator6CommitE18MemLabelIdentifier
c2e:_X509EnhancedKeyUsageExtension_Decode_m3866320499
jke:_NumberFormatter_AppendIntegerStringWithGroupSeparator_m1401773574
jNh:__ZNK6il2cpp2vm14TypeNameParser10NextWillBeEcb
SQe:_CipherSuite_get_ServerHMAC_m3566778727
Ie:_JS_Sound_Play
kZc:__ZN5physx14NpArticulation9visualizeERNS_2Cm12RenderOutputEPNS_7NpSceneE
eBb:__ZN9ShaderLab16SerializedShader8TransferI14SafeBinaryReadEEvRT_
Vaa:__ZN5Mutex7TryLockEv
RWg:__Z51RuntimeInvoker_Int16_t4041245914_Decimal_t724701077PK10MethodInfoPvPS2_
idh:_Collision_get_collider_m3340328360
iLb:__ZN19ShaderPropertySheet16SetVectorIndexedEN9ShaderLab16FastPropertyNameEifRK8Vector4fNS_8SetFlagsE
Zp:__ZN14SafeBinaryRead21TransferSTLStyleArrayIN4core12basic_stringIcNS1_20StringStorageDefaultIcEEEEEEvRT_17TransferMetaFlags
Oaf:_RemotingConfiguration_RegisterWellKnownServiceType_m2491506630
sbg:__ZL55_TypeBuilder_t2783404358_CustomAttributesCacheGeneratorP21CustomAttributesCache
RUa:__Z29StdTemplateConversionFunctionIayEbPvR14SafeBinaryRead
xPc:__ZNK5physx20NpRigidActorTemplateINS_13PxRigidStaticEE14getConstraintsEPPNS_12PxConstraintEjj
u6b:__ZN25MeshMTDGenerationCallbackD0Ev
CD:__ZN11UnityEngine15CloudWebService14DataDispatcher4StopEv
eCb:__ZNSt3__26vectorIN9ShaderLab20SerializedSubProgram12UAVParameterENS_9allocatorIS3_EEE8__appendEj
iMg:_Collection_1_GetEnumerator_m434271983_gshared
aHh:__ZNK15dense_hashtableINSt3__24pairIK10KeyWrapperINS1_IPK9EventInfoP11Il2CppClassEEEjEES9_17ReflectionMapHashIS8_EN14dense_hash_mapIS9_jSD_NS9_14EqualsComparerINS0_8equal_toIS8_EEEENS0_9allocatorISB_EEE9SelectKeyESI_SK_E12test_deletedERK24dense_hashtable_iteratorISB_S9_SD_SM_SI_SK_E
mMd:_SecurityFrame_t1002202659_marshal_pinvoke_cleanup
j$:__ZN17ScriptingGCHandle7AcquireE18ScriptingObjectPtr25ScriptingGCHandleWeakness
pCg:_LifetimeServices_set_LeaseTime_m1487876644
Ykf:_ConstructorBuilder_not_supported_m3687319507
k5f:__ZL48IList_t3321498491_CustomAttributesCacheGeneratorP21CustomAttributesCache
dNd:_Single_System_IConvertible_ToInt64_m3555853323_AdjustorThunk
Bei:dynCall_iifiii
t7g:__Z48RuntimeInvoker_PersistentListenerMode_t857969000PK10MethodInfoPvPS2_
C$g:__Z87RuntimeInvoker_Il2CppObject_Il2CppObject_Il2CppObject_Il2CppObject_StringU26_t638738783PK10MethodInfoPvPS2_
j9:__Z21HasAlphaTextureFormat13TextureFormat
Xy:__ZN12AudioManager6UpdateEv
h9:__ZN14ImageReference9BlitImageERKS_NS_8BlitModeE
_rf:_MonoMethod_get_MethodHandle_m1882915015
v9f:__ZL93ConstructorInfo_t2851816542_CustomAttributesCacheGenerator_ConstructorInfo_Invoke_m2144827141P21CustomAttributesCache
Y2b:__ZNK5physx2Gu16SupportLocalImplINS0_11ConvexHullVEE9doSupportERKNS_6shdfnd3aos5Vec3VERNS5_6FloatVESA_
Dnb:__ZN23CachedSerializationDataD2Ev
T$b:__ZNK5physx3Cct13BoxController8getActorEv
K6a:__ZN14RenderSettings23VirtualRedirectTransferER14SafeBinaryRead
wYh:__ZN6il2cpp2os10ThreadImpl15CurrentThreadIdEv
r4a:__ZN17GlobalGameManager8TransferI17RemapPPtrTransferEEvRT_
ond:__ZN5physx6shdfnd8internal8HashBaseIPNS_2Gu12TriangleMeshES5_NS0_4HashIS5_EENS1_11HashSetBaseIS5_S7_NS0_9AllocatorELb1EE6GetKeyES9_Lb1EE5eraseERKS5_
LLe:_AppDomainInitializer_EndInvoke_m4003801172
E3g:__Z72RuntimeInvoker_Il2CppObject_Il2CppObject_Decimal_t724701077_Il2CppObjectPK10MethodInfoPvPS2_
w6a:__ZN16LevelGameManager8TransferI18StreamedBinaryReadILb0EEEEvRT_
zgb:__ZN12InputManagerD0Ev
s6h:__ZN6il2cpp6icalls8mscorlib6System11Diagnostics10StackTrace9get_traceEP15Il2CppExceptionib
yle:_NumberFormatInfo_set_NumberNegativePattern_m1050626150
Fsh:__ZN15dense_hashtableINSt3__24pairIK10KeyWrapperI13dynamic_arrayIPK10Il2CppTypeLj4EEEPFvvEEES8_N6il2cpp8metadata19Il2CppSignatureHashEN14dense_hash_mapIS8_SB_SF_NS8_14EqualsComparerINSE_22Il2CppSignatureCompareEEENS0_9allocatorISC_EEE9SelectKeyESJ_SL_E8min_sizeEjj
Psg:__ZL109PlayerConnection_t3517219175_CustomAttributesCacheGenerator_PlayerConnection_DisconnectedCallback_m4115432464P21CustomAttributesCache
JSd:_UnicodeEncoding_GetBytes_m1337660232
Ruc:__ZN5physx2Sc9RigidCore20removeShapeFromSceneERNS0_9ShapeCoreEb
Qtd:__ZN5physx6shdfnd8internal8HashBaseINS0_4PairIKPKcjEES5_NS0_4HashIS5_EENS1_11HashMapBaseIS5_jS9_NS_7profile26WrapperReflectionAllocatorIjEEE6GetKeyESD_Lb1EE15reserveInternalEj
Ebi:_posix_memalign
yLb:__ZN13ProduceHelperI12MeshRendererLb0EE7ProduceE18MemLabelIdentifier18ObjectCreationMode
Upd:__ZN5physx11RTreeCooker18buildFromTrianglesERNS_2Gu5RTreeEPKNS_6PxVec3EjPKtPKjjRNS_6shdfnd5ArrayIjNSB_19ReflectionAllocatorIjEEEEPNS0_13RemapCallbackEfNS_17PxMeshCookingHint4EnumE
apc:__ZN5physx6shdfnd5ArrayIPvNS0_15InlineAllocatorILj256ENS0_19ReflectionAllocatorINS_14NpArticulationEEEEEE15growAndPushBackERKS2_
Cch:_Camera_get_eventMask_m4241372419
Cgd:__ZN29PxsCreateFinalizeContactsTaskD0Ev
AXe:_SslClientStream_get_ClientCertSelectionDelegate_m2316959461
V$d:_SynchronizedArrayListWrapper_get_SyncRoot_m1466044127
WO:__ZNK15MonoScriptCache7ReleaseEv
yoh:__ZN6il2cpp2vm5Class13HasReferencesEP11Il2CppClass
$bd:__ZN5physx9PxTaskMgrC2EPNS_15PxCpuDispatcherEPNS_15PxGpuDispatcherEPNS_15PxSpuDispatcherE
Yf:_glBindTexture
fMg:_Collection_1_ClearItems_m3585785594_gshared
X9h:_snprintf
wjf:_Binder__ctor_m1361613966
Enf:_ILGenerator__cctor_m3943061018
m$d:_ArrayListWrapper_Clone_m1506311066
y6:__Z36scripting_liveness_calculation_begin17ScriptingClassPtriPFvPP12Il2CppObjectiPvES3_PFvvES7_
Kqa:__ZN16UniformCacheGLES6CreateERK20GpuProgramParameters
lUf:_UTF8Encoding_Fallback_m811555654
S$f:_UInt64_CompareTo_m3513742483
tlh:_ScriptableObject_t1975622470_marshal_pinvoke_cleanup
SRd:_Encoding_GetString_m1894033578
AOg:_Nullable_1_Equals_m3860982732_gshared
hii:_emscripten_glGetProgramInfoLog__wrapper
gWh:__ZN6il2cpp2vm5Field14IsThreadStaticEP9FieldInfo
pUf:_UTF8Encoding_InternalGetChars_m373801468
GR:__ZN17PersistentManager23DestroyFromFileInternalEi
Lpg:__ZL98Object_t1021602117_CustomAttributesCacheGenerator_Object_DoesObjectWithInstanceIDExist_m2570795274P21CustomAttributesCache
Ege:_Enum_ToString_m2112979707
Scg:__ZL55SoapServices_t3397513225_CustomAttributesCacheGeneratorP21CustomAttributesCache
ZFg:_MonoMethodMessage_get_MethodName_m3580519713
Edf:_ObjectManager_RecordArrayElementFixup_m2602188984
h2c:__ZN5physx19PxsMaterialCombiner24combineIsotropicFrictionERKNS_15PxsMaterialDataES3_
Nfe:_Enum_t2459695545_marshal_pinvoke_cleanup
GLc:__ZN5physx22NpParticleBaseTemplateINS_16PxParticleSystemENS_16NpParticleSystemEE20lockParticleReadDataEv
Pbh:_AssetBundleRequest_get_allAssets_m3314852268
b0:__ZN22CreateGpuProgramOutputC2Ev
N4e:_X509Chain__ctor_m2242540866
wdh:_Object__ctor_m197157284
lue:_MemoryStream_InternalConstructor_m2423667240
Qwg:_CapturingGroup_set_Index_m2175936006
bUg:__Z70RuntimeInvoker_Il2CppObject_Il2CppObject_Il2CppObject_SByte_t454417549PK10MethodInfoPvPS2_
g9e:_SoapMethodAttribute_SetReflectionObject_m3431595769
aod:__ZN5physx7Cooking16cookTriangleMeshERKNS_18PxTriangleMeshDescERNS_14PxOutputStreamE
Cxd:__ZN14CompletionTask4InitEPN5physx7PxSceneE
mmc:__ZN5physx2Sc7ElementD0Ev
zqd:__ZN5physx6shdfnd10Foundation7releaseEv
mc:invoke_vidi
AJe:_DeriveBytes_Adjust_m105515328
LRf:_Array_swap_TisIl2CppObject_TisIl2CppObject_m127996650_gshared
Zyb:__Z18Transfer_BlittableI18StreamedBinaryReadILb0EELb0ExEvRK29SerializationCommandArgumentsR31RuntimeSerializationCommandInfo
vXh:__ZN6il2cpp5utils11StringUtils15StringDuplicateEPKc
DQa:__Z15CanAddComponentR10GameObjectPKN5Unity4TypeE
w$:__ZNK9ShaderLab21ShaderRasterStateDesc16ToGfxRasterStateEPK19ShaderPropertySheetS3_R14GfxRasterState
wgf:_CspParameters__ctor_m2480441577
q8h:__ZN6il2cpp2os9EventImplC2Ebb
RCg:_DynamicPropertyCollection_NotifyMessage_m840388347
_xg:_Uri_ParseUri_m5711497
Wq:__ZN4PPtrI13MonoBehaviourE8TransferI19StreamedBinaryWriteILb0EEEEvRT_
sYa:__ZNK5Unity9Component26GetTypeInfoVirtualInternalEv
RL:__Z20IsMatrixBuiltinParamPKcPi
x3g:__Z63RuntimeInvoker_Void_t1841601450_Il2CppObject_Decimal_t724701077PK10MethodInfoPvPS2_
YEh:__ZN15dense_hashtableINSt3__24pairIK10KeyWrapperINS1_IPK10MethodInfoP11Il2CppClassEEEjEES9_17ReflectionMapHashIS8_EN14dense_hash_mapIS9_jSD_NS9_14EqualsComparerINS0_8equal_toIS8_EEEENS0_9allocatorISB_EEE9SelectKeyESI_SK_E16reset_thresholdsEv
SKb:__ZN8Renderer19PostInitializeClassEv
w4h:__ZN6il2cpp6icalls8mscorlib6System8Delegate23CreateDelegate_internalEP20Il2CppReflectionTypeP12Il2CppObjectP22Il2CppReflectionMethodb
Kjf:_Default_check_type_m2363631305
Qmb:__ZN18DelayedCallManager18CancelCallDelayed2E4PPtrI6ObjectEPF15CallObjectStatePS1_PvES7_
Xqf:_MonoCMethod_get_DeclaringType_m4147430117
qXa:__ZN25ThreadsafeLinearAllocator10ReallocateEPvji
Oob:__Z18Transfer_BlittableI14SafeBinaryReadLb1E11QuaternionfEvRK29SerializationCommandArgumentsR31RuntimeSerializationCommandInfo
wsc:__ZNK5physx18PxArticulationLink8isKindOfEPKc
Jsf:_MonoProperty_GetAccessors_m3704698731
V_g:__Z146RuntimeInvoker_Il2CppObject_Int32_t2071877448_Il2CppObject_ObjectU5BU5DU26_t3223402458_Il2CppObject_Il2CppObject_Il2CppObject_ObjectU26_t597476745PK10MethodInfoPvPS2_
Nxd:__Z25CreatePxMeshFromUnityMeshP4MeshbbRK10Matrix4x4f13TransformTypef
M3h:_GC_disable
Aeb:__ZN10Matrix4x4f8TransferI14SafeBinaryReadEEvRT_
Pn:FUNCTION_TABLE_vifiiiiiiiiiiiiiiiiii
Bxe:_UnmanagedMemoryStream_ReadByte_m2501145010
oIf:_Dictionary_2__ctor_m406310120_gshared
Hcf:_ObjectRecord_UnchainFixup_m3025030310
$R:__Z6AppendRKN4core12basic_stringIcNS_20StringStorageDefaultIcEEEEPKc
A3f:__ZL60MulticastDelegate_t3201952435_CustomAttributesCacheGeneratorP21CustomAttributesCache
x6:__ZL14OnWorldStoppedv
ywb:__Z18Transfer_BlittableI18StreamedBinaryReadILb1EELb0E8Vector3fEvRK29SerializationCommandArgumentsR31RuntimeSerializationCommandInfo
p_a:__ZN14CachingManager15ClearTempFolderEv
Lja:__ZN7ApiGLES18ClearBufferSubDataEjN2gl12BufferTargetEll
gSb:__Z37Camera_Get_Custom_PropAllCamerasCountv
Fdb:__ZN14Texture2DArray8TransferI18StreamedBinaryReadILb0EEEEvRT_
Svc:__ZN5physx15NpActorTemplateINS_18PxArticulationLinkEED2Ev
ILa:__Z18ApplyOcclusionMaskR19ProbeOcclusionCacheRK17LightProbeContextRK10RenderNodeb
Fte:_FileStreamAsyncResult__ctor_m1096228032
asd:__ZN11BoxCollider8TransferI18StreamedBinaryReadILb0EEEEvRT_
cce:_DBNull_System_IConvertible_ToSByte_m1228193074
RLg:_Collection_1__ctor_m2818834331_gshared
Exd:__Z19ExtractDataFromMeshR4MeshR13dynamic_arrayI8Vector3fLj4EERS1_ItLj2EES6_
yYh:__ZN6il2cpp2os10ThreadImpl22CreateForCurrentThreadEv
mEf:_Comparer_1__cctor_m3801958574_gshared
ixc:__ZN5physx2Sc16ArticulationCore26setMaxProjectionIterationsEj
sLd:_SecurityElement__ctor_m1988489885
ete:_FileStream_FlushBuffer_m2594140542
_9b:__ZN26IntersectAnyVsMeshCallbackILi1ELb0EED2Ev
i0h:__ZN6il2cpp2vm8Profiler12GCHeapResizeEx
Ifi:dynCall_viiifi
Bna:__ZN18GfxFramebufferGLES20ActiveContextChangedEPP17RenderSurfaceBaseS2_
bJa:__ZN19ShaderPropertySheet17UpdateTextureInfoEiN9ShaderLab16FastPropertyNameEPK10TextureRef
_jg:__ZL51TimeSpan_t3430258949_CustomAttributesCacheGeneratorP21CustomAttributesCache
xna:__Z19PluginsRenderMarkeri
Ppg:__ZL80Object_t1021602117_CustomAttributesCacheGenerator_Object_Instantiate_m2439155489P21CustomAttributesCache
Kxg:__ZN23InterfaceActionInvoker1ItE6InvokeEjP11Il2CppClassP12Il2CppObjectt
s8d:_Convert_ToSByte_m1570938941
Szb:__Z29Transfer_Blittable_ArrayFieldI18StreamedBinaryReadILb0EEyEvRT_R9ArrayInfoRK23StaticTransferFieldInfo
ARg:_X509CertificateEnumerator_get_Current_m3129374511
SJf:_EqualityComparer_1_get_Default_m875724809_gshared
eVh:__ZNSt3__214__split_bufferIN6il2cpp2vm5Image20EmbeddedResourceDataERNS_9allocatorIS4_EEEC2EjjS7_
PAa:__ZN5Image13ReformatImageERK14ImageReferenceii13TextureFormatNS0_8BlitModeE
Eag:__ZL57DispIdAttribute_t607560947_CustomAttributesCacheGeneratorP21CustomAttributesCache
nt:__ZN12AudioManager17RemoveAudioSourceEP11AudioSource
Heh:_CullingGroup_Finalize_m3172731580
Ald:__ZNK5physx2Gu10ConvexMesh17getReferenceCountEv
VSf:_Array_InternalArray__get_Item_TisUInt64_t2909196914_m2580870875_gshared
RJh:__ZN15dense_hashtableINSt3__24pairIK10KeyWrapperINS1_IP11Il2CppClassjEEES4_EES6_N6il2cpp8metadata14ArrayClassHashEN14dense_hash_mapIS6_S4_SB_NS6_14EqualsComparerINSA_17ArrayClassCompareEEENS0_9allocatorIS8_EEE9SelectKeyESF_SH_E4swapERSK_
AVc:__ZN5physx2Sc5Scene22setNbContactDataBlocksEj
VKe:_SecurityParser_OnEndElement_m2909940377
Pz:__ZN5physx14PxLightCpuTask12addReferenceEv
nab:__ZN21EnlightenSceneMapping8TransferI19StreamedBinaryWriteILb0EEEEvRT_
IWh:__ZN6il2cpp2gc16GarbageCollector19InitializeFinalizerEv
Kmc:__ZN5physx2Sc5Scene10removeBodyERNS0_7BodySimE
xRe:_Context_get_ClientWriteKey_m2235605337
O0h:_GC_bl_init_no_interiors
EM:__Z20CalculateSqrDistanceRK8Vector3fRK4AABB
y1g:__Z48RuntimeInvoker_Byte_t3683104436_Int64_t909078037PK10MethodInfoPvPS2_
fyd:__ZN14PhysicsManager15ProcessContactsEv
C7b:__ZN21BoxTraceSegmentReport7onEventEjPj
dsc:__ZN5physx2Sc21ArticulationJointCore13setSwingLimitEff
jx:__Z32AudioMixerDuckingProcessCallbackP21UnityAudioEffectStatePfS1_jii
n3b:__ZL20HullProjectionCB_BoxRKN5physx2Gu13PolygonalDataERKNS_6PxVec3ERKNS_2Cm8Matrix34ERKNS7_23FastVertex2ShapeScalingERfSE_
zkf:_CustomAttributeTypedArgument_GetHashCode_m999147081_AdjustorThunk
IUg:__Z48RuntimeInvoker_Void_t1841601450_SByte_t454417549PK10MethodInfoPvPS2_
YJb:__ZN26CustomRenderTextureManagerD2Ev
nte:_FileStream_Read_m3880951166
$7c:__ZN5physx14PxsAABBManager21selfCollideAggregatesEPKNS_19AggregateSortedDataE
Vt:__ZN12AudioManager8TransferI24GenerateTypeTreeTransferEEvRT_
d3:__Z25GetBytesFromTextureFormat13TextureFormat
e9:__ZN9Texture3D19UnloadFromGfxDeviceEb
hgd:__ZN5physx12_GLOBAL__N_112innerProductERKNS_14Px1DConstraintERS1_RKNS0_9MassPropsE
Vrb:__Z18Transfer_BlittableI17RemapPPtrTransferLb0EsEvRK29SerializationCommandArgumentsR31RuntimeSerializationCommandInfo
YLf:_Array_InternalArray__ICollection_Remove_TisContactPoint_t1376425630_m2242111467_gshared
Aei:dynCall_iifff
Gi:_emscripten_webgl_init_context_attributes
SP:__Z32scripting_class_get_assemblyname17ScriptingClassPtr
LAd:__ZN11UnityEngine15PlatformWrapper15GetVRDeviceNameEv
Zlh:_StackTraceUtility__cctor_m1132099289
n4c:__ZN5physx26PxcFrictionPatchStreamPairC2ERNS_17PxcNpMemBlockPoolE
qXf:_TimeSpan_Equals_m2029123271_AdjustorThunk
zuh:__ZN6il2cpp2vm13MetadataCache23GetInvokerMethodPointerEPK10MethodInfoPK20Il2CppGenericContext
Rra:__ZN9GfxDevice21RegisterNativeTextureE9TextureIDi16TextureDimension
xie:_CultureInfo__ctor_m456863818
L5h:__ZN6il2cpp6icalls8mscorlib6System10Reflection4Emit11TypeBuilder20create_generic_classEP27Il2CppReflectionTypeBuilder
zAh:__ZNSt3__26vectorIPK10MethodInfoNS_9allocatorIS3_EEE26__swap_out_circular_bufferERNS_14__split_bufferIS3_RS5_EE
dG:__ZN3WWW20GetCachedErrorStringEv
gKh:__ZN15dense_hashtableINSt3__24pairIK10KeyWrapperINS1_IP11Il2CppClassjEEES4_EES6_N6il2cpp8metadata14ArrayClassHashEN14dense_hash_mapIS6_S4_SB_NS6_14EqualsComparerINSA_17ArrayClassCompareEEENS0_9allocatorIS8_EEE9SelectKeyESF_SH_E13set_empty_keyERKS8_
VFb:__ZN12ScriptMapperD2Ev
Kxc:__ZNK5physx14NpSceneQueries10multiQueryINS_12PxOverlapHitEEEbRKNS_15MultiQueryInputERNS_13PxHitCallbackIT_EENS_7PxFlagsINS_9PxHitFlag4EnumEtEEPKNS_12PxQueryCacheERKNS_17PxQueryFilterDataEPNS_21PxQueryFilterCallbackEPNS_20BatchQueryFilterDataE
tRg:_X509Certificate_PEM_m49854707
$Je:_PKCS12_get_RNG_m3620550062
f2e:_X509BasicConstraintsExtension__ctor_m3320418592
DQg:_ExtendedKeyUsageExtension_Decode_m901297139
aDb:__Z32TransferEnumWithNameForceIntSizeI14SafeBinaryRead7FogModeEvRT_RT0_PKc17TransferMetaFlags
f6f:__ZL89SafeWaitHandle_t481461830_CustomAttributesCacheGenerator_SafeWaitHandle__ctor_m1710231470P21CustomAttributesCache
w2h:_GC_check_leaked
DEb:__ZN9ShaderLab20SerializedSubProgram16TextureParameter8TransferI19StreamedBinaryWriteILb0EEEEvRT_
kb:invoke_fiiiiiiiifiiiif
O_e:_KeysCollection_System_Collections_ICollection_get_SyncRoot_m2289369147
KD:__ZN11UnityEngine15CloudWebService16SessionContainer8AddEventEPNS0_14CloudEventInfoE
Mqa:__Z4TrimRKN4core12basic_stringIcNS_20StringStorageDefaultIcEEEES5_
N5f:__ZL55GuidAttribute_t222072359_CustomAttributesCacheGeneratorP21CustomAttributesCache
kkf:_CustomAttributeNamedArgument_Equals_m2691468532
K2f:__ZL74String_t_CustomAttributesCacheGenerator_String_Concat_m3881798623____args0P21CustomAttributesCache
Kdg:__ZL103CryptoConfig_t896479599_CustomAttributesCacheGenerator_CryptoConfig_CreateFromName_m2169102076____args1P21CustomAttributesCache
Dcb:__ZN10VertexData8TransferI14SafeBinaryReadEEvRT_
krc:__ZN5physx19NpArticulationJointD0Ev
Rla:__ZN11TextureData17GetImageReferenceEii
f4d:_Stack__ctor_m2410583781
q3h:_GC_malloc_atomic
qwd:__ZN5physx9NpPhysics14createInstanceEjRNS_12PxFoundationERKNS_17PxTolerancesScaleEbPNS_20PxProfileZoneManagerE
bzd:__Z59Register_UnityEngine_Physics_INTERNAL_CALL_Internal_Raycastv
Ijf:_Default_GetBetterMethod_m4255740863
hlf:_ConstructorBuilder_GetILGenerator_m1731893569
aUc:__ZNK5physx7NpScene17getFilterCallbackEv
gVh:__ZNSt3__214__split_bufferIN6il2cpp2vm5Image20EmbeddedResourceDataERNS_9allocatorIS4_EEED2Ev
VZa:__ZN15dense_hashtableINSt3__24pairIKN4core12basic_stringIcNS2_20StringStorageDefaultIcEEEEP11AssetBundleEES6_20StringHash32FunctionIS6_EN14dense_hash_mapIS6_S9_SC_NS0_8equal_toIS6_EENS0_9allocatorISA_EEE9SelectKeyESF_SH_E4findERS7_
ZN:__ZL20SortItemByInstanceIDRKN18AwakeFromLoadQueue4ItemES2_
Yvd:__ZN5physx6shdfnd5ArrayIPvNS0_15InlineAllocatorILj256ENS0_19ReflectionAllocatorINS_24NpPtrTableStorageManager8PtrBlockILi16EEEEEEEE15growAndPushBackERKS2_
cpf:_TypeBuilder_create_runtime_class_m2719530260
lGd:_RNGCryptoServiceProvider_RngClose_m2921734810
jCd:__ZN20UnityConnectSettings8TransferI24GenerateTypeTreeTransferEEvRT_
Amg:__ZL199U3CCreateWhereIteratorU3Ec__Iterator1D_1_t2523986802_CustomAttributesCacheGenerator_U3CCreateWhereIteratorU3Ec__Iterator1D_1_System_Collections_Generic_IEnumeratorU3CTSourceU3E_get_Current_m517722874P21CustomAttributesCache
wah:__Z37RuntimeInvoker_LabelFixup_t4090909514PK10MethodInfoPvPS2_
SMg:_ReadOnlyCollection_1_Contains_m1227826160_gshared
jCe:_SimpleCollator_IsHalfKana_m4255579023
GYe:_InternalAsyncResult_get_Count_m1291942796
Jzf:_InternalEnumerator_1_get_Current_m3206960238_AdjustorThunk
fCc:__ZN5physx7NpShape13setRestOffsetEf
Q_h:__ZNK15dense_hashtableINSt3__24pairIK10KeyWrapperIPK19Il2CppGenericMethodEP10MethodInfoEES6_N6il2cpp8metadata23Il2CppGenericMethodHashEN14dense_hash_mapIS6_S9_SD_NS6_14EqualsComparerINSC_26Il2CppGenericMethodCompareEEENS0_9allocatorISA_EEE9SelectKeyESH_SJ_E10test_emptyERK30dense_hashtable_const_iteratorISA_S6_SD_SL_SH_SJ_E
Gwa:__Z16FlaggedAsSkippedIN4core12basic_stringIcNS0_20StringStorageDefaultIcEEEEEbRK13FileEntryInfoRKT_19FileEnumerationFlag
BT:__ZL31InitializeRendererUpdateManagerPv
HCc:__ZN5physxL11getTriangleERKNS_2Gu12TriangleMeshEjPNS_6PxVec3EPKS4_PKvRKNS_2Cm8Matrix34Eb
Ky:__ZN13AudioListener12CleanupClassEv
_sd:__ZN14SafeBinaryRead21TransferSTLStyleArrayINSt3__26vectorIjNS1_9allocatorIjEEEEEEvRT_17TransferMetaFlags
lTe:_ClientSessionInfo_Dispose_m2571428025
VT:__Z13GetIEnlightenv
xWe:_RecordProtocol_decryptRecordFragment_m2510859489
NDc:__ZNK5physx7NpCloth16lockParticleDataEv
ohb:__ZN11TimeManager8TransferI19StreamedBinaryWriteILb0EEEEvRT_
Wte:_DelegatePInvokeWrapper_ReadDelegate_t3184826381
q5e:_X509ChainStatus_set_Status_m4288653744_AdjustorThunk
AAd:__ZN11UnityEngine15PlatformWrapper27GetGraphicsCapsSupportFlagsEv
a3f:__ZL80Decimal_t724701077_CustomAttributesCacheGenerator_Decimal_op_Explicit_m714968249P21CustomAttributesCache
tde:_Decimal_Equals_m1115043331
mZc:__ZN5physx13NpRigidStatic9visualizeERNS_2Cm12RenderOutputEPNS_7NpSceneE
kwb:__ZN12NativeBufferI16Converter_StringE15SetupForWritingER9ArrayInfo
lhi:___cxa_end_catch__wrapper
ej:_emscripten_glVertexAttrib3fv
iMc:__ZNK5physx22NpParticleBaseTemplateINS_16PxParticleSystemENS_16NpParticleSystemEE13getRestOffsetEv
Ysg:__ZL119RenderPipelineManager_t984453155_CustomAttributesCacheGenerator_RenderPipelineManager_CleanupRenderPipeline_m2242901458P21CustomAttributesCache
I$c:__ZN5physx6shdfnd8PoolBaseINS_2Sc35ParticleElementRbElementInteractionENS0_19ReflectionAllocatorIS3_EEE15disposeElementsEv
zre:_BinaryReader_ReadUInt32_m1363572147
Rze:_MonoType_get_Module_m3769241394
Iig:__ZL79Convert_t2607082565_CustomAttributesCacheGenerator_Convert_ToUInt32_m3391339025P21CustomAttributesCache
xQa:__ZN13MonoBehaviour22DoScriptRebuildWarningEv
iSb:__Z38Camera_CUSTOM_INTERNAL_CALL_RaycastTryP12Il2CppObjectRK3Rayfi
ePh:__ZN6il2cpp6icalls8mscorlib6System5Array13ClearInternalEP11Il2CppArrayii
xMb:__ZZL23RegisterLightPropertiesR22GenericPropertyBindingEN22Wrapper_LightSpotAngle13GetFloatValueEPv
Yzg:_GCHandle_get_Target_m2327042781
QFh:__ZNK15dense_hashtableINSt3__24pairIK10KeyWrapperINS1_IPK11Il2CppImageP11Il2CppClassEEEjEES9_17ReflectionMapHashIS8_EN14dense_hash_mapIS9_jSD_NS9_14EqualsComparerINS0_8equal_toIS8_EEEENS0_9allocatorISB_EEE9SelectKeyESI_SK_E12test_deletedERK24dense_hashtable_iteratorISB_S9_SD_SM_SI_SK_E
H7b:__ZN5physx2Gu26EPASupportMapPairLocalImplINS0_9TriangleVENS0_4BoxVEED0Ev
tdi:_llvm_cttz_i32
z2e:_PublicKey_DecodeDSA_m1169363495
egf:_AsymmetricKeyExchangeFormatter__ctor_m3362140205
ZOh:__ZN6il2cpp5utils9PathUtils7CombineIcEENSt3__212basic_stringIT_NS3_11char_traitsIS5_EENS3_9allocatorIS5_EEEERKSA_SC_
G_e:_NameObjectCollectionBase_BaseGet_m667273025
j8c:__ZN5physx14PxsAABBManager16processBPResultsERKNS_20PxsComputeAABBParamsE
AYb:__ZN9JSONWrite8TransferI13dynamic_arrayIiLj4EEEEvRT_PKc17TransferMetaFlags
q6c:__ZN5physx23PxsBroadPhaseContextSapD2Ev
$pd:__ZN5physx12SubSortQuickC2EPjPKNS_10PxBounds3VEjf
CK:__Z18ConvertUTF16toUTF8PPKtS0_PPhS2_15ConversionFlags
h$h:__ZN6il2cpp2os20PathErrnoToErrorCodeERKNSt3__212basic_stringIcNS1_11char_traitsIcEENS1_9allocatorIcEEEEi
HYf:_TypeLoadException__ctor_m1903359728
Tmh:__ZL16my_g_bit_nth_msfj
HGf:_Transform_1_BeginInvoke_m3014766640_gshared
iEd:_KeySizes__ctor_m3526899007
vKh:__ZN15dense_hashtableINSt3__24pairIK10KeyWrapperIP11Il2CppClassES4_EES5_N6il2cpp8metadata16SZArrayClassHashEN14dense_hash_mapIS5_S4_SA_NS5_14EqualsComparerINS9_19SZArrayClassCompareEEENS0_9allocatorIS7_EEE9SelectKeyESE_SG_E12expand_arrayEjN21dense_hash_map_traits17integral_constantIbLb0EEE
wne:_Int16_System_IConvertible_ToInt32_m191782913_AdjustorThunk
Urg:__ZL69ArgumentCache_t4810721_CustomAttributesCacheGenerator_m_FloatArgumentP21CustomAttributesCache
WKg:_Collection_1_CopyTo_m1578267616_gshared
pRd:_EncoderReplacementFallback__ctor_m2208438262
rEa:__Z23SetupStereoFlareElementP11FlareVertexRK8Vector2fS3_S3_RK11ColorRGBA32RK10Matrix4x4fRK8Vector3fb
Loh:__ZN6il2cpp2vm5Class15GetInstanceSizeEPK11Il2CppClass
ta:invoke_iiiifiiii
XYg:__Z131RuntimeInvoker_Void_t1841601450_Int32_t2071877448_Il2CppObject_Il2CppObject_Il2CppObject_Il2CppObject_Il2CppObject_SByte_t454417549PK10MethodInfoPvPS2_
YTf:_UTF7Decoder_GetChars_m2790530452
A$b:__ZN9rapidjson8internal6u64toaEyPc
qjg:__ZL67IndexOutOfRangeException_t3527622107_CustomAttributesCacheGeneratorP21CustomAttributesCache
lGc:__ZNK5physx2Sc9ClothCore16getRestPositionsEPNS_6PxVec4E
Z2c:__ZN5physx20PxcSweepConvexConvexERKNS_11PxsCCDShapeES2_PKNS_12PxsRigidBodyES5_RKNS_11PxTransformES8_S8_S8_fRNS_6PxVec3ESA_RNS_10PxcNpCacheERNS_18PxcNpThreadContextEf
dse:_Directory_GetFiles_m4036267478
age:_Enum_System_IConvertible_ToType_m2669300536
ule:_NumberFormatInfo_get_CurrencyNegativePattern_m3972163809
sJc:__ZN5physx15PxsParticleDataD0Ev
coa:__ZL19BlitFramebufferImplRN4gles23BlitFramebufferDrawQuadER9GfxDevice9TextureIDRK8Vector4f
Frb:__Z18Transfer_BlittableI17RemapPPtrTransferLb0EhEvRK29SerializationCommandArgumentsR31RuntimeSerializationCommandInfo
Snd:__ZN5physx6shdfnd5ArrayIPvNS0_19ReflectionAllocatorIN17PxcPoolMallocData9PoolData8EEEE15growAndPushBackERKS2_
dUg:__Z44RuntimeInvoker_Byte_t3683104436_Il2CppObjectPK10MethodInfoPvPS2_
hNg:_ReadOnlyCollection_1_System_Collections_IList_Add_m2333231354_gshared
Thg:__ZL78Convert_t2607082565_CustomAttributesCacheGenerator_Convert_ToSByte_m2470292806P21CustomAttributesCache
Uof:_OpCodes__cctor_m939885911
tKb:__ZN14Texture2DArray11InitTextureEiii13TextureFormatb
rPe:_PKCS1_RSASP1_m1748738009
Urd:__ZN5physx15PxGeometryQuery14getWorldBoundsERKNS_10PxGeometryERKNS_11PxTransformEf
aXe:_RSASslSignatureDeformatter_SetHashAlgorithm_m4048969080
AHc:__ZN5physx2Sc9ClothCore18setSolverFrequencyEf
izg:_UriParser_InitializeAndValidate_m251943319
zUb:__Z26Object_Set_Custom_PropNameP12Il2CppObjectP12Il2CppString
RId:_SymmetricAlgorithm_set_Padding_m3081984460
Zgb:__ZN9InputAxis8TransferI18StreamedBinaryReadILb0EEEEvRT_
mmd:__ZN5physx2Gu11HeightField8requiresERNS_23PxProcessPxBaseCallbackE
oef:_StreamingContext_t1417235061_marshal_pinvoke_back
U2b:__ZN5physx2Gu16buildPartialHullERKNS0_13PolygonalDataEPNS0_12SupportLocalERNS0_14SeparatingAxesERKNS_6shdfnd3aos5Vec3VESC_
A_d:_ArrayList_RemoveAt_m2578928333
ppb:__Z18Transfer_BlittableI14SafeBinaryReadLb0EaEvRK29SerializationCommandArgumentsR31RuntimeSerializationCommandInfo
Rsh:__ZN30dense_hashtable_const_iteratorINSt3__24pairIK10KeyWrapperI13dynamic_arrayIPK10Il2CppTypeLj4EEEPFvvEEES8_N6il2cpp8metadata19Il2CppSignatureHashEN14dense_hash_mapIS8_SB_SF_NS8_14EqualsComparerINSE_22Il2CppSignatureCompareEEENS0_9allocatorISC_EEE9SelectKeyESJ_SL_E30advance_past_empty_and_deletedEv
EJd:_X509Certificate_GetName_m2354987368
KQg:_GeneralNames_get_DNSNames_m2721668874
Sfe:_Enum_System_IConvertible_ToByte_m38374586
oif:_PlatformNotSupportedException__ctor_m3301654967
Agi:_emscripten_glFrustum__wrapper
yqc:__ZNK5physx2Sc16ArticulationCore17releaseDriveCacheERNS_9PxcFsDataE
PWe:_ReceiveRecordAsyncResult_get_CompletedWithError_m2670396551
ede:_Decimal_Equals_m1798565377
n4a:__ZN17GlobalGameManager8TransferI24GenerateTypeTreeTransferEEvRT_
Kec:__ZN5physx11NpAggregate7releaseEv
Mlf:_TypeBuilder_check_created_m2929267877
cBa:__Z20SyncFenceCullResultsR11CullResults
Dpa:__ZN15TextureTFMethod20IsBoneCountSupportedEi
z9e:_ObjRef__ctor_m1486312270
fae:_DateTime_System_IConvertible_ToSByte_m2575078084_AdjustorThunk
Osb:__Z22TransferField_NonArrayI17RemapPPtrTransfer27Converter_SimpleNativeClassI8GUIStyleEEvRK23StaticTransferFieldInfoR31RuntimeSerializationCommandInfoRT0_
$Bc:__ZN5physx7NpShape12setMaterialsEPKPNS_10PxMaterialEt
ZIb:__ZNK17AnimationCurveTplIfE20EvaluateWithoutCacheEfRf
h_h:__ZN6il2cpp2os6Thread12QueueUserAPCEPFvPvES2_
fRd:_EncoderExceptionFallback_Equals_m762170768
jMf:_Array_InternalArray__IEnumerable_GetEnumerator_TisDictionaryEntry_t3048875398_m3498834924_gshared
uMg:_Collection_1_IsValidItem_m1304951912_gshared
zsf:_PropertyInfo__ctor_m1808219471
t6d:_Convert_ToDateTime_m4161927553
M5g:__Z76RuntimeInvoker_Void_t1841601450_RegexOptionsU26_t3063574985_SByte_t454417549PK10MethodInfoPvPS2_
Slf:_TypeBuilder_GetConstructors_m774120094
tq:__ZN17AnimationCurveTplIfE8TransferI14SafeBinaryReadEEvRT_
Bxg:_RegularExpression_set_GroupCount_m2991393456
zcc:__ZN5physx2Gu9RadixSortD2Ev
whe:_Calendar_get_EraNames_m452820602
Xbb:__ZNSt3__26vectorIN15QualitySettings14QualitySettingENS_9allocatorIS2_EEE6assignIPS2_EENS_9enable_ifIXaasr21__is_forward_iteratorIT_EE5valuesr16is_constructibleIS2_NS_15iterator_traitsIS9_E9referenceEEE5valueEvE4typeES9_S9_
AYa:__ZNK5Unity9Component10GetEnabledEv
wac:__Z15raycast_capsuleRKN5physx10PxGeometryERKNS_11PxTransformERKNS_6PxVec3ES8_fNS_7PxFlagsINS_9PxHitFlag4EnumEtEEjPNS_12PxRaycastHitEbPFbRSD_PvESG_
rCa:__ZNK19ShaderPropertySheet11HasPropertyERKN9ShaderLab16FastPropertyNameE
S9d:_DateTime_System_IConvertible_ToByte_m2670443498_AdjustorThunk
jIc:__ZNK5physx15NpActorTemplateINS_15PxParticleFluidEE14getOwnerClientEv
OBh:_il2cpp_class_get_image
cR:__Z16AsyncReadRequestP16AsyncReadCommand
xkg:__ZL81BigInteger_t925946153_CustomAttributesCacheGenerator_BigInteger__ctor_m4013661868P21CustomAttributesCache
ahd:__ZNK5physx34PxsSolverConstraintPostProcessTask7getNameEv
iNe:_BigInteger_op_Addition_m1734797151
F7b:__ZN5physx2Gu16_gjkLocalRayCastINS0_9TriangleVENS0_4BoxVEEEbRT_RT0_RKNS_6shdfnd3aos6FloatVERKNS9_5Vec3VESF_RSA_RSD_SH_f
hwd:__ZN5physx9NpPhysics20MeshDeletionListener28onGuMeshFactoryBufferReleaseEPKNS_6PxBaseEtb
lmf:_EnumBuilder_CreateNotSupportedException_m62763134
J3e:_X509Chain_CheckRevocation_m2480313486
yFd:_RijndaelManagedTransform_TransformBlock_m2558865851
SLg:_Collection_1_System_Collections_Generic_ICollectionU3CTU3E_get_IsReadOnly_m4096071066_gshared
Qgb:__ZN9InputAxis8TransferI14SafeBinaryReadEEvRT_
mO:__ZNK21ExecutionOrderManager30GetCustomAwakeFromLoadQueueForEPKN5Unity4TypeE
vTc:__ZNK5physx7NpScene9getActorsENS_7PxFlagsINS_15PxActorTypeFlag4EnumEtEEPPNS_7PxActorEjj
oDd:__Z27RegisterModule_UnityConnectv
pHh:__ZN6il2cpp2vm10Reflection27GetCustomAttributesCacheForEP25Il2CppReflectionParameter
hLc:__ZN5physx15PxParticleFluidD0Ev
m$c:__ZN5physx11NodeManagerD0Ev
nWf:_Scheduler_Remove_m1930366072
naf:_RealProxy__ctor_m3041043303
Dje:_NumberFormatter_Init_m2654758994
mfc:__ZNK5physx2Sc8BodyCore6getSimEv
Iw:__ZN10ObjectPoolIN4FMOD12ChannelGroupENS0_13ChannelGroupIEE7SetSizeEi
cFe:_PrimalityTest_BeginInvoke_m966469054
C$f:_UInt64_System_IConvertible_ToInt16_m2797150165_AdjustorThunk
Uya:__ZN5Image13ReformatImageEii13TextureFormatN14ImageReference8BlitModeE
HSf:_Array_InternalArray__get_Item_TisLabelData_t3712112744_m863115768_gshared
ape:_Int32_Parse_m753946802
JPg:_UnityAction_1__ctor_m3282722699_gshared
AF:__Z22ValidateTlsfAllocationPvjiS_
fBc:__ZN5physx2Cm12RefCountable14onRefCountZeroEv
_Ih:__ZN14dense_hash_mapI10KeyWrapperINSt3__24pairIPK9EventInfoP11Il2CppClassEEEj17ReflectionMapHashIS8_ENS9_14EqualsComparerINS1_8equal_toIS8_EEEENS1_9allocatorINS2_IKS9_jEEEEE15set_deleted_keyERSH_
zpf:_UnmanagedMarshal_ToMarshalAsAttribute_m3695569337
vEc:__ZNK5physx7NpCloth25getMotionConstraintConfigEv
Jqb:__Z14resize_trimmedINSt3__26vectorI17AnimationCurveTplIfE13stl_allocatorIS3_L18MemLabelIdentifier1ELi16EEEEEvRT_j
kOa:__ZN25CameraStackRenderingState19SetupLastEyeCamerasERK11CameraStack
H0a:__Z12GUIDToStringRK9UnityGUID
HXh:__ZN6il2cpp6icalls8mscorlib6System4Enum12get_hashcodeEP12Il2CppObject
Os:__ZN11SoundHandleC2ERKS_
kPe:_RSASslSignatureFormatter__ctor_m2530528184
Cth:__ZNK6il2cpp5utils11collections13ArrayValueMapIPK10Il2CppType17Il2CppInteropData26InteropDataToTypeConverterNS_8metadata14Il2CppTypeLessENS8_26Il2CppTypeEqualityComparerEE10find_firstERKS5_
vnf:_GenericTypeParameterBuilder_GetGenericTypeDefinition_m2936287336
HSc:__ZThn8_N5physx2Sc24ElementInteractionMarker7destroyEv
JEe:_BigInteger_op_Addition_m1196561843
rUa:__Z29StdTemplateConversionFunctionItxEbPvR14SafeBinaryRead
vCg:_FormatterData__ctor_m3974986124
Z7f:__ZL64FileNotFoundException_t4200667904_CustomAttributesCacheGeneratorP21CustomAttributesCache
xFd:_RijndaelManagedTransform_get_CanReuseTransform_m3735256596
mcc:__ZN5physx3Cct26CharacterControllerManager24setOverlapRecoveryModuleEb
v1d:_Comparer__cctor_m1327316974
_re:_MonoIO_ExistsFile_m1421941572
pbe:_DateTime_op_GreaterThanOrEqual_m3818963848
oda:__ZNSt3__26__treeINS_12__value_typeI18VertexChannelsInfoP17VertexDeclarationEENS_19__map_value_compareIS2_S5_NS_4lessIS2_EELb1EEE13stl_allocatorIS5_L18MemLabelIdentifier14ELi16EEE12__find_equalIS2_EERPNS_16__tree_node_baseIPvEENS_21__tree_const_iteratorIS5_PNS_11__tree_nodeIS5_SG_EEiEESJ_RKT_
P6a:__ZN14RenderSettings18TransferDeprecatedI14SafeBinaryReadEEvRT_
S5b:__ZN24ConvexVsHeightfieldSweepD0Ev
gI:__ZN12TLSAllocatorI14StackAllocatorE8AllocateEji
kP:__ZN16ScriptingManager18GetMonoScriptCacheEi
nsh:__ZN13dynamic_arrayIPK10Il2CppTypeLj4EEC2ERKS3_
Rph:__ZN15dense_hashtableINSt3__24pairIK10KeyWrapperIPK11Il2CppClassEPKcEES6_N6il2cpp5utils11PointerHashIS3_EEN14dense_hash_mapIS6_S9_SE_NS6_14EqualsComparerINS0_8equal_toIS5_EEEENS0_9allocatorISA_EEE9SelectKeyESJ_SL_E15set_deleted_keyERKSA_
umg:__ZL84Locale_t4255929017_CustomAttributesCacheGenerator_Locale_GetText_m512920887____args1P21CustomAttributesCache
upb:__Z18Transfer_BlittableI14SafeBinaryReadLb1EyEvRK29SerializationCommandArgumentsR31RuntimeSerializationCommandInfo
Usg:__ZL89U3CInvokeMessageIdSubscribersU3Ec__AnonStorey0_t1899782350_CustomAttributesCacheGeneratorP21CustomAttributesCache
oVb:__ZN8JSONRead8TransferIfEEvRT_PKc17TransferMetaFlagsb
sqg:__ZL105Physics_t634932869_CustomAttributesCacheGenerator_Physics_Raycast_m3475924638____queryTriggerInteraction4P21CustomAttributesCache
$Zc:__ZN5physx2Sc5Scene9addStaticEPNS_7PxActorERNS0_19BatchInsertionStateEPNS_9PxBounds3E
Beh:_Coroutine__ctor_m1253937571
tWd:__ZN21InterfaceFuncInvoker2IP12Il2CppObjectP6Type_tS1_E6InvokeEjP11Il2CppClassS1_S3_S1_
cci:__ZNSt3__212basic_stringIcNS_11char_traitsIcEENS_9allocatorIcEEE6appendEPKcj
Q8f:__ZL54TypeBuilder_t3308873219_CustomAttributesCacheGeneratorP21CustomAttributesCache
gFc:__ZN5physx7NpCloth25setSelfCollisionStiffnessEf
F2c:__ZZN5physx28PxcSweepEstimateAnyShapeMeshERKNS_11PxsCCDShapeES2_PKNS_12PxsRigidBodyES5_RKNS_11PxTransformES8_fEN2CBD0Ev
Omf:_GenericTypeParameterBuilder_GetAttributeFlagsImpl_m3338182267
lA:__ZN13Simd4iFactoryIN6detail9FourTupleEEC2Eiiii
twe:_SynchronizedReader__ctor_m1408327515
QTg:_X509Store_LoadCrl_m1146720614
Sah:__Z54RuntimeInvoker_KeyValuePair_2_t3716250094_Il2CppObjectPK10MethodInfoPvPS2_
$2d:_Slot_t2022531261_marshal_pinvoke_cleanup
$xa:__ZZ23InitPlayerLoopCallbacksvEN38PostLateUpdateShaderHandleErrorsstruct7ForwardEv
N9a:__ZN15SerializeTraitsI33EnlightenTerrainChunksInformationE8TransferI14SafeBinaryReadEEvRS0_RT_
Xyc:__ZN5physx2Sc14ConstraintCoreD2Ev
fLb:__ZNK32RendererMaterialAnimationBinding9BindValueER6ObjectRKN11UnityEngine9Animation14GenericBindingERNS3_10BoundCurveE
qZg:__Z112RuntimeInvoker_Int32_t2071877448_Il2CppObject_Int32_t2071877448_Int32_t2071877448_Il2CppObject_Int32_t2071877448PK10MethodInfoPvPS2_
Vvc:__ZN5physx15NpActorTemplateINS_18PxArticulationLinkEE13setActorFlagsENS_7PxFlagsINS_11PxActorFlag4EnumEtEE
ngb:__Z13GetIAnimationv
A9:__ZL18stbir__support_onef
And:__ZN5physx6shdfnd8internal8HashBaseIPNS_11PxAggregateES4_NS0_4HashIS4_EENS1_11HashSetBaseIS4_S6_NS0_9AllocatorELb0EE6GetKeyES8_Lb0EE15reserveInternalEj
MJg:_List_1_System_Collections_IList_Remove_m2040310137_gshared
otg:_Match_get_Regex_m3526002767
j8f:__ZL49Stream_t3255436806_CustomAttributesCacheGeneratorP21CustomAttributesCache
mXb:__Z26Transfer_UnityEngineObjectI9JSONWriteLb0EEvRK29SerializationCommandArgumentsR31RuntimeSerializationCommandInfo
OX:__ZN9ShaderLab4Pass9ApplyPassEjPK19ShaderPropertySheetR17ShaderPassContextP6ShaderiPKNS_10GrabPassesEPNS_11SubProgramsE
x1:__ZNSt3__26vectorIN4core12basic_stringIcNS1_20StringStorageDefaultIcEEEE13stl_allocatorIS5_L18MemLabelIdentifier1ELi16EEE6assignINS_11__wrap_iterIPS5_EEEENS_9enable_ifIXaasr21__is_forward_iteratorIT_EE5valuesr16is_constructibleIS5_NS_15iterator_traitsISF_E9referenceEEE5valueEvE4typeESF_SF_
J_f:_UInt32_System_IConvertible_ToInt16_m2251335934_AdjustorThunk
mqh:__ZN14dense_hash_mapI10KeyWrapperIPKcEP11Il2CppClassN6il2cpp5utils11StringUtils12StringHasherIS2_EENS3_14EqualsComparerINS8_21CaseSensitiveComparerEEENSt3__29allocatorINSE_4pairIKS3_S5_EEEEE13set_empty_keyERSH_
TTg:__Z31RuntimeInvoker_Void_t1841601450PK10MethodInfoPvPS2_
dWd:_Boolean_System_IConvertible_ToType_m3990189691
MFh:__ZNSt3__218uninitialized_copyIPNS_4pairIK10KeyWrapperINS1_IPK11Il2CppImageP11Il2CppClassEEEjEESC_EET0_T_SE_SD_
Ba:invoke_vdd
mn:FUNCTION_TABLE_fiii
kCf:_InternalEnumerator_1_Dispose_m3838127340_AdjustorThunk
qfe:_Double_System_IConvertible_ToUInt32_m624993430
lWf:_Scheduler_Add_m376749205
K6h:__ZN6il2cpp6icalls8mscorlib4Mono8Security12Cryptography18KeyPairPersistence19_IsMachineProtectedEP12Il2CppString
oUh:__ZN15dense_hashtableINSt3__24pairIK10KeyWrapperINS1_IPKcS4_EEEiEES6_24NamespaceAndNamePairHashN14dense_hash_mapIS6_iS9_NS6_14EqualsComparerI26NamespaceAndNamePairEqualsEENS0_9allocatorIS8_EEE9SelectKeyESD_SF_E12resize_deltaEjj
hKb:__Z14RandomRotationP9Texture2DPhiiii
iif:_OutOfMemoryException__ctor_m1932883273
OAf:_InternalEnumerator_1_MoveNext_m1594563423_AdjustorThunk
Tud:__ZThn132_N5physx7profile8ZoneImplINS_28PxProfileNameProviderForwardEED1Ev
$Zg:__Z35RuntimeInvoker_TimeSpan_t3430258949PK10MethodInfoPvPS2_
UTc:__ZN5physx7NpScene27setCCDContactModifyCallbackEPNS_26PxCCDContactModifyCallbackE
ute:_ReadDelegate__ctor_m885671467
Dod:__ZNK5physx17ConvexHullBuilder17ComputeGeomCenterERNS_6PxVec3E
Obe:_DateTimeOffset_ToString_m2121173678_AdjustorThunk
Ukg:__ZL50X509Crl_t1699034837_CustomAttributesCacheGeneratorP21CustomAttributesCache
luh:__ZN24dense_hashtable_iteratorINSt3__24pairIK10KeyWrapperIPKcEP11Il2CppClassEES5_N6il2cpp5utils11StringUtils12StringHasherIS4_EEN14dense_hash_mapIS5_S8_SE_NS5_14EqualsComparerINSC_21CaseSensitiveComparerEEENS0_9allocatorIS9_EEE9SelectKeyESI_SK_E30advance_past_empty_and_deletedEv
S6c:__ZN3MBPD0Ev
$i:_JS_WebRequest_SetResponseHandler
sE:__ZNK13EmscriptenWWW14GetPartialDataEv
umi:_glDeleteProgram__wrapper
oSb:__Z50Register_UnityEngine_Camera_INTERNAL_get_pixelRectv
f4:__ZN6prcoreL18BlitFloatToIntegerERK14ImageReferenceRS0_
DKe:_X509CertificateCollection_get_Item_m410866272
$Wc:__ZNK5physx10PxsContext18getBounceThresholdEv
PIb:__Z13GetIPhysics2Dv
aD:__ZN11UnityEngine15CloudWebService14RestDownloader17OnCompleteContentEv
WCh:__ZN15dense_hashtableINSt3__24pairIK10KeyWrapperINS1_IPK14Il2CppAssemblyP11Il2CppClassEEEjEES9_17ReflectionMapHashIS8_EN14dense_hash_mapIS9_jSD_NS9_14EqualsComparerINS0_8equal_toIS8_EEEENS0_9allocatorISB_EEE9SelectKeyESI_SK_E15insert_noresizeERKSB_
bSc:__ZN5physx6shdfnd5ArrayIPvNS0_15InlineAllocatorILj256ENS0_19ReflectionAllocatorINS_2Gu31SpherePersistentContactManifoldEEEEEE15growAndPushBackERKS2_
ijd:__ZN5physx2Cm18DelegateFanoutTaskINS_2Sc5SceneEXadL_ZNS3_17finalizationPhaseEPNS_10PxBaseTaskEEEE11runInternalEv
yL:__ZNSt3__26vectorI20ProcessCallbackGroupNS_9allocatorIS1_EEEC2ERKS4_
Qa:invoke_vifff
rTb:__Z53Register_UnityEngine_Input_INTERNAL_get_mousePositionv
gJc:__ZN5physx15NpParticleFluid15exportExtraDataERNS_22PxSerializationContextE
eli:_glGetVertexAttribiv__wrapper
Puc:__ZN5physx6shdfnd15atomicDecrementEPVi
He:_emscripten_request_fullscreen
cjd:__ZN5physx2Cm12DelegateTaskINS_2Sc5SceneEXadL_ZNS3_11postCCDPassEPNS_10PxBaseTaskEEEED0Ev
mH:__ZN20LocalFileSystemWebGL6DeleteER13FileEntryDatab
Sce:_Decimal_System_IConvertible_ToUInt16_m1621568250
Je:_emscripten_glDisableVertexAttribArray
Npg:__ZL79Object_t1021602117_CustomAttributesCacheGenerator_Object_Instantiate_m938141395P21CustomAttributesCache
Nm:FUNCTION_TABLE_iiiifiiii
gXf:_TimeSpan_get_TotalMinutes_m1645177229_AdjustorThunk
wv:__ZN4FMOD5Sound15getNumSubSoundsEPi
nka:__ZN4gles23ClearCurrentFramebufferEP7ApiGLESbbbRK10ColorRGBAffi
SFe:__ZN21InterfaceFuncInvoker3IP22ByteU5BU5D_t3397334013S1_iiE6InvokeEjP11Il2CppClassP12Il2CppObjectS1_ii
q6g:__Z34RuntimeInvoker_Vector3_t2243707580PK10MethodInfoPvPS2_
jod:__ZN5physx2Gu11HeightField13releaseMemoryEb
Ue:_emscripten_glDeleteObjectARB
Qf:_IMG_Load
jxe:_UnexceptionalStreamReader_Read_m3839775235
w5:__ZN6prcoreL27StretchGenericFloatBilinearI18TexFormatARGBFloatEEvPKNS_9InnerInfoE
Baf:_RealProxy_SetTargetDomain_m3940877656
g5:__ZN6prcoreL17RemapGenericFloatI17TexFormatRGBAHalf18TexFormatARGBFloatEEvPKNS_9InnerInfoE
Yfe:_Enum_System_IConvertible_ToInt32_m2459904362
Ycd:__ZN5physx24PxsParticleSystemBatcher23scheduleShapeGenerationEPPNS_20PxvParticleSystemSimEPNS_28PxvParticleShapesUpdateInputEjRNS_10PxBaseTaskE
hQe:_ContentInfo__ctor_m3871771681
I2d:_Enumerator__cctor_m298562758
Ore:_DirectoryInfo_Initialize_m2216118894
HLd:_WindowsIdentity_Dispose_m2649088337
DUc:__ZN5physx7NpScene17flushQueryUpdatesEv
tze:_MonoType_GetMethodImpl_m593754598
HHg:_List_1_System_Collections_ICollection_get_SyncRoot_m3733894943_gshared
az:__ZZL31InitializeAudioManagerCallbacksvEN33FixedUpdateAudioFixedUpdatestruct7ForwardEv
kDb:__ZNSt3__26vectorIN9ShaderLab20SerializedSubProgramENS_9allocatorIS2_EEE6assignIPS2_EENS_9enable_ifIXaasr21__is_forward_iteratorIT_EE5valuesr16is_constructibleIS2_NS_15iterator_traitsIS9_E9referenceEEE5valueEvE4typeES9_S9_
fZb:__Z18Transfer_BlittableI8JSONReadLb0E8BitFieldEvRK29SerializationCommandArgumentsR31RuntimeSerializationCommandInfo
Abf:_SoapServices_RegisterInteropXmlType_m2949236705
DEh:__ZNK15dense_hashtableINSt3__24pairIK10KeyWrapperIPK10Il2CppTypeEjEES6_N6il2cpp8metadata14Il2CppTypeHashEN14dense_hash_mapIS6_jSB_NS6_14EqualsComparerINSA_26Il2CppTypeEqualityComparerEEENS0_9allocatorIS8_EEE9SelectKeyESF_SH_E10test_emptyERK24dense_hashtable_iteratorIS8_S6_SB_SJ_SF_SH_E
tTa:__ZN17PersistentManagerC2Eii
mxb:__ZL17Transfer_GUIStyleI18StreamedBinaryReadILb1EELb0EEvRK29SerializationCommandArgumentsR31RuntimeSerializationCommandInfo
_Pd:_String_CharCopy_m2550399897
BHb:__ZN11TypeManager20RegisterNonClassTypeEiP4RTTIPKcS3_
VUc:__ZN5physx7NpScene10unlockReadEv
zBb:__ZN9ShaderLab14SerializedPass8TransferI14SafeBinaryReadEEvRT_
Vy:__ZN12AudioManager16SetListenerPauseEb
wPh:__ZN6il2cpp2vm9Exception25RaiseOutOfMemoryExceptionERKNS_5utils10StringViewIDsEE
OLg:_Collection_1_IsValidItem_m2254106115_gshared
$lf:_TypeBuilder_GetEvent_m3876348075
ea:invoke_viiiiiiiiiii
M8h:___syscall_ret
oWf:_Scheduler__ctor_m3716265742
HHe:_MACAlgorithm_Final_m4076939925
bNh:__ZNSt3__212basic_stringIcNS_11char_traitsIcEENS_9allocatorIcEEE6assignINS_11__wrap_iterIPKcEEEENS_9enable_ifIXaasr21__is_forward_iteratorIT_EE5valuesr38__libcpp_string_gets_noexcept_iteratorISC_EE5valueERS5_E4typeESC_SC_
RVe:_TlsServerKeyExchange_ProcessAsSsl3_m462106368
adb:__ZN11ChannelInfo8TransferI19StreamedBinaryWriteILb0EEEEvRT_
Pwf:_InternalEnumerator_1_System_Collections_IEnumerator_get_Current_m3583252352_gshared
ilb:__ZN23ArchiveStorageConverter24ReadHeaderFromMemoryFileEv
Clf:_EnumBuilder_get_FullName_m2818393911
xGc:__ZN5physx2Sc9ClothCore22setFrictionCoefficientEf
mFa:__ZN14qsort_internal13Partition3WayIP17RODataReplacementi19ROSorterReplacementEENSt3__24pairIT_S6_EES6_S6_T0_T1_
vAc:__ZNK5physx9NpPhysics17getNbConvexMeshesEv
sve:_StreamAsyncResult_get_Done_m2858832609
qUc:__ZNK5physx7NpScene29getContactCorrelationDistanceEv
kTb:__Z34Register_UnityEngine_Gradient_Initv
Ydf:_SerializationEntry_get_Value_m1628109884_AdjustorThunk
WSf:_Array_InternalArray__get_Item_TisUriScheme_t1876590943_m1821482697_gshared
KRf:_Array_Sort_TisIl2CppObject_m1954851512_gshared
lMe:_BigInteger__ctor_m3239748086
JG:__ZN13ScreenManager23SetIsOrientationEnabledE18EnabledOrientationb
twh:__ZL24UnresolvedVirtualCall_57P12Il2CppObjectiPK10MethodInfo
iig:__ZL79Convert_t2607082565_CustomAttributesCacheGenerator_Convert_ToUInt16_m1043031438P21CustomAttributesCache
_gb:__ZN9InputAxis8TransferI19StreamedBinaryWriteILb0EEEEvRT_
TIb:__ZN13ProduceHelperI9TransformLb0EE7ProduceE18MemLabelIdentifier18ObjectCreationMode
Sdc:__ZN5physx6shdfnd8SyncImpl4waitEj
lJf:_DefaultComparer_GetHashCode_m2506382068_gshared
Zdh:_Component_SendMessageUpwards_m19741277
_Of:_Array_InternalArray__ICollection_Add_TisHitInfo_t1761367055_m2956071622_gshared
GCf:_InternalEnumerator_1_MoveNext_m470170271_AdjustorThunk
YQa:__ZN10GameObject23VirtualRedirectTransferER18StreamedBinaryReadILb0EE
ZGg:_Enumerator_get_Current_m2577424081_gshared
kg:_glFrontFace
vdf:_ObjectRecord_get_IsUnsolvedObjectReference_m2202692850
h6e:_FactoryCache_Cleanup_m4130035987
oth:__ZNK15dense_hashtableINSt3__24pairIK10KeyWrapperIPK19Il2CppGenericMethodEPK26Il2CppGenericMethodIndicesEES6_N6il2cpp8metadata23Il2CppGenericMethodHashEN14dense_hash_mapIS6_SA_SE_NS6_14EqualsComparerINSD_26Il2CppGenericMethodCompareEEENS0_9allocatorISB_EEE9SelectKeyESI_SK_E12test_deletedEj
vIb:__ZN13ProduceHelperI19LowerResBlitTextureLb0EE7ProduceE18MemLabelIdentifier18ObjectCreationMode
iWc:__ZN5physx13NpVolumeCache17getNbCachedShapesEv
wKa:__ZNSt3__26vectorI16ShadowCasterData13stl_allocatorIS1_L18MemLabelIdentifier2ELi16EEE21__push_back_slow_pathIKS1_EEvRT_
Yzh:__ZN6il2cpp6icalls8mscorlib6SystemL16GetFieldFromTypeINS_5utils10functional6FilterINSt3__212basic_stringIcNS7_11char_traitsIcEENS7_9allocatorIcEEEENS4_11StringUtils23CaseInsensitiveComparerEEEEEP21Il2CppReflectionFieldP11Il2CppClassSK_iRKT_
l$f:_UInt32_ToString_m1783596809
kTg:_X509ExtensionCollection_get_Item_m4212651995
nNg:_ReadOnlyCollection_1_System_Collections_IList_RemoveAt_m525136953_gshared
x4:__ZN6prcoreL17RemapGenericFloatI17TexFormatRGBFloat18TexFormatRGBAFloatEEvPKNS_9InnerInfoE
MXc:__ZN5physx2Sc5Scene15getRenderBufferEv
q$f:_UInt64_System_IConvertible_ToBoolean_m3012279573_AdjustorThunk
M$g:__Z48RuntimeInvoker_Il2CppObject_StringU26_t638738783PK10MethodInfoPvPS2_
gZf:_Type_get_IsGenericTypeDefinition_m2147901038
ova:__ZN12HandlerChain10ToAbsoluteEPKc
wDg:_ContextAttribute_Freeze_m4133346275
$ie:_GregorianCalendar__ctor_m3794576475
g$f:_UInt32_TryParse_m4283512434
bTh:__ZN15dense_hashtableI10KeyWrapperIP18Il2CppGenericClassES3_N6il2cpp8metadata22Il2CppGenericClassHashEN14dense_hash_setIS3_S6_NS3_14EqualsComparerINS5_25Il2CppGenericClassCompareEEENSt3__29allocatorIS3_EEE8IdentityESA_SD_E8min_sizeEjj
smb:__ZN13MonoBehaviour23VirtualRedirectTransferER19StreamedBinaryWriteILb0EE
Fs:__ZN9AudioClip11CreateSoundEv
vMg:_Collection_1_ConvertItem_m2185647560_gshared
NXf:_TimeSpan_op_Inequality_m257547441
_Uf:_ExecutionContext_GetObjectData_m1456913356
mJh:__ZN14dense_hash_mapI10KeyWrapperINSt3__24pairIPK9FieldInfoP11Il2CppClassEEEj17ReflectionMapHashIS8_ENS9_14EqualsComparerINS1_8equal_toIS8_EEEENS1_9allocatorINS2_IKS9_jEEEEEC2EjRKSB_RKSF_
Yhh:_Object_set_hideFlags_m2204253440
OEh:__ZNK15dense_hashtableINSt3__24pairIK10KeyWrapperINS1_IPK10MethodInfoP11Il2CppClassEEEjEES9_17ReflectionMapHashIS8_EN14dense_hash_mapIS9_jSD_NS9_14EqualsComparerINS0_8equal_toIS8_EEEENS0_9allocatorISB_EEE9SelectKeyESI_SK_E13find_positionERSA_
ulf:_EnumBuilder_get_Assembly_m4285228003
Uub:__Z18Transfer_BlittableI19StreamedBinaryWriteILb0EELb0E8Vector2fEvRK29SerializationCommandArgumentsR31RuntimeSerializationCommandInfo
Uke:_DateTimeFormatInfo_get_RoundtripPattern_m562440017
MCd:__ZN11UnityEngine7Connect16PersistentValues13RestoreValuesER8JSONRead
Wwa:__ZN20ArchiveStorageReader31TryToReadDirectoryFromBlockDataEyPKvj
Xee:_Double_System_IConvertible_ToByte_m3004284950_AdjustorThunk
Ebf:_TypeEntry_get_AssemblyName_m1762285107
ved:__ZNK5physx2Gu11HeightField17getHeightInternalEff
ESh:__ZN6il2cpp2vmL11GetIdentityEP14Il2CppIUnknown
gHe:_SmallXmlParser_ReadCDATASection_m2558307107
f2h:_GC_push_gc_structures
KTc:__ZNK5physx7NpScene22getClientBehaviorFlagsEh
i$e:_ServicePointManager_get_ServerCertificateValidationCallback_m1409951209
aBc:__ZN5physx9NpFactory14createMaterialEfff
h0b:__ZNK5physx3Cct13BoxController8getStatsERNS_17PxControllerStatsE
$3d:_Enumerator_get_Current_m1271212567
oA:__ZN5physx5cloth11PhaseConfigC2Et
Pqa:__Z22GetShaderCachePathGLESv
ryd:__ZN13PhysicsModule21OverlapBoxUserCollectERK8Vector3fS2_RK11Quaternionfi23QueryTriggerInteractionRN8IPhysics12IUserCollectE
j0b:__ZN5physx3Cct13BoxControllerD2Ev
Y$e:_IPAddress_ParseIPV6_m2209709575
uSc:__ZThn8_N5physx2Sc19ShapeInstancePairLLD0Ev
v9c:__ZN5physx19PxcContactSphereBoxERKNS_2Gu13GeometryUnionES3_RKNS_11PxTransformES6_RKfRNS_10PxcNpCacheERNS0_13ContactBufferE
YTc:__ZNK5physx7NpScene21getBroadPhaseCallbackEh
vjc:__ZN5physx6shdfnd5ArrayIPNS_12PxConstraintENS0_19ReflectionAllocatorIS3_EEE15growAndPushBackERKS3_
Cqa:__ZNSt3__26vectorIPN19ConstantBuffersGLES11ConstBufferENS_9allocatorIS3_EEE21__push_back_slow_pathIKS3_EEvRT_
Cqc:__ZNK5physx2Sc15ArticulationSim11checkResizeEv
VM:__ZN8keywords6CreateEPKc
z4b:__ZN5physx2Gu11gjkRelativeINS0_8CapsuleVENS0_11ConvexHullVEEEjRKT_RKT0_RKNS_6shdfnd3aos15PsMatTransformVERNSB_5Vec3VESG_SG_RNSB_6FloatVE
cWg:__Z89RuntimeInvoker_Il2CppObject_Il2CppObject_Int32_t2071877448_Int32_t2071877448_Il2CppObjectPK10MethodInfoPvPS2_
qub:__ZN24GenerateTypeTreeTransfer8TransferINSt3__26vectorI17AnimationCurveTplIfE13stl_allocatorIS4_L18MemLabelIdentifier1ELi16EEEEEEvRT_PKc17TransferMetaFlags
S:Math_imul
jcb:__ZN11PlayerPrefs6GetIntERKN4core12basic_stringIcNS0_20StringStorageDefaultIcEEEEi
lMd:_SecurityFrame_t1002202659_marshal_pinvoke_back
ajh:_Physics_Raycast_m2036777053
ggh:_PlayableHandle_Equals_m1435096530
$oe:_Int32_Equals_m321398519_AdjustorThunk
y2d:_Hashtable_ContainsKey_m2716576664
Qtg:_PatternCompiler_EmitCategory_m1696942454
bde:_Decimal_decimalFloorAndTrunc_m3655683429
pPf:_Array_InternalArray__ICollection_CopyTo_TisInt32_t2071877448_m984622488_gshared
rK:__ZN18ScriptingArguments9AddObjectE18ScriptingObjectPtr
NA:__ZN11UnityEngine15CloudWebService16SessionContainerD2Ev
wii:_emscripten_glStencilOpSeparate__wrapper
Aka:__ZN17GenericDynamicVBOC2ER9GfxDevice13GfxBufferModejj
VCg:_Context_get_HasDynamicSinks_m1998518649
$Pc:__ZNK5physx2Sc5Scene7isValidEv
eC:__ZN11UnityEngine15CloudWebService17SessionEventQueue10PurgeItemsEj
$Vc:__ZN5physx2Sq17SceneQueryManager29setDynamicTreeRebuildRateHintEj
xPa:__ZN6Camera16StandaloneRenderENS_10RenderFlagEP6ShaderRKN4core12basic_stringIcNS3_20StringStorageDefaultIcEEEE
tTd:_Array_System_Collections_IList_get_Item_m2088124007
NTd:_Array_GetLength_m2083296647
lfg:__ZL58SecurityElement_t2325568386_CustomAttributesCacheGeneratorP21CustomAttributesCache
J7a:__ZNK12CubemapArray13GetIsReadableEv
m0d:_SynchronizedArrayListWrapper_ToArray_m1522185111
T3g:__Z55RuntimeInvoker_TimeSpan_t3430258949_DateTime_t693205669PK10MethodInfoPvPS2_
Nwb:__Z18Transfer_BlittableI18StreamedBinaryReadILb1EELb1EtEvRK29SerializationCommandArgumentsR31RuntimeSerializationCommandInfo
MLd:_SecurityContext_get_FlowSuppressed_m420202521
yfa:__ZN9GfxDevice20DeallocRenderSurfaceEP17RenderSurfaceBase
rpc:__ZN5physx6shdfnd5ArrayIPvNS0_19ReflectionAllocatorINS_18NpArticulationLinkEEEE4copyINS0_15InlineAllocatorILj256ES5_EEEEvRKNS1_IS2_T_EE
e1f:_ValueType_ToString_m3796301715
G0b:__ZNK5physx3Cct10Controller12getKineShapeEv
s1g:__Z62RuntimeInvoker_Int64_t909078037_Il2CppObject_Int32_t2071877448PK10MethodInfoPvPS2_
Jwh:__ZL24UnresolvedVirtualCall_73P12Il2CppObjectPK10MethodInfo
Lhc:__ZN5physx6shdfnd4sortIPvNS0_4LessIS2_EENS0_19ReflectionAllocatorINS_2Sc18TriggerInteractionEEEEEvPT_jRKT0_RKT1_j
d2a:__ZN12BaseRenderer23RendererBecameInvisibleEv
kOc:__ZNK5physx2Sc8BodyCore14getMaxAngVelSqEv
Hub:__Z29Transfer_Blittable_ArrayFieldI24GenerateTypeTreeTransferfEvRT_R9ArrayInfoRK23StaticTransferFieldInfo
i2g:__Z51RuntimeInvoker_Single_t2076509932_Int16_t4041245914PK10MethodInfoPvPS2_
pSa:__ZN19CustomRenderTexture9AddParentE4PPtrIS_E
zbb:__ZN8Gradient8TransferI14SafeBinaryReadEEvRT_
O_g:__Z41RuntimeInvoker_StackBehaviour_t1390406961PK10MethodInfoPvPS2_
w1:__ZNSt3__26vectorIN4core12basic_stringIcNS1_20StringStorageDefaultIcEEEE13stl_allocatorIS5_L18MemLabelIdentifier1ELi16EEE7reserveEj
m$e:_FileWebRequest__ctor_m4003648606
Iah:__Z34RuntimeInvoker_HitInfo_t1761367055PK10MethodInfoPvPS2_
_fe:_Enum_System_IConvertible_ToSByte_m3488526280
ppf:_TypeBuilder_ToString_m1952363535
Lhh:_MonoBehaviour_StopAllCoroutines_m1675795839
Oaa:__ZN18IDCollectorFunctorD0Ev
uad:__ZN5physx2Gu32PCMConvexVsMeshContactGeneration15processTriangleEPKNS_6PxVec3EjhPKj
Hpg:__ZL82Object_t1021602117_CustomAttributesCacheGenerator_Object_DestroyObject_m2343493981P21CustomAttributesCache
fH:__ZNK20LocalFileSystemPosix9IsSymLinkERK13FileEntryData
$0h:_GC_new_free_list_inner
aJf:_DefaultComparer_Equals_m85211180_gshared
lze:_MonoType_InternalGetEvent_m532443236
Ydd:__ZN5physx6shdfnd5ArrayINS_2Cm8Matrix34ENS0_19ReflectionAllocatorIS3_EEE15growAndPushBackERKS3_
Bad:__ZN5physx2Gu32PCMConvexVsMeshContactGeneration31generatePolyDataContactManifoldERNS0_9TriangleVEjjhPNS0_21MeshPersistentContactERjRKNS_6shdfnd3aos6FloatVERNS8_5Vec3VE
eqd:__ZN5physx10SubSortSAH5splitEPjj
RZb:__ZN8JSONRead8TransferI10RectOffsetEEvRT_PKc17TransferMetaFlagsb
hUh:__ZNK15dense_hashtableINSt3__24pairIK10KeyWrapperINS1_IPKcS4_EEEiEES6_24NamespaceAndNamePairHashN14dense_hash_mapIS6_iS9_NS6_14EqualsComparerI26NamespaceAndNamePairEqualsEENS0_9allocatorIS8_EEE9SelectKeyESD_SF_E12test_deletedERK24dense_hashtable_iteratorIS8_S6_S9_SH_SD_SF_E
OB:__ZN9JSONWrite8TransferIN11UnityEngine15CloudWebService14DataErrorEvent15FileErrorDetailEEEvRT_PKc17TransferMetaFlags
CQd:_Decoder__ctor_m2623573910
Aaa:__Z21ClearFenceWithoutSyncR8JobFence
$5b:__ZN5physx2Gu3EPA8addFacetEjjjRKNS_6shdfnd3aos6FloatVES6_
Bv:__ZN12SoundManager20RegisterModifiedClipEP10SampleClip
egb:__ZN12MeshRenderer15AddAsRenderNodeER15RenderNodeQueueRK20DeprecatedSourceData
OXg:__Z108RuntimeInvoker_Void_t1841601450_Il2CppObject_Int64_t909078037_Il2CppObject_Int64_t909078037_Int64_t909078037PK10MethodInfoPvPS2_
Jdc:__ZN5physx3Cct9CCTParamsC2Ev
jrh:__ZN15dense_hashtableI10KeyWrapperIPK17Il2CppGenericInstES4_N6il2cpp8metadata21Il2CppGenericInstHashEN14dense_hash_setIS4_S7_NS4_14EqualsComparerINS6_24Il2CppGenericInstCompareEEENSt3__29allocatorIS4_EEE8IdentityESB_SE_E13set_empty_keyERKS4_
YDc:__ZN5physx7NpCloth21setStiffnessFrequencyEf
eH:__ZNK20LocalFileSystemPosix8IsHiddenERK13FileEntryData
Y2c:__ZN5physx17PxcSweepBoxConvexERKNS_11PxsCCDShapeES2_PKNS_12PxsRigidBodyES5_RKNS_11PxTransformES8_S8_S8_fRNS_6PxVec3ESA_RNS_10PxcNpCacheERNS_18PxcNpThreadContextEf
qmd:__ZThn8_N5physx2Gu11HeightField14onRefCountZeroEv
cSg:_X501__cctor_m2610532554
dhc:__ZN5physx2Sc5Actor9setActiveEbj
$Pd:_StringComparer__ctor_m2275216983
h8a:__ZN7Cubemap23VirtualRedirectTransferER18StreamedBinaryReadILb0EE
RSe:_RecordProtocol_EncodeRecord_m3884270352
iae:_DateTime_System_IConvertible_ToType_m3821835592
zhc:__ZN5physx2Sc10NPhaseCore28reserveContactReportPairDataEjjRj
e9d:_Convert_ToUInt32_m776714429
F4b:__ZN5physx2Gu22barycentricCoordinatesERKNS_6shdfnd3aos5Vec3VES5_S5_RNS2_6FloatVE
Qta:__ZN12FileAccessor4SeekEx10FileOrigin
Htb:__ZL26Transfer_SimpleNativeClassI24GenerateTypeTreeTransfer17AnimationCurveTplIfELb0EEvRK29SerializationCommandArgumentsR31RuntimeSerializationCommandInfo
ADc:__ZN5physx15NpActorTemplateINS_7PxClothEE12setActorFlagENS_11PxActorFlag4EnumEb
yod:__ZL18TestUnifiedNormalsjPKN5physx6PxVec3EjPNS_2Gu9TriangleTIjEEb
Hsh:__ZN15dense_hashtableINSt3__24pairIK10KeyWrapperI13dynamic_arrayIPK10Il2CppTypeLj4EEEPFvvEEES8_N6il2cpp8metadata19Il2CppSignatureHashEN14dense_hash_mapIS8_SB_SF_NS8_14EqualsComparerINSE_22Il2CppSignatureCompareEEENS0_9allocatorISC_EEE9SelectKeyESJ_SL_E4swapERSO_
yeh:_Coroutine_t2299508840_marshal_pinvoke
JT:__ZN16LightmapSettings20DidChangeActiveSceneEP10UnitySceneS1_
F4a:__ZNK17InstancedPropInfo15RenderInstancesERK15RenderNodeQueuePK17BatchInstanceDataj17ShaderChannelMask
hzh:__ZN6il2cpp5utils9PathUtils8BasenameIcEENSt3__212basic_stringIT_NS3_11char_traitsIS5_EENS3_9allocatorIS5_EEEERKSA_
Uw:__ZN10AudioMixer11SetupGroupsEv
TBg:_ClientIdentity_CreateObjRef_m3625915063
fIe:_PrivateKeyInfo_DecodeRSA_m1427048948
IPh:__ZN6il2cpp2vm9Exception23GetInvalidCastExceptionERKNS_5utils10StringViewIDsEE
sNe:_BigInteger_op_GreaterThanOrEqual_m2643115413
Mif:_Assembly_FillName_m1934025015
uza:_UNITY_png_free
Rqe:_IntPtr_op_Explicit_m1073656736
Dgi:_emscripten_glDepthRange__wrapper
OOd:_String_IndexOf_m2126171214
oqe:_Int64_ToString_m1544341651_AdjustorThunk
$kd:__ZNK5physx13GuMeshFactory17getNbConvexMeshesEv
ome:_Guid_CheckNull_m2903986431
lkg:__ZL62CrossContextDelegate_t754146990_CustomAttributesCacheGeneratorP21CustomAttributesCache
bO:__Z63ThreadAndSerializationSafeCheckGetMonoBehaviourBeingTransferredv
L3h:_GC_enable
MUe:_TlsClientCertificateVerify_ProcessAsSsl3_m3377063356
eYg:__Z97RuntimeInvoker_Il2CppObject_Il2CppObject_Int32_t2071877448_Il2CppObject_Il2CppObject_Il2CppObjectPK10MethodInfoPvPS2_
rse:_EndOfStreamException__ctor_m4268387737
q_f:_UInt16_ToString_m4213290405
vdg:__ZL59StreamingContext_t1417235061_CustomAttributesCacheGeneratorP21CustomAttributesCache
qBg:_ChannelServices_RegisterChannel_m3832858065
fge:_Enum_GetName_m1226611481
U$g:__Z113RuntimeInvoker_Il2CppObject_Byte_t3683104436_Il2CppObject_SByte_t454417549_Il2CppObject_Il2CppObject_Il2CppObjectPK10MethodInfoPvPS2_
oLh:__ZN24dense_hashtable_iteratorINSt3__24pairIK10KeyWrapperINS1_IP11Il2CppClassjEEES4_EES6_N6il2cpp8metadata14ArrayClassHashEN14dense_hash_mapIS6_S4_SB_NS6_14EqualsComparerINSA_17ArrayClassCompareEEENS0_9allocatorIS8_EEE9SelectKeyESF_SH_E30advance_past_empty_and_deletedEv
odb:__ZN14Texture2DArray23VirtualRedirectTransferER18StreamedBinaryReadILb0EE
wwg:_Literal_CompileLiteral_m276843152
Ifd:__ZN5physx23PxsSolverSetupSolveTaskD2Ev
UJa:__ZN14qsort_internal30FindAndMovePivotToLastPositionIP20ShadowCasterSortDatai26ShadowCasterSortDataSorterEEvT_S4_T0_T1_
Cob:__Z18Transfer_BlittableI14SafeBinaryReadLb1EiEvRK29SerializationCommandArgumentsR31RuntimeSerializationCommandInfo
wzg:_DefaultDependencyAttribute__ctor_m107693037
lba:__ZN17PersistentManager13GetAllFileIDsERKN4core12basic_stringIcNS0_20StringStorageDefaultIcEEEER13dynamic_arrayIxLj8EE
t1g:__Z72RuntimeInvoker_Il2CppObject_IntPtr_t_Int32_t2071877448_Int32_t2071877448PK10MethodInfoPvPS2_
XBh:_il2cpp_field_get_offset
uaf:_ProxyAttribute_GetPropertiesForNewContext_m3587421540
NUd:_Array_LastIndexOf_m4096535198
q_d:_ArrayList_Add_m1719188324
eyc:__ZN18MultiQueryCallbackIN5physx12PxOverlapHitEE6invokeERfPKNS0_2Sq13PrunerPayloadEj
zfi:dynCall_vifiiiiiiiiiiiiiiiiiiiiiii
lfe:_Double_System_IConvertible_ToSByte_m1653690240_AdjustorThunk
n8b:__ZN5physx2Gu18gjkRelativeRayCastINS0_4BoxVES2_NS0_10ShrunkBoxVES3_EEbRT_RT0_RKNS_6shdfnd3aos15PsMatTransformVERKNS9_6FloatVERKNS9_5Vec3VESI_RSD_RSG_SK_fb
uk:_glGetStringi
FIc:__ZN5physx22NpParticleBaseTemplateINS_15PxParticleFluidENS_15NpParticleFluidEE14setRestitutionEf
Ndb:__ZN18StreamedBinaryReadILb0EE21TransferSTLStyleArrayI13dynamic_arrayI8Vector4fLj4EEEEvRT_17TransferMetaFlags
U3e:_X509Store__ctor_m1573680316
h4e:_X509Chain_get_CertificateCollection_m324631835
sNf:_Array_InternalArray__IndexOf_TisClientCertificateType_t4001384466_m1168139450_gshared
s8g:__Z49RuntimeInvoker_Int32_t2071877448_Link_t2723257478PK10MethodInfoPvPS2_
Bmf:_FieldBuilder_get_Name_m2243491233
SDa:__ZN9Coroutine16SetCurrentMethodE18ScriptingMethodPtr
oLd:_StringBuilder_Append_m3618697540
uG:__ZN13ScreenManager16SetScreenTimeoutEi
xsb:__Z18Transfer_BlittableI17RemapPPtrTransferLb0EdEvRK29SerializationCommandArgumentsR31RuntimeSerializationCommandInfo
Vve:_StreamWriter__ctor_m4232641237
KId:_SymmetricAlgorithm_set_IV_m4262655606
tkf:_CustomAttributeNamedArgument_GetHashCode_m3715408876_AdjustorThunk
m3e:_X509Certificate2_AppendBuffer_m3517242299
RNa:__Z35IntersectSpherePlaneBoundsOptimizedRKN4math7_float4EPS1_i
Mie:_CultureInfo_get_IsNeutralCulture_m3874876470
Rde:_Delegate_CreateDelegate_m3813023227
P$g:__Z46RuntimeInvoker_WellKnownObjectMode_t2630225581PK10MethodInfoPvPS2_
vfc:__ZN5physx2Sc8ShapeSim20createLowLevelVolumeEjRKNS_9PxBounds3EjNS_9AABBMgrIdE
Hyg:_Uri_get_AbsoluteUri_m2120317928
bEc:__ZNK5physx7NpCloth22getAngularInertiaScaleEv
yBf:_InternalEnumerator_1_Dispose_m1676985532_AdjustorThunk
aac:__ZN26IntersectAnyVsMeshCallbackILi1ELb1EE10processHitERKN5physx12PxRaycastHitERKNS1_6PxVec3ES7_S7_RfPKj
mT:__Z22CleanupLODGroupManagerPv
uXc:__ZN5physx6shdfnd5ArrayINS_2Sc5Scene14SimpleBodyPairENS0_19ReflectionAllocatorIS4_EEE8recreateEj
dl:_glUniform3fv
Wib:__ZNSt3__218__insertion_sort_3IRN15ResourceManager10Dependency6SorterEPS2_EEvT0_S6_T_
gCf:_InternalEnumerator_1_System_Collections_IEnumerator_Reset_m3249248421_AdjustorThunk
Wye:_IntComparer_Compare_m3057931085
BIa:__ZNK16LightmapSettings31GetRealtimeLightmapDecodeValuesEv
px:__ZN5audio5mixer12SetSuspendedERNS0_16AudioMixerMemoryEb
b7:__ZN17PersistentManager21UnloadNonDirtyStreamsEv
JWg:__Z78RuntimeInvoker_Int32_t2071877448_DecimalU26_t1613489971_DecimalU26_t1613489971PK10MethodInfoPvPS2_
qRh:__ZN6il2cpp2vm13LivenessStateC2EP11Il2CppClassjPFvPP12Il2CppObjectiPvES7_PFvvESB_
D1e:_Oid__ctor_m1936781897
pih:_Object_INTERNAL_CALL_Internal_InstantiateSingleWithParent_m1401308849
Buf:_ResourceSet__ctor_m1222864106
Iid:__ZN5physx2Sc5Scene13ccdBroadPhaseEPNS_10PxBaseTaskE
jUg:__Z44RuntimeInvoker_Int64_t909078037_Il2CppObjectPK10MethodInfoPvPS2_
zl:_emscripten_glDepthMask
wad:__ZN5physx2Gu24PCMMeshContactGeneration15processContactsEhb
q2f:__ZL76UInt16_t986882611_CustomAttributesCacheGenerator_UInt16_TryParse_m1818885113P21CustomAttributesCache
Fla:__ZN4crnd25static_huffman_data_model22prepare_decoder_tablesEv
d9a:__ZN9Texture2D23VirtualRedirectTransferER17RemapPPtrTransfer
aKb:__ZN16ReflectionProbesD2Ev
DRf:_Array_Sort_TisIl2CppObject_TisIl2CppObject_m1915706600_gshared
RMe:_ModulusRing_Difference_m662924064
JBf:_InternalEnumerator_1_MoveNext_m1869236997_gshared
uJ:__ZL22CleanupUnityWebStreamsPv
ntg:_Regex_get_RightToLeft_m529734879
Tyb:__Z18Transfer_BlittableI18StreamedBinaryReadILb0EELb0E10ColorRGBAfEvRK29SerializationCommandArgumentsR31RuntimeSerializationCommandInfo
j_e:_ListDictionary_Add_m4276262662
OT:__Znaj
ZFd:_RIPEMD160Managed_GGG_m1639995340
Umi:_emscripten_glEnableClientState__wrapper
HJ:__ZN17MessageIdentifierC2EPKcNS_7OptionsEPKN5Unity4TypeES1_
I6h:__ZN6il2cpp6icalls8mscorlib4Mono8Security12Cryptography18KeyPairPersistence15_ProtectMachineEP12Il2CppString
bMf:_Enumerable_Any_TisIl2CppObject_m2208185096_gshared
iZg:__Z57RuntimeInvoker_DSAParameters_t1872138834_SByte_t454417549PK10MethodInfoPvPS2_
Z1a:__ZN11GameManager15ThreadedCleanupEv
L4c:__ZN5physxL26solveFriction4_StaticBlockEPKNS_23PxcSolverConstraintDescERNS_16PxcSolverContextE
GTd:_Array_System_Collections_IList_Remove_m2438892375
Wve:_TextWriter__ctor_m2225796097
Lug:__ZN21InterfaceFuncInvoker0IP24StringU5BU5D_t1642385972E6InvokeEjP11Il2CppClassP12Il2CppObject
_Ya:__ZN14SafeBinaryRead8TransferI14ConstantStringEEvRT_PKc17TransferMetaFlags
vlh:_ScriptableObject_Internal_CreateScriptableObject_m1778903390
p9c:__ZN5physx30PxcGetMaterialShapeHeightFieldEPKNS_12PxsShapeCoreES2_RNS_18PxcNpThreadContextEPNS_15PxsMaterialInfoE
D_:__ZNK6Camera16GetStereoEnabledEv
JKb:__ZN12LightManager15InitializeClassEv
rjd:__ZN5physx6shdfnd8PoolBaseINS_2Sc19ParticlePacketShapeENS0_19ReflectionAllocatorIS3_EEE12allocateSlabEv
D$:__ZN9ShaderLab11shaderprops16GetComputeBufferEPK19ShaderPropertySheetS3_NS_16FastPropertyNameE
HP:__ZN23ManagedAttributeManager35CallManagedGetDefaultExecutionOrderE17ScriptingClassPtr
VXf:_TimeZone_IsDaylightSavingTime_m875882154
Wvf:_ArrayReadOnlyList_1_Insert_m503707439_gshared
uii:_emscripten_glBlendFuncSeparate__wrapper
_Wg:__Z52RuntimeInvoker_Single_t2076509932_Decimal_t724701077PK10MethodInfoPvPS2_
GRe:_CipherSuiteCollection_System_Collections_IList_set_Item_m750275607
yDa:__ZNK25CameraStackRenderingState27GetStereoImageEffectTextureEb
sHd:_SHA1CryptoServiceProvider__ctor_m3127563759
vp:__ZN8Vector3f8TransferI14SafeBinaryReadEEvRT_
eo:FUNCTION_TABLE_ii
AD:__ZNSt3__26__treeINS_12__value_typeIN4core12basic_stringIcNS2_20StringStorageDefaultIcEEEES6_EENS_19__map_value_compareIS6_S7_NS_4lessIS6_EELb1EEENS_9allocatorIS7_EEE16__construct_nodeERKNS_4pairIKS6_S6_EE
SWb:__Z18Transfer_BlittableI9JSONWriteLb0E8BitFieldEvRK29SerializationCommandArgumentsR31RuntimeSerializationCommandInfo
k$f:_UInt32_ToString_m3894907091_AdjustorThunk
nb:invoke_diiii
f9b:__ZL17sweepVolumeVsMeshPKN5physx3Cct9SweepTestEPKNS0_11TouchedMeshERNS0_12SweptContactERKNS_6PxVec3ERKNS_10PxGeometryERKNS_11PxTransformEjPKNS_10PxTriangleEj
ZFf:_ShimEnumerator_get_Key_m616785465_gshared
YGe:_SmallXmlParser_Error_m1832158746
c7e:_RepeatContext_get_IsLazy_m1620488045
tk:_glDeleteVertexArrays
Kdd:__ZN5physx2Gu31checkOverlapOBB_heightFieldGeomERKNS_10PxGeometryERKNS_11PxTransformERKNS0_3BoxE
pVa:__Z24CreateDirectoryRecursiveRKN4core12basic_stringIcNS_20StringStorageDefaultIcEEEE
fEb:__ZN9ShaderLab20SerializedSubProgram8TransferI18StreamedBinaryReadILb0EEEEvRT_
wve:_StreamAsyncResult_get_AsyncWaitHandle_m4218169359
Sgi:b40
X1b:__ZN5physx2Gu23findRotationMatrixFromZERKNS_6PxVec3E
AMa:__Z9EndJobSetR8JobFence11JobPriority
QVe:_TlsServerSettings_set_SignedParams_m1826385315
_9:__ZN9Texture3D8TransferI19StreamedBinaryWriteILb0EEEEvRT_
PEa:__ZNK6Camera22CalculateRenderingPathEv
gYb:__ZN9JSONWrite8TransferI5RectTIfEEEvRT_PKc17TransferMetaFlags
gWc:__ZN5physx13NpVolumeCache10invalidateEv
kQe:_ContentInfo_get_Content_m1802070908
Bsb:__ZL12InvokeMethodI17RemapPPtrTransferEvRK29SerializationCommandArgumentsR31RuntimeSerializationCommandInfo
uKe:_X509Certificate_get_PublicKey_m714501701
$Od:_String_LastIndexOf_m290475879
rCf:_InternalEnumerator_1_System_Collections_IEnumerator_get_Current_m1658267053_gshared
GKh:__ZN15dense_hashtableINSt3__24pairIK10KeyWrapperIP11Il2CppClassES4_EES5_N6il2cpp8metadata16SZArrayClassHashEN14dense_hash_mapIS5_S4_SA_NS5_14EqualsComparerINS9_19SZArrayClassCompareEEENS0_9allocatorIS7_EEE9SelectKeyESE_SG_EC2EjRKSA_RKSE_RKSI_
sIc:__ZN5physx22NpParticleBaseTemplateINS_15PxParticleFluidENS_15NpParticleFluidEE12setPositionsEjRKNS_16PxStrideIteratorIKjEERKNS4_IKNS_6PxVec3EEE
Mwe:_TextReader_Read_m975794707
l4h:__ZN6il2cpp6icalls8mscorlib6System9Threading16NativeEventCalls20CreateEvent_internalEbbP12Il2CppStringPb
Wfc:__ZN5physx6shdfnd5ArrayIPvNS0_19ReflectionAllocatorINS_2Sc10NPhaseCore16ClothListElementEEEE15growAndPushBackERKS2_
u$f:_UInt64_System_IConvertible_ToChar_m1930853313_AdjustorThunk
HUe:_TlsClientCertificate_SendCertificates_m1096074091
h3d:_SyncHashtable_get_Item_m408601391
Rdg:__ZL45DSA_t903174880_CustomAttributesCacheGeneratorP21CustomAttributesCache
EYa:__ZNK9Behaviour26GetTypeInfoVirtualInternalEv
zKg:_Stack_1_System_Collections_ICollection_CopyTo_m2104527616_gshared
BSd:_StringBuilder_AppendFormat_m1666670800
TKa:__ZN18DeferredRenderLoop13RenderGBufferEP13RenderTexturePS1_b8JobFencePK25DeferredRenderLoopScratchRi
isb:__Z18Transfer_BlittableI17RemapPPtrTransferLb1E8BitFieldEvRK29SerializationCommandArgumentsR31RuntimeSerializationCommandInfo
rOh:__ZN6il2cpp6icalls8mscorlib6System9ThreadingL11ThreadStartEPv
LL:__ZN15DirectorManager12OnSampleTimeEv
$Ke:_AttrListImpl_GetName_m1919558736
f_:__ZN12CachedReader10Align4ReadEv
Eyg:_Uri_op_Equality_m110355127
aQh:__ZN6il2cpp2vm9Exception28GetMarshalDirectiveExceptionEPKc
$ze:_MulticastDelegate_GetObjectData_m3187757658
Myc:__ZN5physx2Sc14ConstraintCore13setBreakForceEff
aGa:__Z21GetScriptingArraySize17ScriptingArrayPtr
D7g:__Z59RuntimeInvoker_Boolean_t3825574718_KeyValuePair_2_t38854645PK10MethodInfoPvPS2_
lWa:__ZNSt3__26__treeINS_12__value_typeIN4core12basic_stringIcNS2_20StringStorageDefaultIcEEEEPN16MemoryFileSystem4NodeEEENS_19__map_value_compareIS6_SA_NS_4lessIS6_EELb1EEE13stl_allocatorISA_L18MemLabelIdentifier54ELi16EEE4findIS6_EENS_15__tree_iteratorISA_PNS_11__tree_nodeISA_PvEEiEERKT_
qga:__ZN9GfxDevice17ImmediateTexCoordEifff
Oug:_Parser_ParseRegularExpression_m2390577313
Tmf:_GenericTypeParameterBuilder_GetFields_m1855948450
Zvg:_Alternation_AddAlternative_m623421443
J4e:_X509CertificateEnumerator_System_Collections_IEnumerator_Reset_m327358896
bbh:__Z36RuntimeInvoker_Enumerator_t402048720PK10MethodInfoPvPS2_
fPf:_Array_InternalArray__ICollection_CopyTo_TisKeyValuePair_2_t1174980068_m1818152223_gshared
bLd:_Hash__ctor_m2554411450
_je:_NumberFormatter_AppendDigits_m1308372770
O$a:__ZN17FileSystemHandler4CopyER13FileEntryDataS1_
VMd:_Single_System_IConvertible_ToDateTime_m2510003459_AdjustorThunk
hee:_Delegate_RemoveImpl_m3666700529
ugi:_emscripten_glUniform4f__wrapper
C_e:_NameObjectCollectionBase_OnDeserialization_m3478980442
Lgd:__ZN5physx6shdfnd5ArrayINS_25PxcThresholdStreamElementENS0_19ReflectionAllocatorIS2_EEE8recreateEj
uHa:__ZNK6Camera16GetProjectionFarEv
GPa:__Z24InverseTransformRotationRK23TransformAccessReadOnlyRKN4math7_float4E
kfg:__ZL68SecurityCriticalAttribute_t2312050089_CustomAttributesCacheGeneratorP21CustomAttributesCache
Zxe:_MissingFieldException__ctor_m1161042282
hSe:_Context_get_ClientSettings_m1185615112
daa:__ZN7Texture34CreateFileTextureUploadInstructionE18TextureUploadFlagsj
ega:__ZN9GfxDevice21ResetDynamicResourcesEv
WBa:__ZN13ComputeShader14SetBufferParamEjRKN9ShaderLab16FastPropertyNameE15ComputeBufferID
cFc:__ZN5physx7NpCloth21setCollisionMassScaleEf
Zdd:__ZN5physx6shdfnd5ArrayINS_7PxPlaneENS0_19ReflectionAllocatorIS2_EEE8recreateEj
qef:_StreamingContext__ctor_m3063421596_AdjustorThunk
vyd:__ZN13PhysicsModule17GetRigidBodyStateERK9RigidbodyPN8IPhysics14RigidBodyStateE
D1d:_DictionaryEntry_get_Key_m3623293571
AIb:__ZN19LowerResBlitTexture13ApplySettingsEv
q3f:__ZL70IntPtr_t_CustomAttributesCacheGenerator_IntPtr_op_Explicit_m3896766622P21CustomAttributesCache
qKh:__ZN15dense_hashtableINSt3__24pairIK10KeyWrapperIP11Il2CppClassES4_EES5_N6il2cpp8metadata16SZArrayClassHashEN14dense_hash_mapIS5_S4_SA_NS5_14EqualsComparerINS9_19SZArrayClassCompareEEENS0_9allocatorIS7_EEE9SelectKeyESE_SG_E4swapERSJ_
k1a:__ZN17GlobalGameManager23VirtualRedirectTransferER18StreamedBinaryReadILb0EE
iBf:_InternalEnumerator_1__ctor_m4063293236_gshared
Gia:__ZNK13TranslateGLES6EnableEN2gl10EnabledCapE
Bz:__ZN16BaseVideoTexture19UpdateVideoTexturesEv
I4a:__Z28BuildSingleStreamChannelInfo17ShaderChannelMaskRK20VertexChannelsLayoutS_S2_P11ChannelInfo
I8:__ZNK16LightmapSettings23HasLightProbeTetrahedraEv
UTe:_Context_get_WriteSequenceNumber_m243492531
tcb:__ZN6Sprite23VirtualRedirectTransferER19StreamedBinaryWriteILb0EE
a9f:__ZL51Assembly_t4268412390_CustomAttributesCacheGeneratorP21CustomAttributesCache
UOd:_String_LastIndexOfAny_m1473637802
r1f:_Version_CompareTo_m596235198
RDh:__ZNK15dense_hashtableINSt3__24pairIK10KeyWrapperINS1_IPK9FieldInfoP11Il2CppClassEEEjEES9_17ReflectionMapHashIS8_EN14dense_hash_mapIS9_jSD_NS9_14EqualsComparerINS0_8equal_toIS8_EEEENS0_9allocatorISB_EEE9SelectKeyESI_SK_E5beginEv
V$:__ZNK9ShaderLab7Program19HasMatchingVariantsERK13dynamic_arrayI16ShaderKeywordSetLj4EE
Eja:__ZN14DataBufferGLES11CopySubDataEPKS_jjj
$d:_emscripten_glVertexPointer
Usa:__ZNSt3__26__treeI20DeviceDepthStateGLES11memcmp_lessIS1_S1_ENS_9allocatorIS1_EEE7destroyEPNS_11__tree_nodeIS1_PvEE
NJg:_List_1_System_Collections_Generic_ICollectionU3CTU3E_get_IsReadOnly_m1614481629_gshared
uzh:__ZN6il2cpp2vm7Runtime47RaiseExecutionEngineExceptionIfMethodIsNotFoundEPK10MethodInfo
AKa:__Z17GetFrustumPortionPK8Vector3fffPS_
Kic:__ZNK5physx2Gu22SupportMapRelativeImplINS0_4BoxVEE18doWarmStartSupportEiRNS_6shdfnd3aos5Vec3VE
J0f:_UnauthorizedAccessException__ctor_m259001183
bSh:__ZN15dense_hashtableINSt3__24pairIK10KeyWrapperIP14Il2CppIUnknownEjEES5_N6il2cpp5utils11PointerHashIS3_EEN14dense_hash_mapIS5_jSB_NS5_14EqualsComparerINS0_8equal_toIS4_EEEENS0_9allocatorIS7_EEE9SelectKeyESG_SI_E14squash_deletedEv
Q4a:__ZN5Light13AwakeFromLoadE17AwakeFromLoadMode
x9d:_CultureAwareComparer_Compare_m2587353351
Ahe:_CCGregorianCalendar_is_leap_year_m567513478
i2e:_Oid_get_Value_m2271181078
LVd:_Attribute_IsDefined_m2118467641
nCa:__ZN14GraphicsHelper8DrawQuadER9GfxDevice17ShaderChannelMaskbRK5RectTIfE
eIe:_PrivateKeyInfo_Normalize_m3959595934
Zwf:_InternalEnumerator_1_System_Collections_IEnumerator_get_Current_m3125080595_gshared
cOb:__ZN16StreamedResource8TransferI24GenerateTypeTreeTransferEEvRT_
scc:__ZN5physx3Cct10Controller13onOriginShiftERKNS_6PxVec3E
Zpa:__ZN10Matrix3x3f15InvertTransposeEv
sLf:_Array_InternalArray__ICollection_Remove_TisKeyValuePair_2_t1174980068_m2768765894_gshared
$jb:__ZN24GenerateTypeTreeTransfer8TransferINSt3__26vectorIN4core12basic_stringIcNS3_20StringStorageDefaultIcEEEE13stl_allocatorIS7_L18MemLabelIdentifier12ELi16EEEEEEvRT_PKc17TransferMetaFlags
VRg:_PKCS12_CertificateSafeBag_m3272197807
TUe:_TlsClientCertificateVerify_ProcessAsTls1_m1960818833
t3c:__ZN5physx2Gu19_gjkRelativeRayCastINS0_9TriangleVENS0_11ConvexHullVEEEbRT_RT0_RKNS_6shdfnd3aos15PsMatTransformVERKNS9_6FloatVERKNS9_5Vec3VESI_RSD_RSG_SK_f
trb:__Z29Transfer_Blittable_ArrayFieldI14SafeBinaryRead8Vector3fEvRT_R9ArrayInfoRK23StaticTransferFieldInfo
w_f:_UInt32_System_IConvertible_ToBoolean_m91295134
gVf:_Monitor_Monitor_test_synchronised_m1542589500
DXh:__ZNK6il2cpp5utils11StringUtils23CaseInsensitiveComparerclERKNSt3__212basic_stringIcNS3_11char_traitsIcEENS3_9allocatorIcEEEEPKc
L2f:__ZL75String_t_CustomAttributesCacheGenerator_String_Concat_m626692867____values0P21CustomAttributesCache
xog:__ZL98GameObject_t1756533147_CustomAttributesCacheGenerator_GameObject_SendMessage_m71956653____options2P21CustomAttributesCache
TIe:_SymmetricTransform_TransformFinalBlock_m4192185386
bme:_TextInfo__ctor_m1263401274
G8c:__ZNK5physx19ActorAABBUpdateTask7getNameEv
J1h:_GC_print_finalization_stats
ITe:_Context_get_SecurityProtocolFlags_m3295551796
Cbh:_LowMemoryCallback__ctor_m4181659636
pCf:_InternalEnumerator_1__ctor_m2981879621_AdjustorThunk
M9a:__ZN15SerializeTraitsI13dynamic_arrayI33EnlightenTerrainChunksInformationLj4EEE19ResizeSTLStyleArrayERS2_i18MemLabelIdentifier
Bng:__ZL87Component_t3819376471_CustomAttributesCacheGenerator_Component_GetComponent_m4225719715P21CustomAttributesCache
n0e:_IPAddress_ToString_m267966740
Xp:__ZNSt3__26vectorIN4core12basic_stringIcNS1_20StringStorageDefaultIcEEEENS_9allocatorIS5_EEE8__appendEj
_Bh:_il2cpp_gc_collect
tib:__ZN26PlayerSettingsSplashScreen8TransferI17RemapPPtrTransferEEvRT_
gAf:_InternalEnumerator_1_get_Current_m3922357178_gshared
eAh:__ZN6il2cpp6icalls8mscorlib6SystemL17CollectTypeFieldsINS_5utils10functional10TrueFilterEEEvP11Il2CppClassPKS7_iRNSt3__26vectorIP9FieldInfoNSB_9allocatorISE_EEEERKT_
lYf:_Type_get_IsValueType_m1733572463
cUc:__ZN5physx7NpScene14resetFilteringERNS_12PxRigidActorEPKPNS_7PxShapeEj
mHb:__Z13GetTagManagerv
j_g:__Z127RuntimeInvoker_Void_t1841601450_IntPtr_t_Int32_t2071877448_SByte_t454417549_Int32_t2071877448_SByte_t454417549_SByte_t454417549PK10MethodInfoPvPS2_
ULf:_Array_InternalArray__ICollection_Remove_TisUInt16_t986882611_m65494986_gshared
Ymh:__ZL10roundUp128PyS_
xA:__ZN11UnityEngine15CloudWebService17CloudJobSchedulerD0Ev
QNd:_String_System_IConvertible_ToBoolean_m2696751322
k7:__ZN18LoadSceneOperation7PerformEv
FZc:__ZN5physx2Sc5Scene26setSimulationEventCallbackEPNS_25PxSimulationEventCallbackEh
Igh:_GUILayer_INTERNAL_CALL_HitTest_m693512502
js:__ZL16FMOD_ErrorString11FMOD_RESULT_468
y1b:__ZL30GeomMTDCallback_CapsuleCapsuleRN5physx6PxVec3ERfRKNS_10PxGeometryERKNS_11PxTransformES5_S8_
IUc:__ZN5physx7NpScene23forceDynamicTreeRebuildEbb
Dch:_Camera_get_pixelRect_m2084185953
P9b:__ZL18intersectAnyVsMeshILi0EEbPKN5physx2Gu6SphereEPKNS1_7CapsuleEPKNS1_3BoxERKNS1_13RTreeMidphaseERKNS0_11PxTransformERKNS0_11PxMeshScaleEP14LimitedResults
PWf:_TimeSpan__ctor_m1888018443_AdjustorThunk
d3d:_SyncHashtable_get_Count_m3694444082
aqc:__ZN5physx14NpArticulation6wakeUpEv
dDd:__ZN13RuntimeStaticI18UnityConnectClientLb0EE10InitializeEv
sra:__ZN22VertexDeclarationCache5ClearEv
Mli:_emscripten_glUniform2i__wrapper
nTa:__ZN17PersistentManager12SetPathRemapERKN4core12basic_stringIcNS0_20StringStorageDefaultIcEEEES6_
eMa:__ZN6Camera24PrepareCullingParametersERK23CameraCullingParameters13RenderingPathR11CullResults
w7:__ZN19RuntimeSceneManager22EndIntegrateMainThreadEP10UnitySceneNS_11LoadingModeE
Teg:__ZL84Evidence_t1407710183_CustomAttributesCacheGenerator_Evidence_GetHashCode_m1260371757P21CustomAttributesCache
Dsb:__Z26Transfer_UnityEngineObjectI17RemapPPtrTransferLb0EEvRK29SerializationCommandArgumentsR31RuntimeSerializationCommandInfo
aPd:_String_IsNullOrEmpty_m2802126737
vYd:_Byte_Parse_m1442736478
Ype:_Int64_Parse_m3258022240
POd:_String_IndexOfOrdinal_m3591623977
pgf:_CryptoConfig_EncodeLongNumber_m2352037787
RYf:_Type_GetMethod_m475234662
BNd:_Single_GetHashCode_m3102305584
jGg:_KeyValuePair_2__ctor_m1877755778_AdjustorThunk
OAg:_ActivationServices_get_ConstructionActivator_m1726426854
Aub:__Z29Transfer_Blittable_ArrayFieldI24GenerateTypeTreeTransfer4AABBEvRT_R9ArrayInfoRK23StaticTransferFieldInfo
thg:__ZL76Convert_t2607082565_CustomAttributesCacheGenerator_Convert_ToChar_m245844937P21CustomAttributesCache
Ogg:__ZL52Activator_t1850728717_CustomAttributesCacheGeneratorP21CustomAttributesCache
L2h:_GC_adj_bytes_allocd
YOf:_Array_InternalArray__ICollection_Add_TisKeyframe_t1449471340_m887263954_gshared
Gmd:__ZN5physx20InternalTriangleMesh16allocateVerticesEj
$Pf:_Array_InternalArray__Insert_TisDateTime_t693205669_m1484996356_gshared
mxg:__ZN23InterfaceActionInvoker2IP19LinkRef_t2090853131S1_E6InvokeEjP11Il2CppClassP12Il2CppObjectS1_S1_
Jue:_MonoIO_get_ConsoleInput_m2976499023
Qof:_OpCode_get_Size_m481593949_AdjustorThunk
F0d:_BitArrayEnumerator_checkVersion_m3839504595
$Td:_Array_GetUpperBound_m1352329707
fya:__ZZ23InitPlayerLoopCallbacksvEN36UpdateScriptRunBehaviourUpdatestruct7ForwardEv
O6c:__ZN5physx6shdfnd5ArrayINS_17PxcBroadPhasePairENS0_19ReflectionAllocatorIS2_EEE8recreateEj
B4g:__Z61RuntimeInvoker_Void_t1841601450_Byte_t3683104436_Il2CppObjectPK10MethodInfoPvPS2_
pSe:_RecordProtocol__ctor_m168945279
Fbe:_DateTimeOffset_Equals_m3728302791_AdjustorThunk
$7b:__ZThn4_N16RayRTreeCallbackILi1ELb0EED1Ev
ivd:__ZN5physx7profile11EventBufferINS_24PxDefaultContextProviderENS_6shdfnd6MutexTINS0_26WrapperReflectionAllocatorIhEEEENS0_14ScopedLockImplIS7_EENS_24PxProfileNullEventFilterEE9sendEventINS0_10StartEventEEEvRNS0_11EventHeaderERT_
lKa:__ZN20SphericalHarmonicsL219AddDirectionalLightERKN4math7_float3ERKNS0_7_float4E
old:__ZN5physx13BigConvexDataD2Ev
MXf:_TimeSpan_op_GreaterThanOrEqual_m3997050520
kig:__ZL77Convert_t2607082565_CustomAttributesCacheGenerator_Convert_ToUInt16_m36213644P21CustomAttributesCache
AL:__Z26ScheduleJobForEachInternalR8JobFencePFvPvjES1_iPFvS1_E11JobPriority
s2e:_OidEnumerator_MoveNext_m1889267785
HPb:__ZN9Scripting18RaiseMonoExceptionEPKcz
Aqg:__ZL76Physics_t634932869_CustomAttributesCacheGenerator_Physics_Raycast_m780162053P21CustomAttributesCache
Y8a:__ZN9Texture2D8TransferI19StreamedBinaryWriteILb0EEEEvRT_
vlb:__ZN24RingBufferMemoryFileData6UnlockEPv
gLb:__ZN9ShaderLab16FastPropertyName15InitBy28BitHashEj
bNd:_Single_System_IConvertible_ToInt32_m3269519527_AdjustorThunk
Soh:__ZN6il2cpp2vm5Class7GetNameEP11Il2CppClass
yHd:_SHA1Internal_ProcessBlock_m4070037334
s4h:__ZN6il2cpp6icalls8mscorlib6System10Reflection14MonoMethodInfo15get_method_infoE12Il2CppIntPtrP16Il2CppMethodInfo
fTd:_UTF32Encoding_GetDecoder_m2714144074
R9e:_ObjRef_GetObjectData_m3081609242
R8c:__ZN5physx20updateBodyShapeAABBsEPKjjS1_PKNS_17PxcAABBDataStaticEPNS_11IntegerAABBEj
ueb:__ZN17PackedFloatVector12UnpackFloatsEPfiiii
Bfg:__ZL113EncoderReplacementFallback_t4228544112_CustomAttributesCacheGenerator_EncoderReplacementFallback__ctor_m517300448P21CustomAttributesCache
xMg:_ReadOnlyCollection_1__ctor_m3671019970_gshared
jha:__ZN13GfxDeviceGLES21DestroyComputeProgramER12ObjectHandleI18ComputeProgram_TagPvE
L6d:_Convert_ToDecimal_m2007036836
pT:__ZN17UniqueIDGenerator16DestroyPureIndexEj
TP:__ZL21AppendNestedClassName17ScriptingClassPtrRN4core17string_with_labelILi1EEE
$Bb:__ZN14SafeBinaryRead21TransferSTLStyleArrayINSt3__26vectorIN9ShaderLab20SerializedSubProgram12UAVParameterENS1_9allocatorIS5_EEEEEEvRT_17TransferMetaFlags
UCg:_Context_NotifyDynamicSinks_m1367144344
lF:__ZNK13BaseAllocator10IsAssignedEv
GB:__ZN24TextDOMTransferWriteBaseI9JSONWriteE12PushMetaFlagEi
JEc:__ZN5physx7NpCloth22removeCollisionCapsuleEj
iUg:__Z45RuntimeInvoker_Int16_t4041245914_Il2CppObjectPK10MethodInfoPvPS2_
vSe:_TlsClientCertificateVerify__ctor_m110646389
A5:__ZN6prcoreL26RemapGenericIntegerToFloatI17TexFormatARGB888815TexFormatRFloatEEvPKNS_9InnerInfoE
bF:__ZN5Mutex6UnlockEv
Vyh:__ZN6il2cpp2vm10ThreadPool10InitializeEv
bDg:_Context_GetServerContextSinkChain_m390126977
mNh:__ZN6il2cpp2vm17TypeNameParseInfoD2Ev
Sgd:__ZN5physx18PxsSolverStartTask16articulationTaskEv
JRf:_Array_Sort_TisIl2CppObject_m143182644_gshared
pwe:_StringReader_Read_m513112775
Gab:__ZNK8Renderer8GetLayerEv
ukc:__ZN5physx6shdfnd4sortIPvNS0_4LessIS2_EENS0_19ReflectionAllocatorINS_2Cm5BlockIS2_Lj16EEEEEEEvPT_jRKT0_RKT1_j
rbc:__ZN5physx3Cct17CapsuleController18setNonWalkableModeENS_27PxControllerNonWalkableMode4EnumE
Gkc:__ZN5physx2Sc11InteractionD2Ev
M3a:__ZN12FlareManager11DeleteFlareEi
xLg:_Collection_1_Add_m2613548553_gshared
JGa:__ZNK6Camera20GetReplacementShaderEv
jyc:__ZN18MultiQueryCallbackIN5physx12PxRaycastHitEE6invokeERfPKNS0_2Sq13PrunerPayloadEj
pce:_Decimal__ctor_m569480123_AdjustorThunk
G$e:_HttpWebRequest__cctor_m3013631978
_5h:__ZNSt3__26__treeINS_12__value_typeINS_12basic_stringIcNS_11char_traitsIcEENS_9allocatorIcEEEEPFvvEEENS_19__map_value_compareIS7_SA_NS_4lessIS7_EELb1EEENS5_ISA_EEE4findIS7_EENS_15__tree_iteratorISA_PNS_11__tree_nodeISA_PvEEiEERKT_
hCb:__ZNSt3__26vectorIN9ShaderLab20SerializedSubProgram14ConstantBufferENS_9allocatorIS3_EEE7reserveEj
q9:__ZL23stbir__calculate_memoryP11stbir__info
jFh:__ZNK15dense_hashtableINSt3__24pairIK10KeyWrapperINS1_IPK10MethodInfoP11Il2CppClassEEEjEES9_17ReflectionMapHashIS8_EN14dense_hash_mapIS9_jSD_NS9_14EqualsComparerINS0_8equal_toIS8_EEEENS0_9allocatorISB_EEE9SelectKeyESI_SK_E12test_deletedERK24dense_hashtable_iteratorISB_S9_SD_SM_SI_SK_E
God:__ZN5physx18AdjacenciesBuilder4InitERKNS_17ADJACENCIESCREATEE
LPc:__ZN5physx15NpActorTemplateINS_13PxRigidStaticEE13setActorFlagsENS_7PxFlagsINS_11PxActorFlag4EnumEtEE
dp:__ZN9Behaviour11FixedUpdateEv
ujb:__ZNK30RuntimeInitializeOnLoadManager26GetTypeInfoVirtualInternalEv
h$c:__ZN5physx18PxcNpThreadContextD2Ev
k$b:__ZNK9rapidjson12GenericValueINS_4UTF8IcEE13JSONAllocatorE6AcceptINS_12PrettyWriterI16TempBufferWriterS2_S2_S3_EEEEbRT_
bNc:__ZN5physx19NpRigidBodyTemplateINS_14PxRigidDynamicEE11attachShapeERNS_7PxShapeE
aRe:_CipherSuite_get_KeyBlockSize_m2993514247
oZb:__ZL26Transfer_SimpleNativeClassI8JSONRead10RectOffsetLb1EEvRK29SerializationCommandArgumentsR31RuntimeSerializationCommandInfo
bXf:_TimeSpan_get_Ticks_m2285358246_AdjustorThunk
tpd:__ZN5physx2Gu27computeBoundsAroundVerticesERNS_9PxBounds3EjPKNS_6PxVec3E
aBg:_UrlAttribute_Equals_m1587451932
sZh:__ZNSt3__26__treeINS_12basic_stringIcNS_11char_traitsIcEENS_9allocatorIcEEEENS_4lessIS6_EENS4_IS6_EEE12__find_equalIS6_EERPNS_16__tree_node_baseIPvEESG_RKT_
FWb:__Z18Transfer_BlittableI9JSONWriteLb1EsEvRK29SerializationCommandArgumentsR31RuntimeSerializationCommandInfo
iTc:__ZNK5physx7NpScene9getLimitsEv
ooe:_Int16_ToString_m4099416068_AdjustorThunk
rhf:_DSAParameters_t1872138834_marshal_pinvoke_cleanup
O_:__ZN6ObjectD2Ev
Cxa:__ZZ23InitPlayerLoopCallbacksvEN44EarlyUpdateResetFrameStatsAfterPresentstruct7ForwardEv
P3c:__ZNK5physx2Gu29EPASupportMapPairRelativeImplINS0_9TriangleVENS0_8CapsuleVEE9doSupportERKNS_6shdfnd3aos5Vec3VERS7_SA_SA_
QAa:__ZN13RenderManager37RenderCamerasWithScriptableRenderLoopEi
H7c:__ZN3MBP12updateObjectEjRK5IAABB
uFe:_ASN1_Element_m2600236165
YI:__GLOBAL__sub_I_runtime_graphics5_lump_cpp
wnc:__ZN5physx6shdfnd5ArrayINS_6PxVec3ENS0_19ReflectionAllocatorIS2_EEE15growAndPushBackERKS2_
DU:__ZN23InstancedPropInfoStaticL16RegisterCallbackEPv
HTh:__ZN6il2cpp2os19ReleaseSocketHandleEj
e6f:__ZL128SafeHandleZeroOrMinusOneIsInvalid_t1177681199_CustomAttributesCacheGenerator_SafeHandleZeroOrMinusOneIsInvalid__ctor_m3340306667P21CustomAttributesCache
I_h:__ZN15dense_hashtableINSt3__24pairIK10KeyWrapperIPK19Il2CppGenericMethodEP10MethodInfoEES6_N6il2cpp8metadata23Il2CppGenericMethodHashEN14dense_hash_mapIS6_S9_SD_NS6_14EqualsComparerINSC_26Il2CppGenericMethodCompareEEENS0_9allocatorISA_EEE9SelectKeyESH_SJ_E5clearEv
hpf:_TypeBuilder_GetPropertyImpl_m1854119335
gXc:__ZN5physx2Sc5Scene20fireTriggerCallbacksEv
slf:_TypeBuilder_get_next_table_index_m1415870184
fdi:___cxa_can_catch
CNe:_SequentialSearchPrimeGeneratorBase_GenerateNewPrime_m296245934
zZd:_Char_GetUnicodeCategory_m4273361321
C2f:__ZL63String_t_CustomAttributesCacheGenerator_String_Split_m394273024P21CustomAttributesCache
E0c:__ZN5physx2Sq10AABBPrunerC2Eb
c3c:__ZN5physx2Gu18GJKRelativeRayCastERNS0_8CapsuleVERNS0_4BoxVERKNS_6shdfnd3aos15PsMatTransformVERKNS6_6FloatVERKNS6_5Vec3VESF_RSA_RSD_SH_fb
F7g:__Z68RuntimeInvoker_Boolean_t3825574718_Il2CppObject_ObjectU26_t597476745PK10MethodInfoPvPS2_
Yy:__ZN10AudioMixer6UpdateEf
Qxe:_Math_Round_m565516458
LCg:_Identity_get_ClientDynamicProperties_m767245959
Xwf:_InternalEnumerator_1__ctor_m675130983_AdjustorThunk
E$g:__Z95RuntimeInvoker_Void_t1841601450_SByte_t454417549_Il2CppObject_SByte_t454417549_SByte_t454417549PK10MethodInfoPvPS2_
SXh:__ZN6il2cpp2os5posix15PosixWaitObjectC2ENS2_4TypeE
Xkb:__Z23AppendPathNameExtensionRKN4core12basic_stringIcNS_20StringStorageDefaultIcEEEES5_
_of:_TypeBuilder_create_generic_class_m986834171
Klc:__ZN5physx15PxsArticulationD2Ev
lii:_emscripten_glVertexPointer__wrapper
xca:__ZN23ShaderVariantCollection13WarmupShadersEv
HTe:_Context_set_ProtocolNegotiated_m1177527245
A_f:_UInt32_System_IConvertible_ToChar_m1056040486
AP:__Z25GetCommonScriptingClassesv
oZe:_TlsStream_get_Length_m1562309511
M7:__Z27scripting_gc_collect_unsafei
kz:__ZN11AudioModule20SuspendVideoTexturesEv
I0d:_CaseInsensitiveComparer__ctor_m1125492797
EKb:__ZN12CubemapArrayC2E18MemLabelIdentifier18ObjectCreationMode
WOc:__ZN5physx13NpRigidStaticC2ERKNS_11PxTransformE
k5d:_Convert_ToByte_m395020137
Ztb:__Z26Transfer_UnityEngineObjectI24GenerateTypeTreeTransferLb0EEvRK29SerializationCommandArgumentsR31RuntimeSerializationCommandInfo
pci:___cxa_get_globals_fast
o3c:__ZN5physxL20PxcSweepBoxTrianglesERKNS_11PxsCCDShapeES2_RKNS_11PxTransformES5_S5_S5_fRNS_6PxVec3ES7_RNS_10PxcNpCacheERNS_18PxcNpThreadContextERKNS_2Cm23FastVertex2ShapeScalingERNS_2Gu9TriangleVEf
cxe:_TextWriter_WriteLine_m1754475888
Icc:__ZN5physx3Cct15ObstacleContextD0Ev
I3a:__ZN15SharedLightData7PrecalcEv
v8:__ZN10Matrix4x4fmLERKS_
ePg:_InvokableCall_1_Invoke_m769918017_gshared
xp:__ZN4PPtrI9TransformE8TransferI18StreamedBinaryReadILb0EEEEvRT_
zSf:_Array_InternalArray__get_Item_TisDouble_t4078015681_m2215331088_gshared
Zeg:__ZL57PrincipalPolicy_t289802916_CustomAttributesCacheGeneratorP21CustomAttributesCache
vZa:__ZN19StreamedBinaryWriteILb0EE19TransferSTLStyleMapINSt3__28multimapIN4core12basic_stringIcNS4_20StringStorageDefaultIcEEEEN11AssetBundle9AssetInfoENS2_4lessIS8_EENS2_9allocatorINS2_4pairIKS8_SA_EEEEEEEEvRT_17TransferMetaFlags
Iwa:__ZN15ArchiveReadFileD0Ev
MIe:_SymmetricTransform_TransformBlock_m1524716432
yU:__ZN18ConcurrentFreeListI28FileTextureUploadInstructionE7CleanUpEv
eQg:_UnityAction_3_EndInvoke_m1279075386_gshared
GAd:__ZN11UnityEngine15PlatformWrapper18GetOperatingSystemEv
zma:__ZNSt3__26vectorIP14DataBufferGLESNS_9allocatorIS2_EEE21__push_back_slow_pathIKS2_EEvRT_
ZXc:__ZN5physx3Scb9Aggregate9syncStateERNS0_5SceneE
tmg:__ZL61ExtensionAttribute_t1840441203_CustomAttributesCacheGeneratorP21CustomAttributesCache
Ode:_Delegate_return_type_match_m4278947849
lAh:__ZN6il2cpp6icalls8mscorlib6System8MonoType19GetGenericArgumentsEP20Il2CppReflectionType
gyg:_Uri_ParseNoExceptions_m1151989845
D4d:_GC_SuppressFinalize_m953228702
iYe:_InternalAsyncResult_get_ProceedAfterHandshake_m552962842
$1g:__Z50RuntimeInvoker_SByte_t454417549_Double_t4078015681PK10MethodInfoPvPS2_
Eka:__ZN10DynamicVBO12ReleaseChunkER21DynamicVBOChunkHandlejj
tMb:__ZZL23RegisterLightPropertiesR22GenericPropertyBindingEN29Wrapper_LightShadowNormalBias13GetFloatValueEPv
G6h:__ZN6il2cpp6icalls8mscorlib4Mono8Security12Cryptography18KeyPairPersistence10_CanSecureEP12Il2CppString
Etc:__ZN5physx7NpActor17resolveReferencesERNS_24PxDeserializationContextE
zLh:__ZN6il2cpp2os4File11GetFileStatERKNSt3__212basic_stringIcNS2_11char_traitsIcEENS2_9allocatorIcEEEEPNS0_8FileStatEPi
Zda:__ZN13GfxDeviceGLES14SetRasterStateEPK17DeviceRasterState
Nia:__ZNK13TranslateGLES11BlendFactorE9BlendMode
Apb:__Z30TransferField_LinearCollectionI14SafeBinaryReadEvRK29SerializationCommandArgumentsR31RuntimeSerializationCommandInfo
Ufc:__ZN5physx6shdfnd8internal8HashBaseINS0_4PairIKPKNS_2Sc8ShapeSimENS4_10NPhaseCore16ClothListElementEEES7_NS0_4HashIS7_EENS1_11HashMapBaseIS7_SA_SD_NS0_9AllocatorEE6GetKeyESF_Lb1EE5eraseERS8_
e2e:_OidCollection_Add_m3712419303
zfc:__ZN5physx5Elems17setStaticAABBDataEjRKNS_17PxcAABBDataStaticE
bTe:_TlsServerHello__ctor_m3032108168
yZ:__ZN14SafeBinaryRead11EndTransferEv
F8f:__ZL98ILGenerator_t99948092_CustomAttributesCacheGenerator_ILGenerator_Mono_GetCurrentOffset_m3553856682P21CustomAttributesCache
Tac:__ZN5physx11PxHitBufferINS_12PxRaycastHitEE14processTouchesEPKS1_j
NE:__ZNK3WWW12GetAudioClipEv
Ppb:__ZN14SafeBinaryRead8TransferI8MonoPPtrEEvRT_PKc17TransferMetaFlags
AIf:_Dictionary_2_System_Collections_Generic_ICollectionU3CSystem_Collections_Generic_KeyValuePairU3CTKeyU2CTValueU3EU3E_Remove_m1705959559_gshared
exa:__ZN24dense_hashtable_iteratorINSt3__24pairIKN4core12basic_stringIcNS2_20StringStorageDefaultIcEEEEP20ArchiveStorageReaderEES6_20StringHash32FunctionIS6_EN14dense_hash_mapIS6_S9_SC_NS0_8equal_toIS6_EE13stl_allocatorISA_L18MemLabelIdentifier54ELi16EEE9SelectKeyESF_SI_EppEv
Yog:__ZL111MonoBehaviour_t1158329972_CustomAttributesCacheGenerator_MonoBehaviour_StartCoroutine_Auto_Internal_m1014513456P21CustomAttributesCache
Hpa:__ZN21UniformBufferTFMethod13MapBoneBufferEj
TWe:_RecordProtocol_SendChangeCipherSpec_m3542001341
POh:__ZNSt3__26vectorIcNS_9allocatorIcEEEC2Ej
JGe:_KeyPairPersistence_CanSecure_m2251009700
Ixa:__ZZ23InitPlayerLoopCallbacksvEN27FixedUpdateClearLinesstruct7ForwardEv
_lb:__ZN9TextAsset15ThreadedCleanupEv
L8e:_ReturnMessage_get_Properties_m531965085
Lmf:_GenericTypeParameterBuilder_IsSubclassOf_m563999142
lhe:_Exception_ToString_m627574695
Fpf:_AddEventAdapter_Invoke_m3970567975
BL:__Z21CompleteFenceInternalR8JobFence
Ylh:_StackTraceUtility_PostprocessStacktrace_m2866903298
Hlc:__ZN5physx6shdfnd5ArrayIPvNS0_16AlignedAllocatorILj64ENS0_9AllocatorEEEE15growAndPushBackERKS2_
UDh:__ZN30dense_hashtable_const_iteratorINSt3__24pairIK10KeyWrapperINS1_IPK9FieldInfoP11Il2CppClassEEEjEES9_17ReflectionMapHashIS8_EN14dense_hash_mapIS9_jSD_NS9_14EqualsComparerINS0_8equal_toIS8_EEEENS0_9allocatorISB_EEE9SelectKeyESI_SK_E30advance_past_empty_and_deletedEv
yBg:_CrossAppDomainChannel_RegisterCrossAppDomainChannel_m43456045
aQf:_Array_InternalArray__Insert_TisDecimal_t724701077_m1429254816_gshared
Tzb:__ZN18StreamedBinaryReadILb0EE21TransferSTLStyleArrayI13dynamic_arrayIyLj8EEEEvRT_17TransferMetaFlags
OCh:__ZN6il2cpp2vm10Reflection17GetAssemblyObjectEPK14Il2CppAssembly
Jla:__ZN18AsyncUploadManager17DoScaledPaddedJobEP28FileTextureUploadInstruction
aca:__ZNSt3__218__stable_sort_moveIRN10vector_mapI17ScriptingClassPtrPKN5Unity4TypeENS_4lessIS2_EENS_9allocatorINS_4pairIS2_S6_EEEEE13value_compareENS_11__wrap_iterIPSB_EEEEvT0_SJ_T_NS_15iterator_traitsISJ_E15difference_typeEPNSM_10value_typeE
VAb:__ZN6Shader21AwakeFromLoadThreadedEv
B4:__ZN6prcoreL17RemapGenericFloatI17TexFormatRGBFloat17TexFormatRGBAHalfEEvPKNS_9InnerInfoE
X_b:__ZN8JSONRead21TransferSTLStyleArrayI13dynamic_arrayI8Vector2fLj4EEEEvRT_18MemLabelIdentifier17TransferMetaFlags
Pwd:__ZN5physx24PxcContactBoxHeightFieldERKNS_2Gu13GeometryUnionES3_RKNS_11PxTransformES6_RKfRNS_10PxcNpCacheERNS0_13ContactBufferE
FDd:__ZN13RuntimeStaticINSt3__26vectorIjNS0_9allocatorIjEEEELb0EE16StaticInitializeEPv
y7h:__ZN6il2cpp2os9SemaphoreC2Eii
Vwf:_InternalEnumerator_1_get_Current_m2960188445_AdjustorThunk
Rpb:__ZNSt3__26vectorI8MonoPPtr13stl_allocatorIS1_L18MemLabelIdentifier1ELi16EEE8__appendEj
oFa:__ZN14qsort_internal30FindAndMovePivotToLastPositionIP17RODataReplacementi19ROSorterReplacementEEvT_S4_T0_T1_
Spa:__ZN15UniformTFMethod20IsBoneCountSupportedEi
x8c:__ZNK5physx23AggregateAABBUpdateTask7getNameEv
BJd:_X509Certificate_GetExpirationDateString_m2351894475
Tjh:_Rect_Contains_m1334685291_AdjustorThunk
gte:_FileStream_get_Position_m465478322
Drh:__ZN14dense_hash_setI10KeyWrapperIPK19Il2CppGenericMethodEN6il2cpp8metadata23Il2CppGenericMethodHashENS4_14EqualsComparerINS6_26Il2CppGenericMethodCompareEEENSt3__29allocatorIS4_EEEC2EjRKS7_RKSA_
Rei:dynCall_viidi
eQf:_Array_InternalArray__Insert_TisInt64_t909078037_m3039874636_gshared
LWd:_Convert_ToInt16_m1787678274
bXe:_RSASslSignatureDeformatter_SetKey_m1150106904
NK:__ZN24ScriptingMethodFiltering17FilterOnSignatureENS_18MethodSearchFilterE
V6:__ZN27GenericSlowGarbageCollectorD2Ev
skd:__ZN5physx13NpClothFabric16scaleRestlengthsEf
qG:__ZN18ScreenManagerWebGL13SetLockCursorE14CursorLockMode
rze:_MonoType_GetMethodsByName_m1854415088
rIe:_RSAManaged_EncryptValue_m4089823119
DQc:__ZN5physx6shdfnd5ArrayIPNS_2Sc17ParticleSystemSimENS0_19ReflectionAllocatorIS4_EEE8recreateEj
xJf:_DefaultComparer_GetHashCode_m926363525_gshared
aPc:__ZNK5physx13NpRigidStatic7getTypeEv
o7g:__Z69RuntimeInvoker_Void_t1841601450_Int32_t2071877448_HitInfo_t1761367055PK10MethodInfoPvPS2_
R_:__ZNK11NamedObject26GetTypeInfoVirtualInternalEv
Xte:_ReadDelegate_Invoke_m2091885836
bmf:_TypeBuilder_GetField_m2112455315
Nii:b58
Qii:b59
whi:b52
xhi:b53
shi:b50
vhi:b51
scd:__ZN5physx9PxTaskMgrD0Ev
xii:b57
yhi:b54
zhi:b55
nEe:_Kernel_Multiply_m3585610531
DQe:_CertificateSelectionCallback_EndInvoke_m3525317639
Omg:__ZL61AssetBundleRequest_t2674559435_CustomAttributesCacheGeneratorP21CustomAttributesCache
bWg:__Z67RuntimeInvoker_Void_t1841601450_Int32_t2071877448_Int16_t4041245914PK10MethodInfoPvPS2_
M9d:_DateTime__ctor_m3604679583_AdjustorThunk
qVd:_SimpleEnumerator_Reset_m1341779532
INh:__ZNSt3__214__split_bufferINS_12basic_stringIcNS_11char_traitsIcEENS_9allocatorIcEEEERNS4_IS6_EEEC2EjjS8_
GHe:_MACAlgorithm_Core_m2390605245
LHb:__ZN10GameObject12CleanupClassEv
Wzf:_InternalEnumerator_1_System_Collections_IEnumerator_Reset_m2624612805_AdjustorThunk
roc:__ZN5physx3Scb5Scene13addRigidNoSimINS0_11RigidStaticELb0ELb1EEEvRT_RNS0_13ObjectTrackerE
S5a:__ZN15SerializeTraitsI13dynamic_arrayI11TetrahedronLj4EEE19ResizeSTLStyleArrayERS2_i18MemLabelIdentifier
Cea:__ZN9GfxDevice25SetShaderPropertiesSharedERK19ShaderPropertySheet
Glb:__ZN10MonoScript17MainThreadCleanupEv
Xka:__ZN18AsyncUploadManager19AsyncResourceUploadER9GfxDeviceii9TextureID
QLb:__ZL25InitializeDefaultMaterialv
k0a:__ZN21ArchiveStorageCreatorD2Ev
p5c:__ZN5physx34solveContact_BStaticBlockWriteBackEPKNS_23PxcSolverConstraintDescEjRNS_16PxcSolverContextEPNS_25PxcThresholdStreamElementEjPi
iua:__ZN19FileAccessorHandlerD2Ev
uBf:_InternalEnumerator_1_System_Collections_IEnumerator_Reset_m4085710193_AdjustorThunk
B8f:__ZL126GenericTypeParameterBuilder_t1370236603_CustomAttributesCacheGenerator_GenericTypeParameterBuilder_MakeGenericType_m2955814622P21CustomAttributesCache
Oqg:__ZL95Physics_t634932869_CustomAttributesCacheGenerator_Physics_RaycastAll_m410413656____maxDistance1P21CustomAttributesCache
iba:__ZN17PersistentManager12UnloadStreamERKN4core12basic_stringIcNS0_20StringStorageDefaultIcEEEEb
hG:__ZN13ScreenManager17RequestResolutionEiibi
Mgf:_DESTransform__ctor_m4096028381
jCh:_il2cpp_unity_liveness_calculation_from_statics
gWf:_Scheduler_get_Instance_m1989471839
x1e:_WebRequest_System_Runtime_Serialization_ISerializable_GetObjectData_m3377822910
hbb:__ZN8Renderer8TransferI17RemapPPtrTransferEEvRT_
uhi:_glBlitFramebuffer__wrapper
Aha:__ZN13GfxDeviceGLES19SetSinglePassStereoE16SinglePassStereo
Hwh:__ZL24UnresolvedVirtualCall_71P12Il2CppObjectS0_S0_iS0_S0_S0_PK10MethodInfo
j3f:__ZL64IntPtr_t_CustomAttributesCacheGenerator_IntPtr__ctor_m3803259710P21CustomAttributesCache
RFc:__ZNK5physx2Sc9ClothCore16getCollisionDataEPNS_22PxClothCollisionSphereEPjPNS_21PxClothCollisionPlaneES4_PNS_24PxClothCollisionTriangleE
Yah:__Z88RuntimeInvoker_Boolean_t3825574718_DateTimeOffset_t1362988906_DateTimeOffset_t1362988906PK10MethodInfoPvPS2_
lPa:__Z24LookRotationToQuaternionRK8Vector3fS1_P11Quaternionf
jPa:__ZN16ReflectionProbes9GetCameraEv
cMc:__ZN5physx22NpParticleBaseTemplateINS_16PxParticleSystemENS_16NpParticleSystemEE14resetFilteringEv
VLe:_ArgumentException__ctor_m2105824819
INf:_Array_InternalArray__IndexOf_TisInt64_t909078037_m617406809_gshared
PVh:__ZN6il2cpp2vm11MethodStack23CleanupForCurrentThreadEv
WGg:_Enumerator_VerifyState_m825848279_AdjustorThunk
p4a:__ZN20TierGraphicsSettings8TransferI24GenerateTypeTreeTransferEEvRT_
p8c:__ZN5physx10BPWorkTaskD0Ev
lrb:__ZN14SafeBinaryRead21TransferSTLStyleArrayI13dynamic_arrayI4AABBLj4EEEEvRT_17TransferMetaFlags
_1:__ZN18UnityPropertySheet8TransferI19StreamedBinaryWriteILb0EEEEvRT_
pVe:_TlsServerCertificate_checkServerIdentity_m3836435780
qV:__ZNSt3__26__treeINS_12__value_typeIiN11TypeManager18TypeCallbackStructEEENS_19__map_value_compareIiS4_NS_4lessIiEELb1EEENS_9allocatorIS4_EEE7destroyEPNS_11__tree_nodeIS4_PvEE
tJe:_PKCS12_Decrypt_m2353135969
Nfh:_PersistentCallGroup_Initialize_m3908067069
lrf:_MonoEvent_ToString_m386956596
Dlb:__ZN39AssetBundleLoadFromStreamAsyncOperationC2ERKN4core12basic_stringIcNS0_20StringStorageDefaultIcEEEE
E_:__ZL19GetCameraTargetRectRK6Camerabb
sZc:__ZN5physx20NpRigidActorTemplateINS_13PxRigidStaticEE14resetFilteringERNS_3Scb11RigidObjectEPKPNS_7PxShapeEj
Tne:_Int32_GetFormatException_m1729046182
DXa:__ZN21UnityDefaultAllocatorI17LowLevelAllocatorE10DeallocateEPv
NI:__GLOBAL__sub_I_runtime_camera2_lump_cpp
n5a:__ZN15SharedLightData22UpdateCookieTextureRefEv
zq:__ZN15PackedIntVector8TransferI14SafeBinaryReadEEvRT_
Kpf:_FieldInfo_get_IsLiteral_m267898096
ima:__ZN17SharedTextureDataD0Ev
Jrc:__ZNK5physx19NpArticulationJoint20getTangentialDampingEv
pYe:_SslStreamBase_EndNegotiateHandshake_m1732321201
rGf:_Transform_1_BeginInvoke_m1167293475_gshared
Dt:__ZN13AudioListener8DoUpdateEv
K0b:__ZN5physx3Cct10Controller22setUpDirectionInternalERKNS_6PxVec3E
i2f:__ZL71SByte_t454417549_CustomAttributesCacheGenerator_SByte_Parse_m1620039654P21CustomAttributesCache
f5d:__Z13bankers_roundd
zcb:__ZN14SafeBinaryRead8TransferI5RectTIfEEEvRT_PKc17TransferMetaFlags
ki:_emscripten_glGenFramebuffers
q2d:_Hashtable_CopyTo_m2778915805
lV:__ZN17BaseObjectManager16StaticInitializeEPv
Rkf:_ConstructorBuilder_get_IsCompilerContext_m2796899803
Jng:__ZL97Component_t3819376471_CustomAttributesCacheGenerator_Component_GetComponentsInChildren_m843288020P21CustomAttributesCache
njb:__ZN18StreamedBinaryReadILb0EE19TransferSTLStyleMapINSt3__28multimapIN4core12basic_stringIcNS4_20StringStorageDefaultIcEEEE4PPtrI6ObjectENS2_4lessIS8_EE13stl_allocatorINS2_4pairIKS8_SB_EEL18MemLabelIdentifier51ELi16EEEEEEvRT_17TransferMetaFlags
G5d:_DateTime_CoreParse_m2014268103
Duf:_ResourceSet_Dispose_m2968479859
HYa:__ZN9Behaviour23VirtualRedirectTransferER17RemapPPtrTransfer
eXb:__Z18Transfer_BlittableI9JSONWriteLb0EyEvRK29SerializationCommandArgumentsR31RuntimeSerializationCommandInfo
K_:__ZN13RenderTexture15ThreadedCleanupEv
C7a:__ZN12CubemapArray23VirtualRedirectTransferER14SafeBinaryRead
DGc:__ZNK5physx2Sc9ClothCore23getNbCollisionTrianglesEv
ef:___cxa_free_exception
NCc:__ZN5physx7NpShape16setFlagsInternalENS_7PxFlagsINS_11PxShapeFlag4EnumEhEE
Une:_Int32_ProcessTrailingWhitespace_m2812079777
U7:__ZN18ProceduralMaterial9ReloadAllEbb
R8b:__ZN5physx2Gu30distanceSegmentTriangleSquaredERKNS_6shdfnd3aos5Vec3VES5_S5_S5_S5_RS3_S6_
l1e:_WebProxy__ctor_m3679722173
Uyf:_InternalEnumerator_1_Dispose_m2743309309_AdjustorThunk
cUh:__ZN15dense_hashtableINSt3__24pairIK10KeyWrapperINS1_IPKcS4_EEEiEES6_24NamespaceAndNamePairHashN14dense_hash_mapIS6_iS9_NS6_14EqualsComparerI26NamespaceAndNamePairEqualsEENS0_9allocatorIS8_EEE9SelectKeyESD_SF_E6insertERKS8_
UZ:__ZN24GenerateTypeTreeTransfer18BeginArrayTransferEPKcS1_Ri17TransferMetaFlags
cla:__Z16DecompressCrunchPKhRjR13TextureFormatiiii18MemLabelIdentifier
dm:___syscall51
hm:___syscall54
ZUh:__ZNSt3__26__treeINS_12__value_typeIP24Il2CppReflectionAssemblyPvEENS_19__map_value_compareIS3_S5_NS_4lessIS3_EELb1EEENS_9allocatorIS5_EEE12__find_equalIS3_EERPNS_16__tree_node_baseIS4_EESH_RKT_
rUg:__Z107RuntimeInvoker_Boolean_t3825574718_SByte_t454417549_Il2CppObject_Int32_t2071877448_ExceptionU26_t1467204777PK10MethodInfoPvPS2_
Bvb:__Z18Transfer_BlittableI19StreamedBinaryWriteILb0EELb1EjEvRK29SerializationCommandArgumentsR31RuntimeSerializationCommandInfo
qxh:__ZL25UnresolvedVirtualCall_108P12Il2CppObjectS0_28StreamingContext_t1417235061PK10MethodInfo
hVh:__ZN6il2cpp2vm5Image21GetCachedResourceDataEPK11Il2CppImageRKNSt3__212basic_stringIcNS5_11char_traitsIcEENS5_9allocatorIcEEEE
UOf:_Array_InternalArray__ICollection_Add_TisUInt32_t2149682021_m2629016323_gshared
Pob:__Z18Transfer_BlittableI14SafeBinaryReadLb0E10ColorRGBAfEvRK29SerializationCommandArgumentsR31RuntimeSerializationCommandInfo
H4f:__ZL65Il2CppArray_CustomAttributesCacheGenerator_Array_Sort_m3002148658P21CustomAttributesCache
ya:invoke_iiiiiiiiii
ny:__ZNK7Texture10GetVRUsageEv
l7:__ZN18LoadSceneOperation19IntegrateTimeSlicedEi
rWf:_Scheduler_SchedulerThread_m2209572785
yCe:_SortKeyBuffer_GetResultAndReset_m2516956577
ss:__ZN4FMOD7SystemI11createSoundEPKcjP22FMOD_CREATESOUNDEXINFOPPNS_5SoundE
mVa:__ZN10FileSystem19SetCurrentDirectoryERKN4core12basic_stringIcNS0_20StringStorageDefaultIcEEEE
VP:__ZN16ScriptingManager24NotifyScriptCacheReleaseEi
cwf:_InternalEnumerator_1_get_Current_m2151132603_gshared
p8f:__ZL63UnmanagedMemoryStream_t822875729_CustomAttributesCacheGeneratorP21CustomAttributesCache
VRb:__Z47Register_UnityEngine_Coroutine_ReleaseCoroutinev
poc:__ZN10ScSceneFnsIN5physx3Scb11RigidStaticEE6insertERNS0_2Sc5SceneERS2_
pu:__ZN15AudioReverbZone13SetFMODValuesEv
Bdh:_Component_GetComponentInChildren_m3925629424
kN:__ZL19StaticDestroyShaderPv
Wd:_glRenderbufferStorageMultisample
u9e:_SoapTypeAttribute_get_XmlTypeName_m2546866572
lEh:__ZNK15dense_hashtableINSt3__24pairIK10KeyWrapperIPK10Il2CppTypeEjEES6_N6il2cpp8metadata14Il2CppTypeHashEN14dense_hash_mapIS6_jSB_NS6_14EqualsComparerINSA_26Il2CppTypeEqualityComparerEEENS0_9allocatorIS8_EEE9SelectKeyESF_SH_E10test_emptyEj
yrb:__Z35Transfer_Blittable_SingleValueFieldI14SafeBinaryReadfEvRT_R17GeneralMonoObjectRK23StaticTransferFieldInfo
KVe:_TlsServerHello_processProtocol_m1241336522
i9b:__ZN5physx2Gu20sweepCCTBoxTrianglesEjPKNS_10PxTriangleEbRKNS_13PxBoxGeometryERKNS_11PxTransformERKNS_6PxVec3EfRSA_SD_RfRjPKjfNS_7PxFlagsINS_9PxHitFlag4EnumEtEE
H2b:__ZN5physx2Gu15OBBTriangleTestC2ERKNS0_3BoxE
zDg:_ContextAttribute_IsContextOK_m3281216012
gve:_PathTooLongException__ctor_m3212099251
yni:_pthread_cond_broadcast__wrapper
iDf:_InternalEnumerator_1_MoveNext_m3299881374_AdjustorThunk
p4b:__ZN5physx2Gu21computeMTD_SphereMeshERNS_6PxVec3ERfRKNS0_6SphereERKNS_22PxTriangleMeshGeometryERKNS_11PxTransformE
Kq:__ZN17PackedFloatVector8TransferI18StreamedBinaryReadILb0EEEEvRT_
bgc:__ZN5physx2Sc10NPhaseCore15fetchFilterPairEPv
aqd:__ZN5physx12SubSortQuick5sort4EPjjRNS_6shdfnd5ArrayINS_11RTreeNodeNQENS2_19ReflectionAllocatorIS4_EEEERjRNS_10PxBounds3VEj
Lza:_longest_match_fast
Hmc:__ZN5physx6shdfnd5ArrayIPNS_2Sc8BodyCoreENS0_19ReflectionAllocatorIS4_EEE15growAndPushBackERKS4_
QHh:__ZN15dense_hashtableINSt3__24pairIK10KeyWrapperIPK14Il2CppAssemblyEPK16MonoAssemblyNameEES6_N6il2cpp5utils11PointerHashIS4_EEN14dense_hash_mapIS6_SA_SF_NS6_14EqualsComparerINS0_8equal_toIS5_EEEENS0_9allocatorISB_EEE9SelectKeyESK_SM_E8min_sizeEjj
VOb:__ZN22BlockMemoryCacheWriter11GetPathNameEv
Vag:__ZL86SafeHandle_t2733794115_CustomAttributesCacheGenerator_SafeHandle_SetHandle_m1980208835P21CustomAttributesCache
Hsd:__ZN14PhysicsManager23VirtualRedirectTransferER14SafeBinaryRead
kbe:_DateTime_ToString_m3108726445_AdjustorThunk
ERa:__ZN13dynamic_arrayIN23ReflectionProbesContext23ReflectionProbeCubeInfoELj4EE18resize_initializedEjRKS1_12ResizePolicy
lSf:_Array_InternalArray__get_Item_TisTableRange_t2011406615_m602485977_gshared
Ovc:__ZN5physx7NpActor14onActorReleaseEPNS_7PxActorE
OLe:_ApplicationException__ctor_m1120437222
Rrf:_MonoMethod__ctor_m4091684020
kcc:__ZN5physx3Cct26CharacterControllerManager19computeInteractionsEfPNS_26PxControllerFilterCallbackE
Lo:stackAlloc
Zkc:__ZN5physx6shdfnd8PoolBaseINS_2Cm5BlockIhLj256EEENS0_19ReflectionAllocatorIS4_EEE12allocateSlabEv
eSb:__Z44Camera_CUSTOM_INTERNAL_CALL_ScreenPointToRayP12Il2CppObjectRK8Vector3fR3Ray
Tua:__ZN25SingleBlockMemoryFileData4LockEPPv
Nva:__ZN12HandlerChain5TouchER13FileEntryData
gof:_MethodBuilder_GetHashCode_m1713271764
fIg:_List_1__ctor_m310736118_gshared
IBe:_MSCompatUnicodeTable_GetResource_m3816716847
E7e:_Interval_get_IsSingleton_m1888598248_AdjustorThunk
o2g:__Z49RuntimeInvoker_UInt16_t986882611_Int64_t909078037PK10MethodInfoPvPS2_
oUd:_Array_CreateInstance_m15016505
jai:_stat
Li:_JS_Eval_ClearTimeout
Wbi:__ZNSt3__212basic_stringIcNS_11char_traitsIcEENS_9allocatorIcEEEaSERKS5_
HPf:_Array_InternalArray__ICollection_CopyTo_TisUInt16_t986882611_m3228377237_gshared
$Df:_DefaultComparer_Compare_m2805784815_gshared
Nca:__ZNSt3__218__insertion_sort_3IRNS_4lessIN22BuiltinResourceManager8ResourceEEEPS3_EEvT0_S7_T_
U9c:__ZN5physx2Gu21findUniqueConvexEdgesEjPNS0_10ConvexEdgeEjPKNS0_15HullPolygonDataEPKh
deh:_Component_BroadcastMessage_m1308086896
dIg:_List_1_get_Item_m4100789973_gshared
ROc:__ZN5physx20NpRigidActorTemplateINS_14PxRigidDynamicEED0Ev
ZEd:_RC2_set_KeySize_m2015782960
ma:invoke_iiiiiiiiiiii
F4c:__ZN5physx43solveContactCoulombPreBlock_WriteBackStaticEPKNS_23PxcSolverConstraintDescEjRNS_16PxcSolverContextEPNS_25PxcThresholdStreamElementEjPi
sle:_NumberFormatInfo_get_CurrencyGroupSeparator_m2480433019
Atd:__ZN10CastFilterD0Ev
hJe:_StrongName_get_PublicKey_m3777577320
Mmg:__ZL120AssetBundleCreateRequest_t1038783543_CustomAttributesCacheGenerator_AssetBundleCreateRequest_get_assetBundle_m2931245245P21CustomAttributesCache
yzg:_RuntimeCompatibilityAttribute__ctor_m1331212510
Xkc:__ZN5physx2Sc5Scene23allocateConstraintBlockEj
hTb:__Z43Register_UnityEngine_GameObject_SendMessagev
LS:__ZNSt3__26__treeINS_12__value_typeIN4core12basic_stringIcNS2_20StringStorageDefaultIcEEEES6_EENS_19__map_value_compareIS6_S7_NS_4lessIS6_EELb1EEE13stl_allocatorIS7_L18MemLabelIdentifier12ELi16EEE7destroyEPNS_11__tree_nodeIS7_PvEE
qoh:__ZN6il2cpp2vm17SetupFieldsLockedEP11Il2CppClassRKNS_2os12FastAutoLockE
Pue:_MonoIOStat_t1621921065_marshal_pinvoke
lmc:__ZN5physx2Sc5Actor15onElementDetachERNS0_7ElementE
GJg:_List_1_System_Collections_ICollection_CopyTo_m1530390632_gshared
Gyf:_InternalEnumerator_1_System_Collections_IEnumerator_Reset_m3194282029_AdjustorThunk
OVa:__ZN16MemoryFileSystem4NameEv
Gx:__ZN11AudioSource16UpdateParametersE12SoundChannel
xNe:_PrimeGeneratorBase_get_PrimalityTest_m308005118
U3f:__ZL71Enum_t2459695545_CustomAttributesCacheGenerator_Enum_Format_m2294492821P21CustomAttributesCache
rJg:_List_1_CheckIndex_m2328469916_gshared
o0b:__ZN5physx3Cct13BoxController13setHalfHeightEf
_Xc:__ZN5physx3Scb13ObjectTracker5clearEv
tQb:__Z42ScriptingGetComponentsOfTypeFromGameObjectRK26ScriptingGetComponentsArgs
LD:__ZN19CloudServiceHandler11FlushEventsEv
F1b:__ZL23GeomMTDCallback_BoxMeshRN5physx6PxVec3ERfRKNS_10PxGeometryERKNS_11PxTransformES5_S8_
wPg:_InvokableCall_4_Invoke_m1555001411_gshared
K8d:_Convert_ToString_m2915777777
KEc:__ZNK5physx7NpCloth22getNbCollisionCapsulesEv
B2:__ZNSt3__27__sort4IRPFbRKNS_4pairIN9ShaderLab16FastPropertyNameEN18UnityPropertySheet11UnityTexEnvEEES8_EPS6_EEjT0_SD_SD_SD_T_
_ze:_MonoType_GetGenericTypeDefinition_m2363776160
U9f:__ZL62ParameterAttributes_t1266705348_CustomAttributesCacheGeneratorP21CustomAttributesCache
RTe:_Context_set_SentConnectionEnd_m2641458842
be:_emscripten_glBufferSubData
yXd:_Buffer_BlockCopyInternal_m2627156229
wsb:__Z18Transfer_BlittableI17RemapPPtrTransferLb1EyEvRK29SerializationCommandArgumentsR31RuntimeSerializationCommandInfo
Cpc:__ZN5physx6shdfnd5ArrayIPvNS0_15InlineAllocatorILj256ENS0_19ReflectionAllocatorINS_7NpShapeEEEEEE15growAndPushBackERKS2_
H3:__ZN6prcoreL12RemapGenericI15TexFormatRGB88817TexFormatARGB8888EEvPKNS_9InnerInfoE
tr:__Z17CalculateGlobalRS23TransformAccessReadOnly
VHc:__ZN5physx22NpParticleBaseTemplateINS_15PxParticleFluidENS_15NpParticleFluidEE7releaseEv
Xcf:__ZN21InterfaceFuncInvoker1IP12Il2CppObject28StreamingContext_t1417235061E6InvokeEjP11Il2CppClassS1_S2_
Hch:_Camera_ScreenPointToRay_m614889538
hEe:_Kernel_multiByteDivide_m735279869
I6b:__ZNK5physx2Gu29EPASupportMapPairRelativeImplINS0_11ConvexHullVES2_E6getDirEv
jIf:_Dictionary_2_ToTValue_m542772656_gshared
QCd:__ZN23UnityPurchasingSettings10InitializeER6Object
RVf:_Thread_GetNewManagedId_internal_m3211695465
Uza:_unity_z_deflateReset
Dhc:__ZN5physx2Sc19ContactReportBuffer23reallocateNotThreadSafeEjRjjj
Kka:__ZN17GenericDynamicVBO17DrawChunkInternalERK21DynamicVBOChunkHandle17ShaderChannelMaskS3_P17VertexDeclarationP16DrawBuffersRangeij
DDd:__ZN13RuntimeStaticINSt3__26vectorIN5physx25PxVehicleWheelQueryResultENS0_9allocatorIS3_EEEELb0EE16StaticInitializeEPv
hkc:__ZN5physx2Sc5Actor19registerInteractionEPNS0_11InteractionE
IAb:__ZN22MemoryCacherReadBlocks14LockCacheBlockEjPPhS1_
AWd:_Boolean_System_IConvertible_ToChar_m2637404801_AdjustorThunk
LLd:_SecurityContext_Capture_m2535194991
SZf:_UInt16_System_IConvertible_ToSByte_m3044765342_AdjustorThunk
g2f:__ZL47Byte_t3683104436_CustomAttributesCacheGeneratorP21CustomAttributesCache
uXh:__ZN4utf88internal15increase_safelyIPKcEENS0_9utf_errorERT_S5_
Gyd:__ZN13PhysicsModule19CreateNxHeightFieldEPv
TEd:__Z21ArrayElementTypeCheckP11Il2CppArrayPv
Fki:_emscripten_glTexSubImage2D__wrapper
W_e:_NameValueCollection_AsSingleString_m10599052
aci:__ZNSt3__212basic_stringIcNS_11char_traitsIcEENS_9allocatorIcEEE6appendEjc
$Ae:_Object_InternalGetHashCode_m1371384246
lfh:_ArgumentCache_get_stringArgument_m3051619173
Hoe:_Int32_System_IConvertible_ToSByte_m1449623243_AdjustorThunk
gLe:_AccessViolationException__ctor_m1270251537
jJc:__ZN5physx15NpParticleFluid2isENS_11PxActorType4EnumE
nMc:__ZN5physx22NpParticleBaseTemplateINS_16PxParticleSystemENS_16NpParticleSystemEE11setGridSizeEf
lTg:_X509ExtensionCollection_IndexOf_m3972100651
Opb:__Z14resize_trimmedINSt3__26vectorI8MonoPPtr13stl_allocatorIS2_L18MemLabelIdentifier1ELi16EEEEEvRT_j
Z$a:__ZN39AssetBundleLoadFromStreamAsyncOperation11GetProgressEv
Ke:_TTF_RenderText_Solid
Fnb:__ZN13MonoBehaviour25TransferEngineAndInstanceI24GenerateTypeTreeTransferEEvRT_
M_f:_UInt32_System_IConvertible_ToInt64_m3091851828
hye:_MissingMethodException__ctor_m3898429715
Vaf:_RemotingConfiguration_RegisterClientProviderTemplate_m514821425
dFf:_Enumerator_System_Collections_IEnumerator_Reset_m3085583937_gshared
P9g:__Z66RuntimeInvoker_ClientCertificateType_t4001384466_Int32_t2071877448PK10MethodInfoPvPS2_
sIe:_RSAManaged_ExportParameters_m2873993187
lke:_NumberFormatter_Append_m3268121457
nKg:_Enumerator__ctor_m2816143215_AdjustorThunk
eDd:__ZN11UnityEngine7Connect16PersistentValuesC2Ev
c4e:_X509Chain_FindParent_m404663796
fye:_MissingMemberException__ctor_m2164043278
fnh:__ZL7log2_32j
Kkb:__ZN13EmscriptenWWW10OnProgressEPvjj
Isb:__Z19TransferField_ArrayI17RemapPPtrTransfer27Converter_UnityEngineObjectEvRK23StaticTransferFieldInfoR31RuntimeSerializationCommandInfoRT0_
OSc:__ZNK5physx2Sc7BodySim13isConnectedToERKNS0_8RigidSimERb
aeg:__ZL53HMACSHA384_t3026079344_CustomAttributesCacheGeneratorP21CustomAttributesCache
hqe:_NumberFormatter_InitDecHexDigits_m1612588520
Fsd:__ZN14PhysicsManager23VirtualRedirectTransferER17RemapPPtrTransfer
vHb:__ZN15ApplicationInfo14GetSandboxTypeEv
CNd:_Single_GetHashCode_m3102305584_AdjustorThunk
gw:__ZN4FMOD6System9createDSPEP20FMOD_DSP_DESCRIPTIONPPNS_3DSPE
gf:_JS_SystemInfo_HasCursorLock
kzg:_UriParser_set_SchemeName_m3624672465
os:__ZN4FMOD8ChannelI11EndCallbackEv
$Id:_ToBase64Transform_TransformBlock_m2201454137
emh:_Enumerator_MoveNext_m3980662062
Rof:_OpCode_get_StackBehaviourPop_m3787015663_AdjustorThunk
Ntg:_PatternCompiler_EmitCount_m3609178511
Rbb:__ZN15QualitySettings23VirtualRedirectTransferER24GenerateTypeTreeTransfer
ech:_AttributeHelperEngine__cctor_m1775592582
Gad:__ZN5physx2Gu32PCMConvexVsMeshContactGeneration35generateTriangleFullContactManifoldERNS0_9TriangleVEjPKjhRKNS0_13PolygonalDataEPNS0_16SupportLocalImplIS2_EEPNS0_12SupportLocalEPNS0_21MeshPersistentContactERjRKNS_6shdfnd3aos6FloatVERNSI_5Vec3VE
tLh:__ZN6il2cpp2os10FileHandleC2Ev
VTb:__Z59Register_UnityEngine_MonoBehaviour_Internal_CancelInvokeAllv
Ffg:__ZL84Encoding_t663144255_CustomAttributesCacheGenerator_Encoding_GetByteCount_m4104502544P21CustomAttributesCache
O9e:_ObjRef_set_TypeInfo_m1661789743
$qh:__ZN30dense_hashtable_const_iteratorINSt3__24pairIK10KeyWrapperIPK19Il2CppGenericMethodEPK26Il2CppGenericMethodIndicesEES6_N6il2cpp8metadata23Il2CppGenericMethodHashEN14dense_hash_mapIS6_SA_SE_NS6_14EqualsComparerINSD_26Il2CppGenericMethodCompareEEENS0_9allocatorISB_EEE9SelectKeyESI_SK_EppEv
RZe:_HybridDictionary_Add_m1037587952
D8:__Z37GetBarycentricCoordinatesForOuterCellPPK8Vector3fRK13dynamic_arrayIS_Lj4EERS0_RK11TetrahedronR8Vector4fRf
TRh:__ZN6il2cpp6icalls8mscorlib6System10Reflection10MonoMethod29get_IsGenericMethodDefinitionEP22Il2CppReflectionMethod
JMh:__ZN6il2cpp2vm6Thread21AllocThreadStaticDataEi
Fwg:__ZN23InterfaceActionInvoker4IiibP19LinkRef_t2090853131E6InvokeEjP11Il2CppClassP12Il2CppObjectiibS1_
I5d:_DateTime_YearMonthDayFormats_m4204607055
O_h:__ZN30dense_hashtable_const_iteratorINSt3__24pairIK10KeyWrapperIPK19Il2CppGenericMethodEP10MethodInfoEES6_N6il2cpp8metadata23Il2CppGenericMethodHashEN14dense_hash_mapIS6_S9_SD_NS6_14EqualsComparerINSC_26Il2CppGenericMethodCompareEEENS0_9allocatorISA_EEE9SelectKeyESH_SJ_EppEv
Ly:__Z13RegisterClassI13AudioListenerEvv
Lkh:_Aes__ctor_m4020215067
uWb:__Z18Transfer_BlittableI9JSONWriteLb0E8Vector3fEvRK29SerializationCommandArgumentsR31RuntimeSerializationCommandInfo
jT:__ZN13RuntimeStaticI17UniqueIDGeneratorLb0EE13StaticDestroyEPv
Kf:_emscripten_glUniform4i
heg:__ZL46MD5_t1507972490_CustomAttributesCacheGeneratorP21CustomAttributesCache
WIc:__ZNK5physx22NpParticleBaseTemplateINS_15PxParticleFluidENS_15NpParticleFluidEE11getGridSizeEv
Jac:__ZN16RayRTreeCallbackILi0ELb1EED2Ev
Ve:_emscripten_glUniform4f
pba:__ZN6Object22CheckInstanceIDsLoadedEPii
oj:___unlock
L0h:_GC_default_oom_fn
kBf:_InternalEnumerator_1_System_Collections_IEnumerator_Reset_m1561424184_AdjustorThunk
M0d:_Comparer_Compare_m4132969818
bcf:_FormatterConverter__ctor_m3958982477
Sx:__ZN20SoundChannelInstance19setReverbPropertiesEP29FMOD_REVERB_CHANNELPROPERTIES
qCf:_InternalEnumerator_1_System_Collections_IEnumerator_Reset_m2571770313_AdjustorThunk
Rpf:_FieldInfo_get_UMarshal_m1934544188
h$g:__Z68RuntimeInvoker_Void_t1841601450_IntPtr_t_MonoMethodInfoU26_t16045984PK10MethodInfoPvPS2_
brg:__ZL94Collider_t3497673348_CustomAttributesCacheGenerator_Collider_get_attachedRigidbody_m3279305420P21CustomAttributesCache
WPh:__ZN6il2cpp2vm9Exception18GetFormatExceptionEPKc
_8g:__Z56RuntimeInvoker_Void_t1841601450_ResourceInfo_t3933049236PK10MethodInfoPvPS2_
dcg:__ZL55IMessageSink_t2189618969_CustomAttributesCacheGeneratorP21CustomAttributesCache
Nbc:__ZN5physx3Cct17CapsuleController15setClimbingModeENS_21PxCapsuleClimbingMode4EnumE
x2c:__ZN5physx6shdfnd9atomicAddEPVii
I_d:_ArrayList_Sort_m923359189
hZc:__ZN5physx6shdfnd5ArrayINS_3Scb13MaterialEventENS0_19ReflectionAllocatorIS3_EEE6resizeEjRKS3_
Msa:__ZN9GfxDevice31DrawIndexedNullGeometryIndirectE16GfxPrimitiveTypeP9GfxBuffer15ComputeBufferIDj
Lxf:_InternalEnumerator_1_System_Collections_IEnumerator_get_Current_m3088751576_gshared
t8c:__ZNK5physx14SingleAABBTask25updateNumFastMovingShapesEv
j0g:__Z78RuntimeInvoker_Void_t1841601450_Int64_t909078037_Il2CppObject_Int64_t909078037PK10MethodInfoPvPS2_
AKe:_X509Certificate_GetSubjectName_m2120755276
rQc:__ZNK5physx2Cm12DelegateTaskINS_7NpSceneEXadL_ZNS2_12executeSolveEPNS_10PxBaseTaskEEEE7getNameEv
gpg:__ZL58ResourceRequest_t2560315377_CustomAttributesCacheGeneratorP21CustomAttributesCache
gX:__Z11StringToKeyRKN4core12basic_stringIcNS_20StringStorageDefaultIcEEEE
Jrf:_MonoField_CheckGeneric_m1527550038
upd:__ZN5physx17ConvexMeshBuilder16computeGaussMapsEv
JJ:__ZN13RuntimeStaticI15DirectorManagerLb0EE16StaticInitializeEPv
rHe:_AttrListImpl_Add_m130708252
SVf:_Thread_get_ManagedThreadId_m1995754972
lhb:__ZN11TimeManager6UpdateEv
rca:__ZN6Shader18LoadDefaultShadersEv
VSg:_X509Chain_get_Status_m2726750609
qqc:__ZNK5physx2Sc16ArticulationCore22computeImpulseResponseERNS0_8BodyCoreERNS_6PxVec3ES5_RKNS_9PxcFsDataERKS4_SA_
Wbd:__ZN5physx21PxsBodyTransformVaultC2Ev
fNg:_ReadOnlyCollection_1_System_Collections_ICollection_CopyTo_m406069566_gshared
$_d:_ArrayListWrapper_Contains_m1158465965
R9c:__ZL6IsInYZffPPK10VertexInfo
rNe:_BigInteger_op_LessThan_m3825358479
oqd:__ZN5physx19TriangleMeshBuilderD0Ev
qai:_fflush
s8:__ZN17LightProbeContext4InitERK16LightmapSettingsRK14RenderSettings
OWd:_Convert_ToInt32_m55151042
C8h:__GLOBAL__sub_I_Error_cpp
bwg:_Alternation_GetWidth_m4218808325
M8:__ZN9Texture3DD2Ev
o4f:__ZL80Il2CppArray_CustomAttributesCacheGenerator_Array_SetValue_m169741241____indices1P21CustomAttributesCache
e2:__ZN10ColorRGBAf8TransferI19StreamedBinaryWriteILb0EEEEvRT_
Z_e:_TypeConverterAttribute__ctor_m4061167050
ICc:__ZN5physx2CmlsERNS0_12RenderOutputERKNS0_10DebugArrowE
KVh:__ZNSt3__26vectorI20Il2CppStackFrameInfoNS_9allocatorIS1_EEE7reserveEj
GDc:__ZNK5physx15NpActorTemplateINS_7PxClothEE14getOwnerClientEv
nNa:__Z34ProcessIndexListIsNodeVisibleStep2RK22SceneCullingParametersPK9SceneNodePK4AABBR9IndexList
Elb:__ZN10MonoScriptD2Ev
V3:__ZN6prcoreL12RemapGenericI17TexFormatARGB888817TexFormatBGRA8888EEvPKNS_9InnerInfoE
aTc:__ZN5physx7NpScene15SceneCompletion11runInternalEv
h1e:_WebHeaderCollection_Get_m3391944907
pJ:__GLOBAL__sub_I_half_cpp
oTb:__Z39Input_CUSTOM_INTERNAL_get_mousePositionP8Vector3f
qbf:_ServerIdentity__ctor_m1576469955
xya:__ZN9ShaderLab4Pass16SetupPassOptionsEv
xQg:_UnityEvent_4__ctor_m3102731553_gshared
Zg:_JS_Sound_ReleaseInstance
Qea:__ZN13GfxDeviceGLES19DrawBuffersIndirectEP9GfxBufferPK18VertexStreamSourceiP17VertexDeclaration17ShaderChannelMask16GfxPrimitiveType15ComputeBufferIDj
PEh:__ZNK15dense_hashtableINSt3__24pairIK10KeyWrapperINS1_IPK10MethodInfoP11Il2CppClassEEEjEES9_17ReflectionMapHashIS8_EN14dense_hash_mapIS9_jSD_NS9_14EqualsComparerINS0_8equal_toIS8_EEEENS0_9allocatorISB_EEE9SelectKeyESI_SK_E12test_deletedEj
Uid:__ZN5physx16PxsCCDBlockArrayINS_13PxsCCDOverlapELi128EE8pushBackEv
hAg:_InAttribute__ctor_m1401060713
uji:_emscripten_glPixelStorei__wrapper
Fce:_Decimal_System_IConvertible_ToDecimal_m1541432424_AdjustorThunk
Vzb:__Z29Transfer_Blittable_ArrayFieldI18StreamedBinaryReadILb0EEaEvRT_R9ArrayInfoRK23StaticTransferFieldInfo
jUb:__Z21Resources_CUSTOM_LoadP12Il2CppStringP12Il2CppObject
um:FUNCTION_TABLE_diddi
iPh:__ZN6il2cpp6icalls8mscorlib6System5Array8FastCopyEP11Il2CppArrayiS5_ii
Vmd:__ZN5physx2Gu12TriangleMesh7releaseEv
Cne:_Int16_System_IConvertible_ToSingle_m3277935657_AdjustorThunk
xAh:__ZNSt3__26vectorIPK10MethodInfoNS_9allocatorIS3_EEE21__push_back_slow_pathIRKS3_EEvOT_
bch:_AttributeHelperEngine_CheckIsEditorScript_m2980171478
zYe:_SslStreamBase_get_KeyExchangeAlgorithm_m3712013038
$Dg:_InternalRemotingServices__cctor_m3821625125
CSd:_StringBuilder_Insert_m3322917127
A$c:__ZN5physx14PxsAABBManagerD2Ev
iaf:__ZN21InterfaceFuncInvoker0IP24ObjectU5BU5D_t3614634134E6InvokeEjP11Il2CppClassP12Il2CppObject
k7d:_Convert_ToDouble_m3520060872
Oii:_emscripten_glUniform1f__wrapper
_di:dynCall_di
hXe:_SslCipherSuite_ComputeServerRecordMAC_m1876572367
k$c:__ZN5physx16PxsIslandManagerD2Ev
eWb:__Z28RegisterModule_JSONSerializev
bVf:_Interlocked_CompareExchange_m3227034792
Ihf:_HashAlgorithm_get_Hash_m931854461
wCh:_il2cpp_monitor_enter
lPb:__Z20IsHumanControllingUsv
sBa:__ZNK19RenderEventsContext21ExecuteCommandBuffersEijR17ShaderPassContextR15RenderNodeQueueP19ProfilerInformationi
Qqg:__ZL107Physics_t634932869_CustomAttributesCacheGenerator_Physics_RaycastAll_m410413656____queryTriggerInteraction3P21CustomAttributesCache
cac:__ZN26IntersectAnyVsMeshCallbackILi1ELb1EED0Ev
EDc:__ZNK5physx15NpActorTemplateINS_7PxClothEE17getDominanceGroupEv
s_a:__ZN10systeminfo21GetPersistentDataPathEv
Hea:__ZN13GfxDeviceGLES17DestroyGpuProgramEPK10GpuProgram
kle:_GregorianCalendar_GetMonth_m523739832
uob:__Z44InitializeTransferFunctionScriptingTraitsForI18StreamedBinaryReadILb0EEEvR31TransferFunctionScriptingTraits
oJa:__ZNSt3__218__insertion_sort_3IR23CompareReflectionProbesP31RuntimeReflectionProbeBlendInfoEEvT0_S5_T_
Ssb:__ZN12NativeBufferI27Converter_SimpleNativeClassI8GradientEE15SetupForWritingER9ArrayInfo
eW:__ZN12_GLOBAL__N_113StaticDestroyEPv
$me:_Guid_ToString_m51661589
sni:_glUnmapBuffer__wrapper
tae:_DateTime_System_IConvertible_ToUInt32_m1363211018_AdjustorThunk
zjf:_Binder_get_DefaultBinder_m965620943
kbc:__ZN5physx3Cct17CapsuleController11setPositionERKNS_14PxExtendedVec3E
j_b:__ZN8JSONRead21TransferSTLStyleArrayINSt3__26vectorI8Gradient13stl_allocatorIS3_L18MemLabelIdentifier1ELi16EEEEEEvRT_17TransferMetaFlags
vUe:_SecurityParameters_Clear_m3409219757
Jhb:__ZNSt3__218__insertion_sort_3IRNS_6__lessINS_4pairIPKN5Unity4TypeE7Hash128EES8_EEPS8_EEvT0_SC_T_
iub:__ZN10RectOffset8TransferI24GenerateTypeTreeTransferEEvRT_
oVd:_SimpleEnumerator_get_Current_m482975946
VPb:__Z18GetResourceManagerv
Wai:_srand
eFh:__ZNK15dense_hashtableINSt3__24pairIK10KeyWrapperINS1_IPK10MethodInfoP11Il2CppClassEEEjEES9_17ReflectionMapHashIS8_EN14dense_hash_mapIS9_jSD_NS9_14EqualsComparerINS0_8equal_toIS8_EEEENS0_9allocatorISB_EEE9SelectKeyESI_SK_E10test_emptyERK30dense_hashtable_const_iteratorISB_S9_SD_SM_SI_SK_E
fze:_MonoTypeInfo__ctor_m1398838196
ZBc:__ZN5physx7NpShape18setQueryFilterDataERKNS_12PxFilterDataE
lzg:_UriParser_set_DefaultPort_m1159216960
oy:__ZN7Texture34UpdateFileTextureUploadInstructionEP28FileTextureUploadInstructionj
hch:_AudioClip_InvokePCMSetPositionCallback_Internal_m2304858844
sAd:__ZN11UnityEngine15PlatformWrapper25GetGraphicsRendererStringEv
SWg:__Z51RuntimeInvoker_UInt16_t986882611_Decimal_t724701077PK10MethodInfoPvPS2_
Hdd:__ZN5physx20PxcNpCacheStreamPair5resetEv
ysh:__ZNK15dense_hashtableINSt3__24pairIK10KeyWrapperI13dynamic_arrayIPK10Il2CppTypeLj4EEEPFvvEEES8_N6il2cpp8metadata19Il2CppSignatureHashEN14dense_hash_mapIS8_SB_SF_NS8_14EqualsComparerINSE_22Il2CppSignatureCompareEEENS0_9allocatorISC_EEE9SelectKeyESJ_SL_E13find_positionERS9_
iId:_SHA512_Create_m439875055
Ib:invoke_vi
aId:_SHA384Managed_update_m2629600295
Hta:__ZN15dense_hashtableINSt3__24pairIKN4core12basic_stringIcNS2_20StringStorageDefaultIcEEEEP20ArchiveStorageReaderEES6_20StringHash32FunctionIS6_EN14dense_hash_mapIS6_S9_SC_NS0_8equal_toIS6_EE13stl_allocatorISA_L18MemLabelIdentifier54ELi16EEE9SelectKeyESF_SI_ED2Ev
Gb:invoke_vd
Hb:invoke_vf
tR:__ZNK10GameObject8IsActiveEv
sAe:_NumberFormatter__cctor_m1641464619
vff:_SByte_System_IConvertible_ToUInt32_m4256495110
Cna:__ZN18GfxFramebufferGLES23SetupDefaultFramebufferEPP17RenderSurfaceBaseS2_N2gl6HandleILNS3_10ObjectTypeE9EEE
yai:_mbsinit
Ulc:__ZN5physx2Sq16computeWorldAABBERKNS_3Scb5ShapeERKNS1_5ActorE
GG:__ZN13ScreenManager18RequestOrientationE17ScreenOrientation
Poh:__ZN6il2cpp2vm5Class12SetupMethodsEP11Il2CppClass
b8c:__ZN5physx14PxsAABBManager31updateAggregateBPOverlapRecordsEv
lac:__ZN26IntersectAnyVsMeshCallbackILi2ELb1EED0Ev
sRb:__Z39DeleteLastPathNameComponentWithAnySlashRKN4core12basic_stringIcNS_20StringStorageDefaultIcEEEE
HE:__ZN13EmscriptenWWW14BlockUntilDoneEv
bBh:__ZNSt3__26vectorIP11Il2CppClassNS_9allocatorIS2_EEE26__swap_out_circular_bufferERNS_14__split_bufferIS2_RS4_EE
Mfa:__ZN13GfxDeviceGLES17UploadTextureCubeE9TextureIDPKhiii13TextureFormati18TextureUploadFlags17TextureColorSpace
AEg:_MethodCall__ctor_m4106494862
ovd:__ZN5physx7profile10DataBufferINS_6shdfnd6MutexTINS0_26WrapperReflectionAllocatorIhEEEENS0_14ScopedLockImplIS6_EEED2Ev
Ja:invoke_iiifii
RMb:__ZN8GUILayer12AddToManagerEv
QAh:__ZN6il2cpp6icalls8mscorlib6System8MonoType13IsPointerImplEP20Il2CppReflectionType
W6d:_Convert_ToDecimal_m2284596541
xdb:__ZN14Texture2DArray34UpdateFileTextureUploadInstructionEP28FileTextureUploadInstructionj
Hi:_emscripten_glFramebufferRenderbuffer
_kg:__ZL64CipherSuiteCollection_t2431504453_CustomAttributesCacheGeneratorP21CustomAttributesCache
tBg:__ZN21InterfaceFuncInvoker3IP12Il2CppObjectP8String_tS1_PS3_E6InvokeEjP11Il2CppClassS1_S3_S1_S4_
yVe:_TlsServerCertificateRequest_ProcessAsSsl3_m3017921864
oCe:_SimpleCollator_FilterOptions_m4044781893
Upe:_Int64_GetHashCode_m4047499913
bQa:__ZN9Transform30EnsureTransformHierarchyExistsEv
QYc:__ZN5physx2Sc14ConstraintCore15getPxConstraintEv
mrd:__ZNK8Collider12GetRigidbodyEv
MVd:_Attribute_IsDefined_m216577166
Gn:FUNCTION_TABLE_viiiiiiii
NZd:_Char_ToUpper_m109978609
Ozf:_InternalEnumerator_1_get_Current_m1089848479_gshared
ife:_Double_System_IConvertible_ToInt64_m3798425616
Kra:__ZN9GfxDevice19DrawBuffersIndirectEP9GfxBufferPK18VertexStreamSourceiP17VertexDeclaration17ShaderChannelMask16GfxPrimitiveType15ComputeBufferIDj
lFd:_Rijndael_Create_m113171669
vg:___cxa_find_matching_catch_4
LTb:__ZN13MonoBehaviour13StopCoroutineEPKc
paf:_ProviderData_CopyFrom_m431414335
pFa:__ZN14qsort_internal17MedianOfThreeSwapIP17RODataReplacement19ROSorterReplacementEEvT_S4_S4_T0_
_Lg:_Collection_1_System_Collections_IList_Insert_m3303840316_gshared
Gnh:__ZNK15dense_hashtableINSt3__24pairIK10KeyWrapperIPK22Il2CppGenericParameterEP11Il2CppClassEES6_N6il2cpp5utils11PointerHashIS4_EEN14dense_hash_mapIS6_S9_SE_NS6_14EqualsComparerINS0_8equal_toIS5_EEEENS0_9allocatorISA_EEE9SelectKeyESJ_SL_E3endEv
oRb:__ZN17TransformInternal36OnScaleChangedCalculateTransformTypeE15TransformAccess
Gta:__ZN15dense_hashtableINSt3__24pairIKN4core12basic_stringIcNS2_20StringStorageDefaultIcEEEEP20ArchiveStorageReaderEES6_20StringHash32FunctionIS6_EN14dense_hash_mapIS6_S9_SC_NS0_8equal_toIS6_EE13stl_allocatorISA_L18MemLabelIdentifier54ELi16EEE9SelectKeyESF_SI_E4swapERSL_
b0d:_SynchronizedArrayListWrapper_InsertRange_m709359548
dwa:__ZN17ArchiveFileSystem10ToAbsoluteEPKc
lNe:_BigInteger_op_Modulus_m13450242
b6d:_DateTime__ctor_m3604679583
y6b:__ZN25ConvexVsMeshSweepCallbackD2Ev
M7d:_Convert_ToInt32_m2988544165
VGb:__ZL12SetPrefValueRKN4core12basic_stringIcNS_20StringStorageDefaultIcEEEERK9PrefValue
MBb:__ZL30ReconstructParamNamesFromTableIN9ShaderLab20SerializedSubProgram15MatrixParameterEEvRK14dense_hash_mapIiN4core17string_with_labelILi1EEE18SInt32HashFunctionNSt3__28equal_toIiEE13stl_allocatorINS8_4pairIKiS6_EEL18MemLabelIdentifier1ELi16EEERNS8_6vectorIT_NS8_9allocatorISL_EEEE
kM:__ZN19ShaderPropertySheet20ReservePropertyCountEj
aXh:__ZN6il2cpp5utils11StringUtils6PrintfEPKcz
MKh:__ZNSt3__26vectorIN6il2cpp8metadata18GenericArrayMethodENS_9allocatorIS3_EEE7reserveEj
O2:__ZN15NameToObjectMapI6ShaderNSt3__23mapI4PPtrIS0_EN4core12basic_stringIcNS5_20StringStorageDefaultIcEEEENS1_4lessIS4_EENS1_9allocatorINS1_4pairIKS4_S9_EEEEEENS1_8multimapIS9_S4_NSA_IS9_EENSC_INSD_IKS9_S4_EEEEEEE4FindERSK_
jnh:__ZN6il2cpp6icalls8mscorlib6System7Decimal13decimal2Int64EP19il2cpp_decimal_reprPx
nih:_Object_INTERNAL_CALL_Internal_InstantiateSingle_m3932420250
oPe:_PKCS1_Compare_m552424558
xzb:__Z18Transfer_BlittableI18StreamedBinaryReadILb0EELb0EyEvRK29SerializationCommandArgumentsR31RuntimeSerializationCommandInfo
Bza:_UNITY_png_zstream_error
Gnf:_ILGenerator_make_room_m373147874
Qvd:__ZN5physx6shdfnd8PoolBaseINS_24NpPtrTableStorageManager8PtrBlockILi16EEENS0_19ReflectionAllocatorIS4_EEED2Ev
IIf:_Dictionary_2_Init_m1045257495_gshared
Qmi:_emscripten_glLinkProgram__wrapper
Koh:__ZN6il2cpp2vm5Class12GetFinalizerEP11Il2CppClass
jSe:_TlsClientSettings_set_TargetHost_m3421266913
THe:_PKCS1_Verify_v15_m2571212635
z6a:__ZNSt3__212__deque_baseI18ReflectionProbeJobNS_9allocatorIS1_EEED2Ev
SBb:__ZN15dense_hashtableINSt3__24pairIKiN4core17string_with_labelILi1EEEEEi18SInt32HashFunctionN14dense_hash_mapIiS5_S7_NS0_8equal_toIiEE13stl_allocatorIS6_L18MemLabelIdentifier1ELi16EEE9SelectKeyESA_SD_E13set_empty_keyERKS6_
pwc:__ZN5physx2Sc9ShapeCore23setSimulationFilterDataERKNS_12PxFilterDataE
WQd:_DecoderReplacementFallbackBuffer__ctor_m1305504326
h_b:__Z13TransferFieldI8JSONReadLb0E27Converter_SimpleNativeClassI10RectOffsetEEvRK23StaticTransferFieldInfoR31RuntimeSerializationCommandInfoRT1_
NOd:_String_IndexOf_m570401060
b_d:__ZN21InterfaceFuncInvoker0IiE6InvokeEjP11Il2CppClassP12Il2CppObject
Ufe:_Enum_System_IConvertible_ToDateTime_m2924690746
ZYa:__ZN11AssetBundle9AssetInfo8TransferI14SafeBinaryReadEEvRT_
Dhf:_HashAlgorithm_System_IDisposable_Dispose_m2106335965
QSh:__GLOBAL__sub_I_GenericMetadata_cpp
nAe:_NotImplementedException__ctor_m1305569814
p8g:__Z59RuntimeInvoker_Int32_t2071877448_KeyValuePair_2_t1174980068PK10MethodInfoPvPS2_
cAh:__ZN6il2cpp6icalls8mscorlib6System8MonoType18GetFields_internalEP20Il2CppReflectionTypeiS5_
QMa:__Z24CalculateSpotLightBoundsffRK10Matrix4x4fR15SpotLightBounds
KBe:_TailoringInfo__ctor_m2248501932
eZ:__ZNK13RenderTexture21GetShadowSamplingModeEv
FA:__ZN23CloudWebServicesManager23VirtualRedirectTransferER14SafeBinaryRead
A$d:_FixedSizeArrayListWrapper_InsertRange_m2690348965
bnb:__Z19ShouldTransferFieldR32SerializationCommandQueueBuilder17ScriptingClassPtriR18TransferField_InfoRK20CoreScriptingClasses
fYc:__ZNK5physx2Sc5Scene18getNbArticulationsEv
wue:_MemoryStream_Read_m2289595005
lx:__ZN5audio5mixer22UpdateAudioMixerMemoryERKNS0_18AudioMixerConstantERNS0_16AudioMixerMemoryEfPN4FMOD6SystemEf
izd:__ZL21InitializeCachedStripPv
dHd:_SignatureDescription_set_DigestAlgorithm_m3219799565
uOh:__ZN6il2cpp6icalls8mscorlib6System9Threading6Thread23GetCachedCurrentCultureEP12Il2CppThread
Qsg:__ZL94PlayerEditorConnectionEvents_t2252784345_CustomAttributesCacheGenerator_messageTypeSubscribersP21CustomAttributesCache
qFa:__ZNK6Camera22GetWorldToCameraMatrixEv
wVd:_ArrayTypeMismatchException__ctor_m2892687300
WTh:__ZN6il2cpp2vm12GenericClass11IsValueTypeEP18Il2CppGenericClass
TRf:_Dictionary_2_Do_CopyTo_TisKeyValuePair_2_t3716250094_TisIl2CppObject_m715850636_gshared
qmb:__ZN13MonoBehaviour7SetNameEPKc
fQe:_ContentInfo__ctor_m3579805263
K$c:__ZN5physx6shdfnd8PoolBaseINS_2Sc26ActorPairContactReportDataENS0_19ReflectionAllocatorIS3_EEE15disposeElementsEv
A7:__ZN18AwakeFromLoadQueue5ClearEv
Ikd:__ZN5physx6shdfnd5ArrayIfNS0_19ReflectionAllocatorIfEEE8recreateEj
BLa:__ZNSt3__27__sort5IR15ReflProbeSorterPP15ReflectionProbeEEjT0_S6_S6_S6_S6_T_
YCh:__ZNK15dense_hashtableINSt3__24pairIK10KeyWrapperINS1_IPK14Il2CppAssemblyP11Il2CppClassEEEjEES9_17ReflectionMapHashIS8_EN14dense_hash_mapIS9_jSD_NS9_14EqualsComparerINS0_8equal_toIS8_EEEENS0_9allocatorISB_EEE9SelectKeyESI_SK_E12test_deletedEj
kk:_glGenTransformFeedbacks
Nba:__ZN13LoadOperationD2Ev
zGe:_KeyPairPersistence__ctor_m1817312194
p4c:__ZN5physx20PxsSolverCoreGeneral6createEv
cLf:_Array_InternalArray__ICollection_Contains_TisMark_t2724874473_m1640201705_gshared
IAg:_ActivatedClientTypeEntry_get_ContextAttributes_m53051138
Uhc:__ZL29GeomOverlapCallback_SphereBoxRKN5physx10PxGeometryERKNS_11PxTransformES2_S5_PNS_2Gu12TriggerCacheE
C2:__ZNSt3__27__sort5IRPFbRKNS_4pairIN9ShaderLab16FastPropertyNameEN18UnityPropertySheet11UnityTexEnvEEES8_EPS6_EEjT0_SD_SD_SD_SD_T_
gja:__ZNK7ApiGLES18GetExtensionStringEv
kPf:_Array_InternalArray__ICollection_CopyTo_TisSlot_t2267560602_m1792475781_gshared
Pii:_emscripten_glVertexAttrib1f__wrapper
mva:__ZNK12HandlerChain4SizeERK13FileEntryData
vJf:_DefaultComparer_Equals_m1281232537_gshared
C5f:__ZL99RuntimeFieldHandle_t2331729674_CustomAttributesCacheGenerator_RuntimeFieldHandle_Equals_m1202966418P21CustomAttributesCache
Jo:FUNCTION_TABLE_iiiiiiiii
eEc:__ZN5physx7NpCloth15setInertiaScaleEf
Hgf:_DES_IsSemiWeakKey_m3967392585
ZR:__Z24GetComponentOrScriptNameRN5Unity9ComponentE
Ine:_Int16_System_IConvertible_ToUInt32_m883204517_AdjustorThunk
Fsf:_MonoProperty_get_PropertyType_m1921201152
Vnd:__ZN5physx6shdfnd4sortIPvNS0_4LessIS2_EENS0_19ReflectionAllocatorIN17PxcPoolMallocData10PoolData16EEEEEvPT_jRKT0_RKT1_j
d5b:__Z19sweepBox_SphereGeomRKN5physx10PxGeometryERKNS_11PxTransformERKNS_2Gu3BoxERKNS_6PxVec3EfRNS_10PxSweepHitENS_7PxFlagsINS_9PxHitFlag4EnumEtEEf
i1h:_GC_allochblk
Bzd:__ZN22BaseUnityConnectClient19SendAppRunningEventEv
D7:__Z15UnloadGameScenev
nni:_glCheckFramebufferStatus__wrapper
Old:__ZNK5physx13GuMeshFactory15getHeightFieldsEPPNS_13PxHeightFieldEjj
oRf:_Array_InternalArray__set_Item_TisKeyframe_t1449471340_m2314998918_gshared
jcf:_BinaryCommon_IsPrimitive_m2132448955
tGg:_KeyValuePair_2__ctor_m1640124561_AdjustorThunk
_Qc:__ZN5physx2Cm20visualizeJointFramesERNS0_12RenderOutputEfRKNS_11PxTransformES5_
N0d:_CaseInsensitiveHashCodeProvider__ctor_m3775398833
msg:__ZL85UnityEvent_3_t4075366600_CustomAttributesCacheGenerator_UnityEvent_3__ctor_m154939912P21CustomAttributesCache
z9c:__ZN5physx22PxcContactPlaneCapsuleERKNS_2Gu13GeometryUnionES3_RKNS_11PxTransformES6_RKfRNS_10PxcNpCacheERNS0_13ContactBufferE
hEh:__ZNK15dense_hashtableINSt3__24pairIK10KeyWrapperIPK10Il2CppTypeEjEES6_N6il2cpp8metadata14Il2CppTypeHashEN14dense_hash_mapIS6_jSB_NS6_14EqualsComparerINSA_26Il2CppTypeEqualityComparerEEENS0_9allocatorIS8_EEE9SelectKeyESF_SH_E13find_positionERS7_
EX:__ZN8Material10SetTextureEN9ShaderLab16FastPropertyNameEP7Texture
htb:__Z18Transfer_BlittableI24GenerateTypeTreeTransferLb0E8Vector2fEvRK29SerializationCommandArgumentsR31RuntimeSerializationCommandInfo
atb:__Z18Transfer_BlittableI24GenerateTypeTreeTransferLb1EhEvRK29SerializationCommandArgumentsR31RuntimeSerializationCommandInfo
y8b:__ZN5physx2Gu26EPASupportMapPairLocalImplINS0_8CapsuleVENS0_4BoxVEED0Ev
Jbc:__ZN5physx3Cct17CapsuleController9setRadiusEf
zfb:__ZN10VertexData10DeallocateEv
LMh:__ZNSt3__214__split_bufferIiRNS_9allocatorIiEEEC2EjjS3_
hNf:_Array_FindLastIndex_TisIl2CppObject_m3885928623_gshared
pei:dynCall_iiifii
eU:__ZnwjRKSt9nothrow_t
Ijb:__ZNSt3__26vectorIi13stl_allocatorIiL18MemLabelIdentifier12ELi16EEE8__appendEj
E2e:_X500DistinguishedName_Decode_m3070515374
T0:__ZN14SafeBinaryRead19TransferSTLStyleMapINSt3__23mapI39DeprecatedFastPropertyNameSerializationN18UnityPropertySheet11UnityTexEnvENS1_4lessIS3_EENS1_9allocatorINS1_4pairIKS3_S5_EEEEEEEEvRT_17TransferMetaFlags
_Tb:__Z45Register_UnityEngine_MonoBehaviour_IsInvokingv
E0g:__Z65RuntimeInvoker_Void_t1841601450_Int64_t909078037_Int64_t909078037PK10MethodInfoPvPS2_
o0e:_IPv6Address_set_ScopeId_m1442934355
n6f:__ZL72PKCS12_t1362584794_CustomAttributesCacheGenerator_U3CU3Ef__switchU24mapBP21CustomAttributesCache
Adf:_ObjectManager_RaiseOnDeserializedEvent_m512850179
SAc:__ZN5physx9NpPhysics26unregisterDeletionListenerERNS_18PxDeletionListenerE
Rsg:__ZL87PlayerEditorConnectionEvents_t2252784345_CustomAttributesCacheGenerator_connectionEventP21CustomAttributesCache
rng:__ZL86Camera_t189460977_CustomAttributesCacheGenerator_Camera_get_allCamerasCount_m989474043P21CustomAttributesCache
fQb:__Z35UnregisterSerializationCacheBuilderPFv17ScriptingClassPtrR23CachedSerializationDataRbE
t$:__Z30GetBuiltinVectorParamArraySize24BuiltinShaderVectorParam
oDh:__ZNSt3__218uninitialized_copyIPNS_4pairIK10KeyWrapperINS1_IPK14Il2CppAssemblyP11Il2CppClassEEEjEESC_EET0_T_SE_SD_
wBe:_CodePointIndexer__ctor_m797342079
feg:__ZL61KeyedHashAlgorithm_t1374150027_CustomAttributesCacheGeneratorP21CustomAttributesCache
vbb:__ZN21RendererUpdateManager11AddRendererER8Renderer
dIb:__Z13RegisterClassI15ResourceManagerEvv
ttc:__ZNK5physx18NpArticulationLink15getArticulationEv
Sdf:_SerializationEntry_t3485203212_marshal_pinvoke_back
Eeb:__ZN14SafeBinaryRead21TransferSTLStyleArrayI13dynamic_arrayIfLj4EEEEvRT_17TransferMetaFlags
Bgg:__ZL79Thread_t241561612_CustomAttributesCacheGenerator_Thread_GetHashCode_m2038641494P21CustomAttributesCache
bXh:__ZN6il2cpp5utils11StringUtils11Utf16ToUtf8EPKDs
grf:_MonoEventInfo_GetEventInfo_m2331957186
JAd:__ZN11UnityEngine15PlatformWrapper20IsRootedOrJailbrokenEv
e3e:_X509Certificate2_GetNameInfo_m402390219
LMa:__Z33IntersectAABBPlaneBoundsOptimizedRK4AABBPKN4math7_float4Ei
tVd:_Swapper_BeginInvoke_m2652511022
iUf:_UTF8Encoding_GetBytes_m2973831055
Uea:__ZN9GfxDevice19EndGeometryJobFrameEv
b2g:__Z49RuntimeInvoker_SByte_t454417549_Int32_t2071877448PK10MethodInfoPvPS2_
Xsb:__ZN27Converter_SimpleNativeClassI17AnimationCurveTplIfEE17ScriptingToNativeER18ScriptingObjectPtrPS1_
Gae:_DateTime_get_UtcNow_m1309841468
Wtc:__ZN5physx2Sc15CoreInteraction17isCoreInteractionEPNS0_11InteractionE
q7h:__ZN6il2cpp8metadata24Il2CppGenericInstCompare7CompareERK10KeyWrapperIPK17Il2CppGenericInstES8_
Uud:__ZThn132_N5physx7profile8ZoneImplINS_28PxProfileNameProviderForwardEED0Ev
p0b:__ZN5physx3Cct13BoxController17setHalfSideExtentEf
Yqh:__ZNK15dense_hashtableINSt3__24pairIK10KeyWrapperIPK19Il2CppGenericMethodEPK26Il2CppGenericMethodIndicesEES6_N6il2cpp8metadata23Il2CppGenericMethodHashEN14dense_hash_mapIS6_SA_SE_NS6_14EqualsComparerINSD_26Il2CppGenericMethodCompareEEENS0_9allocatorISB_EEE9SelectKeyESI_SK_E5beginEv
RUe:_TlsClientSettings_get_ClientCertificate_m89435195
Knf:__ZN21InterfaceFuncInvoker1IiP12MemberInfo_tE6InvokeEjP11Il2CppClassP12Il2CppObjectS1_
X8g:__Z54RuntimeInvoker_Void_t1841601450_ILTokenInfo_t149559338PK10MethodInfoPvPS2_
mwg:_AnchorInfo_get_IgnoreCase_m2406760852
Ura:__ZN9GfxDevice22UploadTextureCubeArrayE9TextureIDPKhjii13TextureFormati18TextureUploadFlags17TextureColorSpace
XIb:__ZNK17AnimationCurveTplIfE8EvaluateEfPNS0_5CacheE
nxa:__Z31ManagerContextInitializeClassesv
fAh:__ZNSt3__213__vector_baseIP9FieldInfoNS_9allocatorIS2_EEED2Ev
JXe:_TlsException_get_Alert_m4022765752
bPc:__ZNK5physx15NpActorTemplateINS_13PxRigidStaticEE8getSceneEv
O6h:__ZN6il2cpp6icalls8mscorlib6System7Runtime8Remoting10Activation18ActivationServices34AllocateUninitializedClassInstanceEP20Il2CppReflectionType
MY:__ZNSt3__26vectorIP10MemoryPool13stl_allocatorIS2_L18MemLabelIdentifier72ELi16EEE21__push_back_slow_pathIKS2_EEvRT_
dP:__ZN9Scripting30SetCachedPtrOnScriptingWrapperE18ScriptingObjectPtrP6Object
Ot:__ZNK12AudioManager26GetTypeInfoVirtualInternalEv
Evb:__Z18Transfer_BlittableI19StreamedBinaryWriteILb0EELb0EdEvRK29SerializationCommandArgumentsR31RuntimeSerializationCommandInfo
LXa:__ZN17LowLevelAllocator6MallocEj
oQd:_ASCIIEncoding_GetBytes_m3649277167
CVg:__Z49RuntimeInvoker_Char_t3454481338_Int32_t2071877448PK10MethodInfoPvPS2_
CHf:_Dictionary_2__ctor_m2457723796_gshared
YCg:_Context_GetProperty_m1664740450
X7e:_IntervalCollection_Normalize_m538796191
h1f:_Version__ctor_m2972638031
GEc:__ZN5physx7NpCloth19setCollisionSpheresEPKNS_22PxClothCollisionSphereEj
OEe:_Kernel_MultiplyByDword_m155008287
Udb:__ZN4MeshD0Ev
NDd:__ZL42RequestRecreateEyeTexturesBeforeNextUpdatev
hfc:__ZN5physx6shdfnd8internal8HashBaseIPNS_3Scb4BaseES5_NS0_4HashIS5_EENS1_11HashSetBaseIS5_S7_NS0_9AllocatorELb1EE6GetKeyES9_Lb1EE6createERKS5_Rb
eYc:__ZN5physx2Sc5Scene16getArticulationsEv
J_:__ZNK6Camera20IsCurrentlyRenderingEv
UYe:_SslStreamBase_Read_m1036897444
weg:__ZL58RijndaelManaged_t1034060848_CustomAttributesCacheGeneratorP21CustomAttributesCache
gXb:__Z18Transfer_BlittableI9JSONWriteLb0EdEvRK29SerializationCommandArgumentsR31RuntimeSerializationCommandInfo
L2a:__ZN6Camera8TransferI19StreamedBinaryWriteILb0EEEEvRT_
zve:_TextReader__ctor_m3276128267
aJg:_List_1_System_Collections_Generic_ICollectionU3CTU3E_get_IsReadOnly_m3598018290_gshared
MNg:_ReadOnlyCollection_1_System_Collections_IList_Insert_m3679749778_gshared
t9h:_wctomb
hSb:__Z27Camera_CUSTOM_GetAllCamerasP11Il2CppArray
rmb:__ZNK13MonoBehaviour25GetNeedsPerObjectTypeTreeEv
Rci:__ZNSt11logic_errorD0Ev
H4d:_Convert_InternalFromBase64String_m3682756716
Pc:___cxa_rethrow
Jmd:__ZN5physx20InternalTriangleMesh17allocateFaceRemapEv
EYb:__Z18Transfer_BlittableI8JSONReadLb1EhEvRK29SerializationCommandArgumentsR31RuntimeSerializationCommandInfo
Vii:_glBindRenderbuffer__wrapper
YPb:__ZN10systeminfo23SupportsLocationServiceEv
rC:__ZNKSt3__26__treeINS_12__value_typeIN4core12basic_stringIcNS2_20StringStorageDefaultIcEEEES6_EENS_19__map_value_compareIS6_S7_NS_4lessIS6_EELb1EEENS_9allocatorIS7_EEE4findIS6_EENS_21__tree_const_iteratorIS7_PNS_11__tree_nodeIS7_PvEEiEERKT_
Kvg:_Regex_System_Runtime_Serialization_ISerializable_GetObjectData_m4035555909
iXf:_TimeSpan_Add_m3228293154
fmh:_Enumerator_Reset_m950879083
wQa:__ZN13MonoBehaviour8SetClassE17ScriptingClassPtr18ScriptingObjectPtr
MPe:_RC4__cctor_m523650203
nUc:__ZNK5physx7NpScene26getBounceThresholdVelocityEv
O_c:__ZN5physx6shdfnd8PoolBaseINS_2Sc12SimStateDataENS0_19ReflectionAllocatorIS3_EEE15disposeElementsEv
EDg:_CrossContextDelegate_Invoke_m2908136830
kkh:_Locale_GetText_m3480617287
RLe:_ApplicationIdentity_ToString_m800036884
Okf:_ConstructorBuilder_get_CallingConvention_m443074051
aKa:__ZNSt3__211__sift_downIRN23ForwardShaderRenderLoop18RenderObjectSorterILb0EEEP21ForwardRenderPassDataEEvT0_S7_T_NS_15iterator_traitsIS7_E15difference_typeES7_
Oya:__Z20PlayerUpdateCanvasesv
yxe:_UnmanagedMemoryStream_get_Position_m4093669769
mcg:__ZL83MethodDictionary_t1742974787_CustomAttributesCacheGenerator_U3CU3Ef__switchU24map21P21CustomAttributesCache
Gmb:__ZN13MonoBehaviour5DoGUIENS_13GUILayoutTypeEii
YMe:_Kernel_Multiply_m1938858919
_Wa:__ZNK12TLSAllocatorI14StackAllocatorE8ContainsEPKv
nhb:__ZN11TimeManager8TransferI18StreamedBinaryReadILb0EEEEvRT_
Amd:__ZNK5physx13GuMeshFactory19getNbTriangleMeshesEv
iGb:__ZN15SerializeTraitsINSt3__23mapI4PPtrI6ShaderEN4core12basic_stringIcNS5_20StringStorageDefaultIcEEEENS0_4lessIS4_EENS0_9allocatorINS0_4pairIKS4_S9_EEEEEEE8TransferI24GenerateTypeTreeTransferEEvRSH_RT_
UHe:_EncryptedPrivateKeyInfo__ctor_m3964541963
Sgf:_DESTransform__cctor_m1179482644
QJf:_EqualityComparer_1_System_Collections_IEqualityComparer_GetHashCode_m1465362976_gshared
jih:_Object_t1021602117_marshal_pinvoke_cleanup
geb:__ZN14BlendShapeData8TransferI14SafeBinaryReadEEvRT_
E5b:__ZN5physx2Gu15getPolygonIndexERKNS0_13PolygonalDataEPNS0_12SupportLocalERKNS_6shdfnd3aos5Vec3VE
dge:_Enum_Format_m2294492821
Hfd:__ZN5physx36normalizePartitionsWithArticulationsERNS_6shdfnd5ArrayIjNS0_19ReflectionAllocatorIjEEEEPNS_23PxcSolverConstraintDescEPKNS_13PxcSolverBodyEjjS5_Pjj
whg:__ZL81Convert_t2607082565_CustomAttributesCacheGenerator_Convert_ToDateTime_m3810846875P21CustomAttributesCache
O7a:__ZN7Texture25ReloadFromStorageIfNeededEPvb
bkb:__ZN24GenerateTypeTreeTransfer8TransferINSt3__26vectorIN30RuntimeInitializeOnLoadManager15ClassMethodInfoE13stl_allocatorIS4_L18MemLabelIdentifier12ELi16EEEEEEvRT_PKc17TransferMetaFlags
AW:__Z20RegisterLogToConsolePFvRKN4core12basic_stringIcNS_20StringStorageDefaultIcEEEEiPKciiiiPFvRK11CppLogEntryEE
JXc:__ZN5physx2Sq17SceneQueryManager17processSimUpdatesEv
YFf:_ShimEnumerator_get_Entry_m2332479818_gshared
$ae:_DateTime_CheckDateTimeKind_m329345155_AdjustorThunk
igh:_PlayableHandle_Equals_m1435096530_AdjustorThunk
rPh:__ZN6il2cpp6icalls8mscorlib6SystemL15ThrowNoWideningEv
opc:__ZN5physx6shdfnd5ArrayIPvNS0_19ReflectionAllocatorINS_13NpRigidStaticEEEE15growAndPushBackERKS2_
fJb:__ZNK23TransformChangeDispatch24GetChangeMaskForInterestENS_12InterestTypeE
Mdi:dynCall_viiiiiiiiiii
QWc:__ZN5physx10PxsContext25setVisualizationParameterENS_24PxVisualizationParameter4EnumEf
DWa:__ZL10KeyHandleriPK23EmscriptenKeyboardEventPv
$sh:__ZN14dense_hash_mapI10KeyWrapperI13dynamic_arrayIPK10Il2CppTypeLj4EEEPFvvEN6il2cpp8metadata19Il2CppSignatureHashENS6_14EqualsComparerINSA_22Il2CppSignatureCompareEEENSt3__29allocatorINSF_4pairIKS6_S8_EEEEEC2EjRKSB_RKSE_
q1:__ZNSt3__26__treeINS_12__value_typeI39DeprecatedFastPropertyNameSerializationfEENS_19__map_value_compareIS2_S3_NS_4lessIS2_EELb1EEENS_9allocatorIS3_EEE7destroyEPNS_11__tree_nodeIS3_PvEE
usd:__ZN8Collider16TransformChangedEi
v5b:__ZN24ConvexVsHeightfieldSweepC2ERN5physx2Gu15HeightFieldUtilERKNS1_14ConvexHullDataERKNS0_11PxMeshScaleERKNS0_11PxTransformESC_RKNS0_6PxVec3EfNS0_7PxFlagsINS0_9PxHitFlag4EnumEtEEfbb
Zbh:_AsyncOperation_get_allowSceneActivation_m2825451182
JXf:_TimeSpan_op_Addition_m3421801803
psb:__ZL26Transfer_SimpleNativeClassI17RemapPPtrTransfer10RectOffsetLb0EEvRK29SerializationCommandArgumentsR31RuntimeSerializationCommandInfo
VMb:__ZN16GraphicsSettings12CleanupClassEv
Qld:__ZN5physx13GuMeshFactory17createHeightFieldERNS_13PxInputStreamE
CJg:_List_1__ctor_m2672294496_gshared
bae:_DateTime_System_IConvertible_ToInt32_m2789391054_AdjustorThunk
wFe:_ASN1Convert_FromInt32_m1541043489
o5d:_Convert_ToByte_m1008221737
NOe:_MD2Managed_MD2Transform_m3825201358
L9a:__ZN21EnlightenSceneMapping16BuildRemapTablesEv
jdc:__ZNK5physx2Cm12RenderBuffer8getTextsEv
SCb:__ZNSt3__26vectorIN9ShaderLab20SerializedSubProgram13BufferBindingENS_9allocatorIS3_EEEC2ERKS6_
lob:__ZNSt3__26vectorI4PPtrI10MonoScriptE13stl_allocatorIS3_L18MemLabelIdentifier76ELi16EEE8__appendEj
v$:__ZNK9ShaderLab20ShaderBlendStateDesc15ToGfxBlendStateEPK19ShaderPropertySheetS3_R13GfxBlendState
W6f:__ZL92Hashtable_t909839986_CustomAttributesCacheGenerator_Hashtable_t909839986____hcp_PropertyInfoP21CustomAttributesCache
E6g:__Z64RuntimeInvoker_Boolean_t3825574718_PlayableHandleU26_t3483893774PK10MethodInfoPvPS2_
V0c:__ZN5physx2Sq8AABBTree11shiftOriginERKNS_6PxVec3E
hxc:__ZNK5physx2Sc16ArticulationCore26getMaxProjectionIterationsEv
UFb:__ZN9ShaderLab9IntShaderC2Ev
XAh:__ZN6il2cpp6icalls8mscorlib6SystemL9IsPrivateEPK9EventInfo
O5h:__ZN6il2cpp6icalls8mscorlib6System10Reflection4Emit11TypeBuilder20setup_internal_classEP27Il2CppReflectionTypeBuilderS7_
Lod:__ZN5physx11AdjacenciesD2Ev
cyf:_InternalEnumerator_1_System_Collections_IEnumerator_Reset_m3237341717_AdjustorThunk
pRc:__ZN5physx6shdfnd8PoolBaseINS_2Sc24ElementInteractionMarkerENS0_19ReflectionAllocatorIS3_EEE12allocateSlabEv
o0c:__ZN5physx2Sq16BucketPrunerCore11shiftOriginERKNS_6PxVec3E
Vvf:_ArrayReadOnlyList_1_IndexOf_m1809425308_gshared
B8g:__Z61RuntimeInvoker_Int32_t2071877448_ResourceCacheItem_t333236149PK10MethodInfoPvPS2_
bCh:_il2cpp_gc_disable
U8g:__Z72RuntimeInvoker_Void_t1841601450_CustomAttributeTypedArgument_t1498197914PK10MethodInfoPvPS2_
Q3e:_X509Chain_GetSubjectKeyIdentifier_m4232927227
z2d:_Hashtable_Clone_m165405752
smd:__ZN5physx6shdfnd8internal8HashBaseIPNS_2Gu11HeightFieldES5_NS0_4HashIS5_EENS1_11HashSetBaseIS5_S7_NS0_9AllocatorELb1EE6GetKeyES9_Lb1EE5eraseERKS5_
cXc:__ZN5physx6shdfnd5ArrayIPNS_3Scb5ShapeENS0_19ReflectionAllocatorIS4_EEE6resizeEjRKS4_
NUg:__Z140RuntimeInvoker_Boolean_t3825574718_Il2CppObject_Int32_t2071877448_Il2CppObject_SByte_t454417549_Int64U26_t763825331_ExceptionU26_t1467204777PK10MethodInfoPvPS2_
Hcc:__ZN5physx3Cct15ObstacleContextD2Ev
feh:_Component_BroadcastMessage_m444672650
cAd:__ZN11UnityEngine15PlatformWrapper19GetPhysicalMemoryMBEv
SH:__Z15CreateDirectoryRKN4core12basic_stringIcNS_20StringStorageDefaultIcEEEE
F8:__Z21CalculateGlobalMatrix23TransformAccessReadOnly
R5f:__ZL70InternalsVisibleToAttribute_t1037732567_CustomAttributesCacheGeneratorP21CustomAttributesCache
cse:_MonoIO_GetCurrentDirectory_m1509324201
dId:_SHA384Managed_adjustByteCounts_m410900820
iTd:_UTF32Encoding_GetHashCode_m4205784236
OTe:_Context_get_ReceivedConnectionEnd_m3369356276
z1c:__ZN5physx2Cm10FanoutTaskC2EPKc
YZc:__ZNK5physx2Sc5Scene17prefetchForRemoveERKNS0_8BodyCoreE
bIb:__Z13RegisterClassI14RenderSettingsEvv
GXf:_TimeSpan_Subtract_m3597791685_AdjustorThunk
Nmc:__ZN5physx2Sc8RigidSimD2Ev
xrf:_MonoField_get_FieldType_m598011426
dyb:__Z29Transfer_Blittable_ArrayFieldI18StreamedBinaryReadILb1EE5RectTIfEEvRT_R9ArrayInfoRK23StaticTransferFieldInfo
Ueh:_Logger__ctor_m3834134587
pWc:__ZNK5physx13NpVolumeCache7raycastERKNS_6PxVec3ES3_fRNS_13PxHitCallbackINS_12PxRaycastHitEEENS_7PxFlagsINS_9PxHitFlag4EnumEtEERKNS_17PxQueryFilterDataEPNS_21PxQueryFilterCallbackE
rfa:__ZNK9GfxDevice27GetActiveRenderSurfaceWidthEv
MYa:__ZNK11AssetBundle26GetTypeInfoVirtualInternalEv
MRg:_PKCS12_get_Keys_m1312614820
Vbd:__ZN5physx16PxsIslandManagerC2EjRNS_19PxcScratchAllocatorEPNS_2Cm13EventProfilerE
uAd:__ZN11UnityEngine15PlatformWrapper28GetCleanGraphicsFixedVersionEv
CVa:__ZN16MemoryFileSystem5WriteER13FileEntryDatayyPvPy
w:tempBigIntP
kgh:_PlayableHandle_GetHashCode_m1257452282_AdjustorThunk
x7e:_Interval_t2354235237_marshal_pinvoke_cleanup
M8c:__ZN5physx13ActorAABBTask11runInternalEv
yVd:_AssemblyLoadEventHandler_Invoke_m108373765
UEh:__ZN15dense_hashtableINSt3__24pairIK10KeyWrapperINS1_IPK10MethodInfoP11Il2CppClassEEEjEES9_17ReflectionMapHashIS8_EN14dense_hash_mapIS9_jSD_NS9_14EqualsComparerINS0_8equal_toIS8_EEEENS0_9allocatorISB_EEE9SelectKeyESI_SK_E8min_sizeEjj
Mwh:__ZL24UnresolvedVirtualCall_76P12Il2CppObjectPK10MethodInfo
I4:__ZN6prcoreL17RemapGenericFloatI18TexFormatRGBAFloat17TexFormatRGBAHalfEEvPKNS_9InnerInfoE
_Cc:__ZN5physx7PxShapeD0Ev
iyc:__ZN16PxOverflowBufferIN5physx12PxOverlapHitEED0Ev
HNc:__ZN5physx14NpRigidDynamic18setKinematicTargetERKNS_11PxTransformE
Pmh:_WebRequestUtils__cctor_m893658947
D9a:__ZN10GISettings8TransferI14SafeBinaryReadEEvRT_
jn:FUNCTION_TABLE_vifff
cjh:_Physics_Raycast_m4027183840
dZ:__ZN13RenderTexture13ApplySettingsEv
_fg:__ZL92UTF8Encoding_t111055448_CustomAttributesCacheGenerator_UTF8Encoding_GetByteCount_m2547312609P21CustomAttributesCache
Oe:_JS_Sound_SetListenerPosition
an:FUNCTION_TABLE_fiffi
Gof:_ModuleBuilderTokenGenerator_GetToken_m3427457873
Qlb:__ZN9TextAsset9SetScriptERKN4core12basic_stringIcNS0_20StringStorageDefaultIcEEEEb
Jkc:__ZN5physx2Sc11Interaction12onDeactivateEj
gUh:__ZNK15dense_hashtableINSt3__24pairIK10KeyWrapperINS1_IPKcS4_EEEiEES6_24NamespaceAndNamePairHashN14dense_hash_mapIS6_iS9_NS6_14EqualsComparerI26NamespaceAndNamePairEqualsEENS0_9allocatorIS8_EEE9SelectKeyESD_SF_E10test_emptyERK24dense_hashtable_iteratorIS8_S6_S9_SH_SD_SF_E
_Dc:__ZN5physx7NpCloth21setLinearInertiaScaleENS_6PxVec3E
cig:__ZL78Convert_t2607082565_CustomAttributesCacheGenerator_Convert_ToSByte_m2585959569P21CustomAttributesCache
I0f:_UnauthorizedAccessException__ctor_m3480402128
LEe:_BigInteger_op_Modulus_m3788401748
eEg:_ArgInfo_GetInOutArgs_m3184132151
N6:__ZNK8Material16MarkDependenciesER27GarbageCollectorThreadState
xgg:__ZL85Thread_t241561612_CustomAttributesCacheGenerator_Thread_get_CurrentThread_m3667342817P21CustomAttributesCache
iXb:__ZL17Transfer_GUIStyleI9JSONWriteLb0EEvRK29SerializationCommandArgumentsR31RuntimeSerializationCommandInfo
CEa:__Z28GetHaloVertexPositionsStereoP8Vector3fRKS_S2_f
hyd:__ZN17TriggerStayStates20executeDeferredEraseEv
y5:__ZN6prcoreL27StretchGenericFloatBilinearI15TexFormatRGHalfEEvPKNS_9InnerInfoE
ksg:__ZL85UnityEvent_1_t4075366602_CustomAttributesCacheGenerator_UnityEvent_1__ctor_m152711818P21CustomAttributesCache
iHg:_Enumerator_MoveNext_m598197344_AdjustorThunk
afh:_DisplaysUpdatedDelegate_Invoke_m3646339243
d8c:__ZN5physx14PxsAABBManager22processAggregateSingleERKNS_19AggregateSortedDataERKNS_9AggregateEjPNS_2Cm10BitMapBaseINS_6shdfnd9AllocatorEEE
tPd:_String_JoinUnchecked_m1880555587
M$:__ZNK9ShaderLab7Program21GetMatchingSubProgramEPK6ShaderPKNS_4PassERK16ShaderKeywordSetjPS7_R19ShaderSnippetResult
VPf:_Array_InternalArray__Insert_TisKeyValuePair_2_t1174980068_m2464431954_gshared
Ymg:__ZL109AsyncOperation_t3814632279_CustomAttributesCacheGenerator_AsyncOperation_set_allowSceneActivation_m3988498951P21CustomAttributesCache
Qcd:__ZN5physx2Sc17ParticleSystemSim20scheduleCollisionCpuERNS0_16InteractionSceneERKNS_6shdfnd5ArrayIPS1_NS4_19ReflectionAllocatorIS6_EEEERNS_10PxBaseTaskE
aS:__ZNK6Object12GetClassNameEv
mIf:_Dictionary_2_U3CCopyToU3Em__0_m1479035402_gshared
u0d:_BitArray_set_Item_m3801461194
Unh:__ZN15dense_hashtableINSt3__24pairIK10KeyWrapperIPK22Il2CppGenericParameterEP11Il2CppClassEES6_N6il2cpp5utils11PointerHashIS4_EEN14dense_hash_mapIS6_S9_SE_NS6_14EqualsComparerINS0_8equal_toIS5_EEEENS0_9allocatorISA_EEE9SelectKeyESJ_SL_E3endEv
dPd:_String_Remove_m3580114465
AUe:_TlsClientCertificate_Update_m3781462820
AEb:__ZN9ShaderLab22SerializedBindChannels8TransferI19StreamedBinaryWriteILb0EEEEvRT_
w4f:__ZL65Il2CppArray_CustomAttributesCacheGenerator_Array_Copy_m1969461849P21CustomAttributesCache
$0e:_WebHeaderCollection_AddWithoutValidate_m1479880592
RAg:_UrlAttribute_get_UrlValue_m3448699483
YHc:__ZN5physx15NpParticleFluidD0Ev
uog:__ZL83GameObject_t1756533147_CustomAttributesCacheGenerator_GameObject_set_tag_m717375123P21CustomAttributesCache
j0f:_UIntPtr__ctor_m2737768530
dwb:__Z29Transfer_Blittable_ArrayFieldI19StreamedBinaryWriteILb0EE11ColorRGBA32EvRT_R9ArrayInfoRK23StaticTransferFieldInfo
XUb:__Z50Register_UnityEngine_Object_FindSceneObjectsOfTypev
lud:__ZN5physx7profile8ZoneImplINS_28PxProfileNameProviderForwardEE19handleClientRemovedEv
R0:__ZNSt3__26__treeINS_12__value_typeIN4core12basic_stringIcNS2_20StringStorageDefaultIcEEEES6_EENS_19__map_value_compareIS6_S7_NS_4lessIS6_EELb1EEE13stl_allocatorIS7_L18MemLabelIdentifier1ELi16EEE7destroyEPNS_11__tree_nodeIS7_PvEE
uOg:_Nullable_1__ctor_m796575255_gshared
h0h:__ZN6il2cpp2vm8Profiler7GCEventE13Il2CppGCEvent
lae:_DateTimeUtils_ToString_m3878360633
qPh:__ZN6il2cpp6icalls8mscorlib6SystemL16ThrowInvalidCastEPK11Il2CppClassS5_
pib:__ZN12AspectRatios8TransferI24GenerateTypeTreeTransferEEvRT_
qec:__Z12FormatBufferPciPKcz
I2b:__ZN37ConvexVsMeshContactGenerationCallback10processHitERKN5physx12PxRaycastHitERKNS0_6PxVec3ES6_S6_RfPKj
Ff:_emscripten_glUniform1fv
Znf:_MethodBuilder_Invoke_m1874904900
eoh:__ZN6il2cpp2vm5Class13GetArrayClassEP11Il2CppClassj
Zu:__ZN4FMOD7Channel7setModeEj
yE:__ZN13EmscriptenWWW6CancelEv
qZe:_TlsStream_SetLength_m1460039587
Vvh:__ZL24UnresolvedVirtualCall_31P12Il2CppObjectiS0_S0_PK10MethodInfo
hb:invoke_difi
rji:_glDeleteSamplers__wrapper
DT:__ZL50StaticRegisterSceneLoadedCallback_LightmapSettingsPv
K$d:_SimpleEnumerator_Clone_m215554974
EHa:__ZN29MotionVectorRenderLoopScratch15ThreadedCleanupEv
Fm:FUNCTION_TABLE_iiffi
xEc:__ZNK5physx7NpCloth24getSeparationConstraintsEPNS_35PxClothParticleSeparationConstraintE
l0g:__Z81RuntimeInvoker_Boolean_t3825574718_SByte_t454417549_Il2CppObject_SByte_t454417549PK10MethodInfoPvPS2_
yah:__Z44RuntimeInvoker_ParameterModifier_t1820634920PK10MethodInfoPvPS2_
Zja:__ZN21GLESGpuProgramApplier11ApplyVectorERKN20GpuProgramParameters14ValueParameterEPK8Vector4ft
lMa:__Z17PrepareSceneNodesP11CullResults
KN:__ZN19RuntimeSceneManager19UnloadSceneInternalEP10UnityScene
v5:__ZN6prcoreL27StretchGenericFloatBilinearI18TexFormatRGBAFloatEEvPKNS_9InnerInfoE
Gxg:_Parser_IsIgnoreCase_m4155598997
iSh:__ZN15dense_hashtableINSt3__24pairIK10KeyWrapperIP14Il2CppIUnknownEjEES5_N6il2cpp5utils11PointerHashIS3_EEN14dense_hash_mapIS5_jSB_NS5_14EqualsComparerINS0_8equal_toIS4_EEEENS0_9allocatorIS7_EEE9SelectKeyESG_SI_E12expand_arrayEjN21dense_hash_map_traits17integral_constantIbLb0EEE
yfd:__ZN5physx6shdfnd5ArrayINS_17PxcSolverBodyDataENS0_16AlignedAllocatorILj128ENS0_19ReflectionAllocatorIS2_EEEEE6resizeEjRKS2_
X0b:__ZN5physx2Cm12RenderOutputlsEj
ESa:__ZN6Camera34UpdatePreviousViewProjectionMatrixEv
P$:__ZN9ShaderLab11ShaderState25RemoveUnsupportedProgramsEPK6Shader
lFb:__ZL23AddGpuProgramParametersR20GpuProgramParametersRKNSt3__26vectorIN9ShaderLab20SerializedSubProgram15MatrixParameterENS1_9allocatorIS5_EEEERKNS2_INS4_15VectorParameterENS6_ISB_EEEEiP16PropertyNamesSet
Bmg:__ZL179U3CCreateWhereIteratorU3Ec__Iterator1D_1_t2523986802_CustomAttributesCacheGenerator_U3CCreateWhereIteratorU3Ec__Iterator1D_1_System_Collections_IEnumerator_get_Current_m1354814095P21CustomAttributesCache
PUb:__Z44Register_UnityEngine_Object_DestroyImmediatev
t7f:__ZL57CompareOptions_t2829943955_CustomAttributesCacheGeneratorP21CustomAttributesCache
NSb:__Z47Register_UnityEngine_Component_BroadcastMessagev
Hq:__ZN18StreamedBinaryReadILb0EE21TransferSTLStyleArrayI13dynamic_arrayI4PPtrI6ObjectELj4EEEEvRT_17TransferMetaFlags
cbg:__ZL62_ConstructorBuilder_t1236878896_CustomAttributesCacheGeneratorP21CustomAttributesCache
wQb:__Z26scripting_class_has_parent17ScriptingClassPtrS_
zpe:_Int64_System_IConvertible_ToInt16_m2022633688_AdjustorThunk
mBe:_OrdinalComparer__ctor_m2952942058
p8h:__ZN6il2cpp8metadata25Il2CppGenericClassCompare7CompareEPK18Il2CppGenericClassS4_
qMd:_Encoding_get_Unicode_m1382741113
qCg:_LifetimeServices_set_SponsorshipTimeout_m1403222216
Qle:_NumberFormatInfo_get_PositiveSign_m3396333026
DZg:__Z64RuntimeInvoker_Single_t2076509932_Il2CppObject_Int32_t2071877448PK10MethodInfoPvPS2_
SZd:_Char_ToString_m1401375624_AdjustorThunk
lOf:_Array_InternalArray__ICollection_Add_TisTableRange_t2011406615_m147373358_gshared
u6d:_Convert_ToDateTime_m1251728572
SDc:__ZN5physx7NpCloth13setTargetPoseERKNS_11PxTransformE
nOf:_Array_InternalArray__ICollection_Add_TisBoolean_t3825574718_m1009318882_gshared
adf:_ObjectReader_ReadObjectContent_m3949770110
beh:_Component_SendMessage_m4199581575
$ca:__ZZ19InitializeGfxDevice20GfxCreateDeviceFlagsEN38PreLateUpdateEndGraphicsJobsLatestruct7ForwardEv
Eph:__ZN6il2cpp2vm5Class40GetInterfaceInvokeDataFromVTableSlowPathEPK12Il2CppObjectPK11Il2CppClassj
w4a:__ZN20TierGraphicsSettings8TransferI18StreamedBinaryReadILb0EEEEvRT_
nEg:_AsyncResult_get_NextSink_m1172723924
jMh:__GLOBAL__sub_I_Thread_cpp
a1:__ZN14SafeBinaryRead8TransferINSt3__24pairIN9ShaderLab16FastPropertyNameE10ColorRGBAfEEEEvRT_PKc17TransferMetaFlags
Umh:__ZL9rshift128PyS_
Wcf:_ObjectReader_RecordFixup_m1893348030
Ylf:_EnumBuilder_GetElementType_m1228393631
fJh:__ZN14dense_hash_mapI10KeyWrapperINSt3__24pairIPK12PropertyInfoP11Il2CppClassEEEj17ReflectionMapHashIS8_ENS9_14EqualsComparerINS1_8equal_toIS8_EEEENS1_9allocatorINS2_IKS9_jEEEEE13set_empty_keyERSH_
Xj:_glRenderbufferStorage
kUh:__ZNK15dense_hashtableINSt3__24pairIK10KeyWrapperINS1_IPKcS4_EEEiEES6_24NamespaceAndNamePairHashN14dense_hash_mapIS6_iS9_NS6_14EqualsComparerI26NamespaceAndNamePairEqualsEENS0_9allocatorIS8_EEE9SelectKeyESD_SF_E13find_positionERS7_
E8f:__ZL80ILGenerator_t99948092_CustomAttributesCacheGenerator_ILGenerator_Emit_m116557729P21CustomAttributesCache
J1f:__ZL43Il2CppObject_CustomAttributesCacheGeneratorP21CustomAttributesCache
yAd:__ZN11UnityEngine15PlatformWrapper28GetTextureFormatSupportFlagsEv
JOd:_String_CompareOrdinalCaseInsensitiveUnchecked_m2002640463
nXd:_Boolean_GetHashCode_m1894638460
wVc:__ZNK5physx2Sc5Scene29getMaxNbContactDataBlocksUsedEv
KLe:_AppDomainInitializer_BeginInvoke_m2446455399
u0f:_UIntPtr_ToUInt32_m1679632738_AdjustorThunk
NTf:_UTF7Encoding_InternalGetChars_m4157428055
y8:__Z33InterpolateLightProbeCoefficientsRK17LightProbeContextRK29LightProbeSamplingCoordinatesR20SphericalHarmonicsL2
XGe:_SmallXmlParser_HandleBufferedContent_m3397096753
Tg:_glDisable
Qxf:_InternalEnumerator_1_MoveNext_m1994485778_AdjustorThunk
Ab:invoke_vffff
EQh:_KeyValuePair_2_get_Value_m1916631176_AdjustorThunk
Tjf:_MethodBase__ctor_m3951051358
M6a:__ZN4PPtrI9Texture2DE8TransferI14SafeBinaryReadEEvRT_
wXh:__ZN6il2cpp5utils11StringUtils15StringDuplicateEPKDsj
Q5e:_BaseMachine_Scan_m122450399
C_d:_ArrayList_CopyTo_m2353632788
h9f:__ZL71AssemblyFileVersionAttribute_t2897687916_CustomAttributesCacheGeneratorP21CustomAttributesCache
v6b:__ZN5physx10getInverseERNS_7PxMat33ERNS_6PxVec3ERKS0_RKS2_
zT:__ZNSt3__26vectorINS_4pairIyP17VertexDeclarationEENS_9allocatorIS4_EEE6assignIPS4_EENS_9enable_ifIXaasr21__is_forward_iteratorIT_EE5valuesr16is_constructibleIS4_NS_15iterator_traitsISB_E9referenceEEE5valueEvE4typeESB_SB_
RJg:_List_1_Add_m943275925_gshared
soi:b119
Ohf:_HMAC_get_BlockSizeValue_m603907214
XHa:__ZNK8Material12GetPassCountEv
W3d:_Enumerator__cctor_m3784927209
boi:b110
coi:b111
doi:b112
ldi:_bitshift64Ashr
foi:b114
goi:b115
hoi:b116
D0:__ZNK8Material26GetTypeInfoVirtualInternalEv
O1c:__ZN5physx6shdfnd5ArrayIPhNS0_19ReflectionAllocatorIS2_EEE8recreateEj
zla:__ZN4crnd12crn_unpacker22decode_alpha_endpointsEv
lNa:__Z23CullDynamicObjectsUmbraPK4AABBPKN5Umbra15OcclusionBufferER9IndexList
XSf:_Array_InternalArray__get_Item_TisContactPoint_t1376425630_m3234597783_gshared
s7g:__Z86RuntimeInvoker_Void_t1841601450_Il2CppObject_StringU26_t638738783_StringU26_t638738783PK10MethodInfoPvPS2_
Eyb:__ZN18StreamedBinaryReadILb1EE21TransferSTLStyleArrayI13dynamic_arrayIiLj4EEEEvRT_17TransferMetaFlags
uL:__ZN17DirectorFrameTime14ResetDSPValuesEv
MQg:_GeneralNames_ToString_m800435094
Gdg:__ZL73AsymmetricSignatureDeformatter_t3580832979_CustomAttributesCacheGeneratorP21CustomAttributesCache
nVe:_TlsServerCertificate_validateCertificates_m1988583701
psa:__ZN9GfxDevice20SetComputeBufferDataE15ComputeBufferIDPKvj
h_f:_UInt16_Parse_m3560204090
L_b:__ZN8JSONRead21TransferSTLStyleArrayI13dynamic_arrayIsLj2EEEEvRT_18MemLabelIdentifier17TransferMetaFlags
Lu:__ZN4FMOD7Channel11setPositionEjj
Lh:_glBindSampler
CU:__Z22CreateMutexLockedQueuev
EMd:_SecurityFrame_get_Domain_m3219347572_AdjustorThunk
euc:__ZN5physx2Sc8BodyCore20clearSpatialVelocityEbb
Oh:_glGetVertexAttribiv
pHd:_SHA1__ctor_m788472966
pOf:_Array_InternalArray__ICollection_Add_TisChar_t3454481338_m422084244_gshared
Hqh:__ZNSt3__218uninitialized_fillIPNS_4pairIK10KeyWrapperIPKcEP11Il2CppClassEES9_EEvT_SB_RKT0_
e_c:__ZN5physx6shdfnd5ArrayINS_9PxBounds3ENS0_15InlineAllocatorILj192ENS0_19ReflectionAllocatorIS2_EEEEE8recreateEj
tAg:_OutAttribute__ctor_m1447235100
hjg:__ZL52EventArgs_t3289624707_CustomAttributesCacheGeneratorP21CustomAttributesCache
SZb:__ZN8JSONRead8TransferIbEEvRT_PKc17TransferMetaFlagsb
Fhc:__ZN5physx6shdfnd5ArrayIPvNS0_19ReflectionAllocatorINS_2Sc24ElementInteractionMarkerEEEE4copyINS0_15InlineAllocatorILj256ES6_EEEEvRKNS1_IS2_T_EE
ILg:_Collection_1_RemoveAt_m290627370_gshared
JBc:__ZNK5physx7NpShape15getGeometryTypeEv
Qgh:_DefaultValueAttribute_Equals_m3216982933
_1e:_X509KeyUsageExtension_Decode_m3292847033
PT:__ZN26SharedLightmapSettingsDataD2Ev
Iqf:_Module_filter_by_type_name_ignore_case_m3574895736
vcg:__ZL57ProxyAttribute_t4031752430_CustomAttributesCacheGeneratorP21CustomAttributesCache
n9a:__ZN26CustomRenderTextureManager19PreAllocateMaterialEP19CustomRenderTexture
yec:__ZN19ControllerHitReport13onObstacleHitERKN5physx23PxControllerObstacleHitE
Shd:__ZN18ScBeforeSolverTaskD0Ev
Ccf:_ObjectReader_ReadObject_m397855326
S0h:_GC_promote_black_lists
D_b:__Z29Transfer_Blittable_ArrayFieldI8JSONRead8Vector4fEvRT_R9ArrayInfoRK23StaticTransferFieldInfo
ILc:__ZN5physx22NpParticleBaseTemplateINS_16PxParticleSystemENS_16NpParticleSystemEE16releaseParticlesEjRKNS_16PxStrideIteratorIKjEE
$n:FUNCTION_TABLE_vd
SYf:_Type_GetMethod_m1930231379
bo:FUNCTION_TABLE_vi
Obf:_WellKnownServiceTypeEntry_ToString_m493996021
WPb:__ZN10systeminfo24GetRuntimePlatformStringEv
s5c:__ZN5physxL25solveContact4_StaticBlockEPKNS_23PxcSolverConstraintDescERNS_16PxcSolverContextE
bcg:__ZL51IMessage_t3044378324_CustomAttributesCacheGeneratorP21CustomAttributesCache
lCe:_SimpleCollator_GetContraction_m1391584430
qXd:_CultureInfo_get_InvariantCulture_m398972276
SWd:_Boolean_System_IConvertible_ToInt64_m4142756949_AdjustorThunk
ong:__ZL84Camera_t189460977_CustomAttributesCacheGenerator_Camera_get_targetTexture_m705925974P21CustomAttributesCache
BOe:_HMAC_initializePad_m3828610671
J9g:__Z94RuntimeInvoker_Void_t1841601450_Int32U5BU5DU26_t1341332175_Int32_t2071877448_Int32_t2071877448PK10MethodInfoPvPS2_
nbc:__ZNK5physx3Cct17CapsuleController15getFootPositionEv
sTc:__ZN5physx7NpScene15removeAggregateERNS_11PxAggregateEb
YGd:_RSAParameters_t1462703416_marshal_pinvoke_cleanup
wCg:_ConfigHandler_OnChars_m2004226744
Xbh:_AsyncOperation_get_priority_m966065939
ua:invoke_iiifiii
CPh:__ZN6il2cpp2vm9Exception11FromNameMsgEPK11Il2CppImagePKcS6_S6_
Cle:_NumberFormatInfo_get_NumberDecimalDigits_m3706097953
EYf:_Type_internal_from_name_m1506974323
z5c:__ZN5physx25solveContact_BStaticBlockEPKNS_23PxcSolverConstraintDescEjRNS_16PxcSolverContextE
N4a:__ZN5LightD2Ev
JL:__Z14GetTimeManagerv
K6g:__Z67RuntimeInvoker_Void_t1841601450_Scene_t1684909666_Int32_t2071877448PK10MethodInfoPvPS2_
I0a:__Z12GUIDToStringRK9UnityGUIDPc
k_a:__ZN15FileSystemEntry4LockE12FileLockModeP12FileAccessor
wKf:_Array_get_swapper_TisIl2CppObject_m1701356863_gshared
a4b:__ZL4facejjjRN5physx6PxVec3ERKS0_S3_S3_PfRf
oXc:__ZN5physx6shdfnd5ArrayIPNS_2Sc14ConstraintCoreENS0_19ReflectionAllocatorIS4_EEE6resizeEjRKS4_
tXh:__ZN4utf88internal20is_overlong_sequenceIiEEbjT_
BIc:__ZN5physx22NpParticleBaseTemplateINS_15PxParticleFluidENS_15NpParticleFluidEE18setProjectionPlaneERKNS_6PxVec3Ef
Q$d:_SynchronizedArrayListWrapper_get_Count_m4104930530
Jhf:_HashAlgorithm_get_HashSize_m2625667696
pgd:__ZL18getFrictionPatchesRN5physx26PxcFrictionPatchStreamPairERNS_20PxcCorrelationBufferEPKhjRKNS_11PxTransformES8_f
hKd:_SecurityPermission_IsSubsetOf_m1087302418
CIa:__Z14SetupLightmapsRK8Vector4fS1_R17ShaderPassContext
A7e:_Interval_get_Empty_m3170923997
WIb:__Z20DestroyObjectDelayedP6Objectf
eF:__ZN20DynamicHeapAllocatorI17LowLevelAllocatorED0Ev
Srd:__ZN8Collider16RecreateColliderEPK9Rigidbody
tDe:_PreviousInfo__ctor_m1442166472_AdjustorThunk
RFa:__ZN9DepthPassD2Ev
Jae:_DateTime_get_Kind_m1331920314_AdjustorThunk
Ft:__ZN11AudioFilter6GetDSPEv
Kph:__ZN13Il2CppHashMapIPKcP11Il2CppClassN6il2cpp5utils11StringUtils12StringHasherIS1_EENS6_21CaseSensitiveComparerENSt3__29allocatorINSA_4pairIK10KeyWrapperIS1_ES3_EEEEEC2EjRKS8_RKS9_
Tyc:__ZN5physx2Sc14ConstraintCore9setBodiesEPNS0_9RigidCoreES3_
JN:__ZN19RuntimeSceneManager14CanUnloadSceneEP10UnityScene
fGa:__Z22ExtractRenderNodeQueueRK11CullResults15ExtractionFlagsR15RenderNodeQueue
$Yh:__ZN6il2cpp2vm6Method7GetNameEPK10MethodInfo
bwd:__ZN5physx6shdfnd8PoolBaseINS_24NpPtrTableStorageManager8PtrBlockILi64EEENS0_19ReflectionAllocatorIS4_EEE12allocateSlabEv
Ts:__ZN24AudioScriptBufferManagerC2Ev
ICd:__ZN13RuntimeStaticI19UnityConnectServiceLb0EE13StaticDestroyEPv
mXd:_Boolean_Equals_m294106711_AdjustorThunk
WWf:_TimeSpan_get_Hours_m3804628138_AdjustorThunk
qWb:__Z18Transfer_BlittableI9JSONWriteLb0EfEvRK29SerializationCommandArgumentsR31RuntimeSerializationCommandInfo
qZ:__Z21GetAsyncUploadManagerv
zj:_emscripten_glDetachShader
xne:_Int16_System_IConvertible_ToInt64_m733340257
o0f:_UIntPtr__cctor_m889490270
tBe:_SafeHandleZeroOrMinusOneIsInvalid_get_IsInvalid_m2033528032
$qc:__ZNK5physx2Sc15ArticulationSim16createDriveCacheEfj
Lka:__ZN17GenericDynamicVBO20ReleaseChunkInternalERK21DynamicVBOChunkHandlejj
I9a:__ZN14SafeBinaryRead21TransferSTLStyleArrayI13dynamic_arrayI7Hash128Lj8EEEEvRT_17TransferMetaFlags
sBe:_SafeHandleZeroOrMinusOneIsInvalid__ctor_m3340306667
R9h:_fmodl
V9e:_SerializationInfo_AddValue_m902275108
cai:_fmodf
ffc:__ZN5physx6shdfnd5ArrayIPNS_3Scb5ActorENS0_19ReflectionAllocatorIS4_EEE6resizeEjRKS4_
n_:__ZN12CachedWriter11Align4WriteEv
hHa:__Z20DoDeferredRenderLoopR17RenderLoopContextR13dynamic_arrayI16RenderObjectDataLj4EES4_RK11CullResultsRP13RenderTextureSA_Pb
nba:__ZNSt3__26vectorIiNS_9allocatorIiEEE21__push_back_slow_pathIKiEEvRT_
Vba:__ZN19RuntimeSceneManager11CreateSceneEv
Qlc:__ZN5physx15PxsArticulationC2Ev
Mng:__ZL96Component_t3819376471_CustomAttributesCacheGenerator_Component_GetComponentsInParent_m4192184629P21CustomAttributesCache
cJa:__Z27SetupBakedOcclusionForLightbRK15SharedLightDataR17ShaderPassContext
U6h:__ZN6il2cpp2os5Mutex6UnlockEv
O$e:__ZN21InterfaceFuncInvoker1IP13Uri_t19570940S1_E6InvokeEjP11Il2CppClassP12Il2CppObjectS1_
Xzc:__ZN5physx7NpScene14removeMaterialERNS_10NpMaterialE
plc:__ZN5physx16PxsIslandManager24setEdgeArticulationJointERKNS_20PxsIslandManagerHookIjLj4294967295EEE
N8b:__ZN5physx2Gu15HeightFieldUtil19OverlapTraceSegmentI25CapsuleTraceSegmentReportE10visitCellsERKNS4_11OverlapLineE
t7c:__ZN5physx16PxsBroadPhaseMBP7destroyEv
Ytc:__ZN5physx2Sc10NPhaseCore25addToDirtyInteractionListEPNS0_15CoreInteractionE
rci:__ZN10__cxxabiv116__shim_type_infoD2Ev
mHf:_Dictionary_2_CopyToCheck_m1638253305_gshared
qBa:__Z18RenderImageFiltersR10RenderLoopb
SE:__Z19free_alloc_internalPv18MemLabelIdentifier
d0a:__ZNK23ArchiveStorageConverter16GetDirectoryInfoEv
OQa:__ZN10GameObjectD2Ev
ENg:_ReadOnlyCollection_1_System_Collections_Generic_IListU3CTU3E_set_Item_m25653560_gshared
uhd:__ZN5physx2Cm12DelegateTaskINS_2Sc5SceneEXadL_ZNS3_19islandGenSecondPassEPNS_10PxBaseTaskEEEE11runInternalEv
Qqf:_MonoCMethod_Invoke_m931478014
Zfh:_UnityEventBase_RebuildPersistentCallsIfNeeded_m1583202007
pzc:__ZN5physx6shdfnd4sortIPvNS0_4LessIS2_EENS0_19ReflectionAllocatorINS_10NpMaterialEEEEEvPT_jRKT0_RKT1_j
BQe:_CertificateSelectionCallback_Invoke_m2902629105
dT:__ZN10InputEventD2Ev
Xke:_DateTimeFormatInfo_GetAllDateTimePatternsInternal_m1587126173
lmh:_Vector2_ToString_m775491729_AdjustorThunk
PKd:_Evidence__ctor_m1638117806
kYf:_Type_get_IsInterface_m3583817465
THh:__ZNK15dense_hashtableINSt3__24pairIK10KeyWrapperIPK14Il2CppAssemblyEPK16MonoAssemblyNameEES6_N6il2cpp5utils11PointerHashIS4_EEN14dense_hash_mapIS6_SA_SF_NS6_14EqualsComparerINS0_8equal_toIS5_EEEENS0_9allocatorISB_EEE9SelectKeyESK_SM_E3endEv
Kyf:_InternalEnumerator_1_Dispose_m3578333724_AdjustorThunk
wGd:_RSA_ToXmlString_m4145056574
aX:__Z20SetPlayerPauseDirect11PlayerPause
tfe:_Double_System_IConvertible_ToUInt64_m1318285078_AdjustorThunk
tcc:__ZN5physx3Cct15ObstacleContext13onOriginShiftERKNS_6PxVec3E
A9h:_isalpha
hSc:__ZN5physx6shdfnd8PoolBaseINS_2Gu31SpherePersistentContactManifoldENS0_19ReflectionAllocatorIS3_EEE12allocateSlabEv
Nlc:__ZN5physx6shdfnd5ArrayIPNS_2Sc7BodySimENS0_19ReflectionAllocatorIS4_EEE8recreateEj
R$a:__ZN17FileSystemHandler5TouchER13FileEntryData
nae:_DateTimeUtils_ZeroPad_m86470512
V7g:__Z73RuntimeInvoker_Boolean_t3825574718_CustomAttributeNamedArgument_t94157543PK10MethodInfoPvPS2_
Hyh:__ZN6il2cpp2vmL17IsSocketAsyncCallEP14Il2CppDelegate
Gch:_Camera_get_clearFlags_m1743144302
jhh:_Logger_IsLogTypeAllowed_m1750132386
s$h:__ZN6il2cpp2vm6String6NewLenEPKcj
v2a:__ZN6Camera23VirtualRedirectTransferER19StreamedBinaryWriteILb0EE
_Zh:__ZN6il2cpp2os6Thread12GetApartmentEv
Fsa:__ZN9GfxDevice28UpdateComputeConstantBuffersEjP12ObjectHandleI18ConstantBuffer_TagPvEjjPKhPKjS8_PKi
Pk:_time
Agc:__ZNK5physx2Sc8ShapeSim15getPxsRigidCoreEv
Ehc:__ZN5physx2Sc20ContactStreamManager28fillInContactReportExtraDataEPNS_17PxContactPairPoseEjRKNS0_8RigidSimEb
k7f:__ZL64DebuggerBrowsableState_t944457511_CustomAttributesCacheGeneratorP21CustomAttributesCache
TEc:__ZN5physx7NpCloth23removeCollisionTriangleEj
gO:__ZN15dense_hashtableINSt3__24pairIKiP6ObjectEEi21InstanceIDHashFunctorN14dense_hash_mapIiS4_S6_NS0_8equal_toIiEE13stl_allocatorIS5_L18MemLabelIdentifier65ELi16EEE9SelectKeyES9_SC_E12resize_deltaEjj
Gzg:_ReliabilityContractAttribute__ctor_m1496374289
x3c:__ZNK5physx2Gu29EPASupportMapPairRelativeImplINS0_9TriangleVENS0_11ConvexHullVEE9doSupportERKNS_6shdfnd3aos5Vec3VERS7_SA_SA_
zmg:__ZL83U3CCreateWhereIteratorU3Ec__Iterator1D_1_t2523986802_CustomAttributesCacheGeneratorP21CustomAttributesCache
xDh:__ZN15dense_hashtableINSt3__24pairIK10KeyWrapperINS1_IPK9FieldInfoP11Il2CppClassEEEjEES9_17ReflectionMapHashIS8_EN14dense_hash_mapIS9_jSD_NS9_14EqualsComparerINS0_8equal_toIS8_EEEENS0_9allocatorISB_EEE9SelectKeyESI_SK_E4findERSA_
Mmi:_glDeleteSync__wrapper
Qlh:_SerializePrivateVariables__ctor_m806793207
T6d:_Decimal_op_Implicit_m623319612
u8:__ZNK9Transform21GetLocalToWorldMatrixEv
UVf:_ThreadAbortException__ctor_m1623816114
KJb:__ZN13ProduceHelperI30RuntimeInitializeOnLoadManagerLb0EE7ProduceE18MemLabelIdentifier18ObjectCreationMode
ZOa:__ZN13RenderTexture19SetAutoGenerateMipsEb
f3:__Z20GetTextureFormatInfo13TextureFormat
_Lb:__Z40InitializeLightAnimationBindingInterfacev
xoh:__ZN6il2cpp2vm5Class4InitEP11Il2CppClass
FLg:_Collection_1_InsertItem_m1391780791_gshared
Axb:__ZN18StreamedBinaryReadILb1EE5AlignEv
h5h:__ZN6il2cpp5utils10MemoryPool6MallocEj
ks:__ZN11SoundHandle8InstanceD2Ev
hV:__ZN31CanvasBatchIntermediateRenderer13StaticDestroyEPv
PTg:_X509Store_BuildCrlsCollection_m52567568
jVc:__ZN5physx13NpVolumeCache13onOriginShiftERKNS_6PxVec3E
suh:__ZNK15dense_hashtableINSt3__24pairIK10KeyWrapperIPK11Il2CppClassEPKcEES6_N6il2cpp5utils11PointerHashIS3_EEN14dense_hash_mapIS6_S9_SE_NS6_14EqualsComparerINS0_8equal_toIS5_EEEENS0_9allocatorISA_EEE9SelectKeyESJ_SL_E10test_emptyERK24dense_hashtable_iteratorISA_S6_SE_SN_SJ_SL_E
OVc:__ZNK5physx2Sc5Scene20getBroadPhaseRegionsEPNS_22PxBroadPhaseRegionInfoEjj
Odf:_CallbackHandler__ctor_m1235509347
cge:_Enum_ToString_m662345249
aIg:_List_1_get_Capacity_m531373308_gshared
Rji:_emscripten_glBindProgramARB__wrapper
Aog:__ZL77Gradient_t3600583008_CustomAttributesCacheGenerator_Gradient_Init_m4156899649P21CustomAttributesCache
Qdg:__ZL66DESCryptoServiceProvider_t933603253_CustomAttributesCacheGeneratorP21CustomAttributesCache
QSb:__Z41Register_UnityEngine_CullingGroup_Disposev
_vc:__ZN5physx14NpShapeManagerD2Ev
g8a:__ZN7Cubemap23VirtualRedirectTransferER19StreamedBinaryWriteILb0EE
zua:__ZN25MultiBlocksMemoryFileData5WriteEyyPKv
FXg:__Z78RuntimeInvoker_Il2CppObject_Int64_t909078037_Int64_t909078037_Int64_t909078037PK10MethodInfoPvPS2_
sGh:__ZNSt3__218uninitialized_fillIPNS_4pairIK10KeyWrapperINS1_IPK12PropertyInfoP11Il2CppClassEEEjEESB_EEvT_SD_RKT0_
Muf:_Action_1_BeginInvoke_m1305519803_gshared
vxa:__ZZ23InitPlayerLoopCallbacksvEN47InitializationAsyncUploadTimeSlicedUpdatestruct7ForwardEv
BIh:__ZN14dense_hash_mapI10KeyWrapperIPK10Il2CppTypeEjN6il2cpp8metadata14Il2CppTypeHashENS4_14EqualsComparerINS6_26Il2CppTypeEqualityComparerEEENSt3__29allocatorINSB_4pairIKS4_jEEEEE13set_empty_keyERSE_
CSb:__Z35Component_CUSTOM_SendMessageUpwardsP12Il2CppObjectP12Il2CppStringS0_i
Jma:__ZL17ProgramUniform2fvPK7ApiGLESjiihPKv
K4f:__ZL65Il2CppArray_CustomAttributesCacheGenerator_Array_Sort_m4096942812P21CustomAttributesCache
nvc:__ZN5physx2Sc5Scene16removeConstraintERNS0_14ConstraintCoreE
p0a:__ZN13Lz4CompressorD0Ev
Qai:_htonl
Xha:__Z20GetBufferManagerGLESv
Jzb:__ZN18StreamedBinaryReadILb0EE21TransferSTLStyleArrayI31ArrayOfManagedObjectsTransfererEEvRT_17TransferMetaFlags
fZc:__ZN5physx2Sc18ParticleSystemCore18addDeltaVelocitiesERKNS_2Cm10BitMapBaseINS_6shdfnd9AllocatorEEEPKNS_6PxVec3Ef
MIf:_Dictionary_2_CopyTo_m1495142643_gshared
Rai:_htons
XYb:__Z18Transfer_BlittableI8JSONReadLb0EtEvRK29SerializationCommandArgumentsR31RuntimeSerializationCommandInfo
_dd:__ZN5physx6shdfnd8PoolBaseINS_2Sc16ActorElementPairENS0_19ReflectionAllocatorIS3_EEE12allocateSlabEv
JUg:__Z49RuntimeInvoker_Int32_t2071877448_Int64_t909078037PK10MethodInfoPvPS2_
u8a:__ZNK7Cubemap20GetTextureLayerCountEv
zAc:__ZNK5physx9NpPhysics17getNbClothFabricsEv
mXh:__ZNSt3__212basic_stringIDsNS_11char_traitsIDsEENS_9allocatorIDsEEE9__grow_byEjjjjjj
ou:__ZN12AudioManager21FixMasterGroupRoutingEv
MId:_SymmetricAlgorithm_set_Key_m2973350820
b1e:_WebHeaderCollection_IsHeaderValue_m1723393133
_1d:_Hashtable__ctor_m4280223555
CYh:__ZN6il2cpp2os10ThreadImpl33UnregisterCurrentThreadForCleanupEv
Ood:__ZL10UpdateLinkjjjjPN5physx11AdjTriangleERKNS_17ADJACENCIESCREATEE
Gng:__ZL97Component_t3819376471_CustomAttributesCacheGenerator_Component_GetComponentInChildren_m3985003615P21CustomAttributesCache
gkc:__ZN5physx2Sc16InteractionScene19registerInteractionEPNS0_11InteractionEb
Sob:__Z18Transfer_BlittableI14SafeBinaryReadLb1E4AABBEvRK29SerializationCommandArgumentsR31RuntimeSerializationCommandInfo
X4c:__ZN5physx19solveContactCoulombERKNS_23PxcSolverConstraintDescERNS_16PxcSolverContextE
BVg:__Z67RuntimeInvoker_Void_t1841601450_Int16_t4041245914_Int32_t2071877448PK10MethodInfoPvPS2_
w8h:__ZN6il2cpp8metadata26Il2CppGenericMethodCompare6EqualsEPK19Il2CppGenericMethodS4_
tG:__ZNK13ScreenManager16GetScreenTimeoutEv
shc:__ZNK5physx2Sc9ActorPair23createContactReportDataEv
Zs:__ZN9AudioClip7WWWOpenEPKciPjPPvS4_
etc:__ZN5physx18NpArticulationLink18setAngularVelocityERKNS_6PxVec3Eb
n4g:__Z79RuntimeInvoker_Void_t1841601450_Il2CppObject_Int32_t2071877448_Int64_t909078037PK10MethodInfoPvPS2_
Lob:__Z18Transfer_BlittableI14SafeBinaryReadLb0E8Vector2fEvRK29SerializationCommandArgumentsR31RuntimeSerializationCommandInfo
w0e:_IPv6Address_SwapUShort_m1481806078
XL:__ZN13RuntimeStaticINSt3__23setI19RepeatingLogMessageNS0_4lessIS2_EE13stl_allocatorIS2_L18MemLabelIdentifier70ELi16EEEELb0EE16StaticInitializeEPv
Gc:_emscripten_glVertexAttrib2f
xCb:__ZN15SerializeTraitsIN9ShaderLab20SerializedSubProgram16TextureParameterEE8TransferI14SafeBinaryReadEEvRS2_RT_
SXd:_Byte_System_IConvertible_ToInt16_m1575115635_AdjustorThunk
GBg:_CrossAppDomainData_get_ProcessID_m2865289777
M$c:__ZN5physx6shdfnd8PoolBaseINS_2Sc19ShapeInstancePairLLENS0_19ReflectionAllocatorIS3_EEE15disposeElementsEv
XZf:_UInt16_System_IConvertible_ToUInt16_m1646506872_AdjustorThunk
p3b:__ZN5physx2Gu12PolygonalBoxC2ERKNS_6PxVec3E
q7b:__ZN5physx2Gu14sweepTriSphereERKNS_10PxTriangleERKNS_6PxVec3ES6_fS6_Rf
KCe:_SimpleCollator_CompareQuick_m619038530
NYe:_SslStreamBase_EndRead_m1072850679
CQe:_CertificateSelectionCallback_BeginInvoke_m990408067
Hsa:__ZN9GfxDevice22DispatchComputeProgramE12ObjectHandleI18ComputeProgram_TagPvEjjj
$c:_SDL_GetTicks
FKe:_X509CertificateEnumerator_System_Collections_IEnumerator_get_Current_m1643583406
qFh:__ZN15dense_hashtableINSt3__24pairIK10KeyWrapperINS1_IPK11Il2CppImageP11Il2CppClassEEEjEES9_17ReflectionMapHashIS8_EN14dense_hash_mapIS9_jSD_NS9_14EqualsComparerINS0_8equal_toIS8_EEEENS0_9allocatorISB_EEE9SelectKeyESI_SK_E6insertERKSB_
SMa:__Z21CreateShadowCullerJobP30CreateUmbraShadowCullerJobData
YEc:__ZNK5physx7NpCloth21getNbVirtualParticlesEv
Kgd:__ZN5physx17PxcNpMemBlockPool23releaseConstraintBlocksERNS_6shdfnd5ArrayIPNS_13PxcNpMemBlockENS1_19ReflectionAllocatorIS4_EEEE
Bma:__ZL18ProgramUniform2uivPK7ApiGLESjiihPKv
rli:_glUniform4iv__wrapper
SJa:__Z33GenerateShadowCasterPartsSortDataRK16ShadowCasterDatajRK15RenderNodeQueueRKNSt3__26vectorI20ShadowCasterPartData13stl_allocatorIS7_L18MemLabelIdentifier2ELi16EEEERK10Matrix4x4fRjP20ShadowCasterSortData
VIf:_Dictionary_2_ToTKey_m4209561517_gshared
$tc:__ZN5physx2Sq17SceneQueryManager13markForUpdateEPNS0_10ActorShapeE
UI:__GLOBAL__sub_I_runtime_gfxdevice_lump_cpp
Ybh:_AsyncOperation_set_priority_m3581020444
m1h:_GC_expand_hp_inner
zsh:__ZNK15dense_hashtableINSt3__24pairIK10KeyWrapperI13dynamic_arrayIPK10Il2CppTypeLj4EEEPFvvEEES8_N6il2cpp8metadata19Il2CppSignatureHashEN14dense_hash_mapIS8_SB_SF_NS8_14EqualsComparerINSE_22Il2CppSignatureCompareEEENS0_9allocatorISC_EEE9SelectKeyESJ_SL_E12test_deletedEj
wTh:__ZNK15dense_hashtableI10KeyWrapperIP18Il2CppGenericClassES3_N6il2cpp8metadata22Il2CppGenericClassHashEN14dense_hash_setIS3_S6_NS3_14EqualsComparerINS5_25Il2CppGenericClassCompareEEENSt3__29allocatorIS3_EEE8IdentityESA_SD_E12test_deletedEj
gwb:__Z29Transfer_Blittable_ArrayFieldI19StreamedBinaryWriteILb0EEsEvRT_R9ArrayInfoRK23StaticTransferFieldInfo
iXh:__ZN4utf812find_invalidIPKcEET_S3_S3_
v5e:_X509ExtensionCollection_System_Collections_ICollection_CopyTo_m3421329346
G0h:_GC_err_printf
Imf:_FieldBuilder_SetValue_m3109503557
n3e:_X509Certificate2_Verify_m1574874641
O3d:_SortedList_GetEnumerator_m1318483481
nUd:_Array_CreateInstance_m3327690220
qqe:_IntPtr__ctor_m2996690883_AdjustorThunk
EZg:__Z64RuntimeInvoker_Double_t4078015681_Il2CppObject_Int32_t2071877448PK10MethodInfoPvPS2_
bQ:__ZN14SerializedFile7ReleaseEv
l4f:__ZL69Il2CppArray_CustomAttributesCacheGenerator_Array_GetValue_m1507415734P21CustomAttributesCache
zVa:__ZN16MemoryFileSystem4OpenER13FileEntryData14FilePermission16FileAutoBehavior
wWg:__Z52RuntimeInvoker_UInt64_t2909196914_Decimal_t724701077PK10MethodInfoPvPS2_
VU:__ZN13RuntimeStaticI13RendererSceneLb0EE13StaticDestroyEPv
Oy:__ZN12AudioManager12CleanupClassEv
Gtb:__Z18Transfer_BlittableI24GenerateTypeTreeTransferLb1E12PropertyNameEvRK29SerializationCommandArgumentsR31RuntimeSerializationCommandInfo
XLb:__ZN5Light15InitializeClassEv
Bhb:__ZN14SafeBinaryRead21TransferSTLStyleArrayI10vector_mapIPKN5Unity4TypeE7Hash128NSt3__24lessIS5_EENS7_9allocatorINS7_4pairIS5_S6_EEEEEEEvRT_17TransferMetaFlags
Ys:__ZN9AudioClip18GetQueuedAudioDataEPPvj
M8g:__Z59RuntimeInvoker_Void_t1841601450_DictionaryEntry_t3048875398PK10MethodInfoPvPS2_
WAf:_InternalEnumerator_1_Dispose_m4175113225_AdjustorThunk
ZXh:__ZN6il2cpp2os5posix15PosixWaitObject13InterruptWaitEv
WEc:__ZNK5physx7NpCloth16getCollisionDataEPNS_22PxClothCollisionSphereEPjPNS_21PxClothCollisionPlaneES3_PNS_24PxClothCollisionTriangleE
CFa:__Z18SetShadowsKeywordsR17ShaderPassContext9LightType10ShadowType16ShadowProjectionbb
eJh:__ZN14dense_hash_mapI10KeyWrapperINSt3__24pairIPK12PropertyInfoP11Il2CppClassEEEj17ReflectionMapHashIS8_ENS9_14EqualsComparerINS1_8equal_toIS8_EEEENS1_9allocatorINS2_IKS9_jEEEEEC2EjRKSB_RKSF_
MLb:__ZN17CollisionMeshDataC2Ev
Tif:_Assembly_GetModule_m2064378601
nig:__ZL79Convert_t2607082565_CustomAttributesCacheGenerator_Convert_ToUInt16_m3866680988P21CustomAttributesCache
p0c:__ZN5physx2Sq11PruningPool11preallocateEj
u9a:__ZN16LightmapSettings23VirtualRedirectTransferER19StreamedBinaryWriteILb0EE
gih:_MessageTypeSubscribers__ctor_m743474932
gli:_glTexParameteriv__wrapper
Maa:__ZN18IDCollectorFunctor18GenerateInstanceIDEi17TransferMetaFlags
DQf:_Array_InternalArray__set_Item_TisTableRange_t2011406615_m2386708730_gshared
FUg:__Z40RuntimeInvoker_Il2CppObject_Il2CppObjectPK10MethodInfoPvPS2_
wke:_NumberFormatter_ToDecHex_m1474793296
Auc:__ZN5physx2Sc17ParticleSystemSim15onRbShapeChangeERKNS0_19ParticlePacketShapeERKNS0_8ShapeSimE
OWa:__ZN14StackAllocatorD0Ev
IMh:__ZN6il2cpp2vm6Thread8SetStateEP12Il2CppThreadNS0_11ThreadStateE
jBe:_OperatingSystem_Clone_m1943707477
jWf:_Scheduler_Change_m4063588742
_th:__ZN6il2cpp2vm13MetadataCache25GetMethodGenericContainerEPK10MethodInfo
Ahd:__ZN5physx27updateIslandsSecondPassMainEjRNS_2Cm10BitMapBaseINS_6shdfnd9AllocatorEEEPKjjRNS_11NodeManagerERNS_11EdgeManagerERNS_13IslandManagerERNS_23ArticulationRootManagerERNS_33ProcessSleepingIslandsComputeDataERNS_30IslandManagerUpdateWorkBuffersEPNS0_13EventProfilerE
CC:__ZN11UnityEngine15CloudWebService13WWWRestClientD0Ev
ywf:_InternalEnumerator_1_Dispose_m1640363425_AdjustorThunk
Mlh:_HitInfo_SendMessage_m3368777144_AdjustorThunk
vle:_NumberFormatInfo_get_CurrencyPositivePattern_m1112270101
_aa:__ZN17PersistentManager4LockEv
kah:__Z53RuntimeInvoker_RaycastHit_t87180320_Int32_t2071877448PK10MethodInfoPvPS2_
Fib:__ZN15ResourceManagerD2Ev
tSb:__Z41Register_UnityEngine_Camera_GetAllCamerasv
eog:__ZL91CullingGroup_t1091689465_CustomAttributesCacheGenerator_CullingGroup_SendEvents_m1292564468P21CustomAttributesCache
cFd:_RC2Transform__ctor_m492910827
tla:__ZN4crnd12crn_unpacker10unpack_dxnEPPhjjjjjj
iCd:__ZN28PerformanceReportingSettings8TransferI14SafeBinaryReadEEvRT_
UDf:_DefaultComparer__ctor_m3668042_gshared
m7d:_Double_Parse_m2344589511
m8g:__Z122RuntimeInvoker_Int32_t2071877448_Il2CppObject_CustomAttributeTypedArgument_t1498197914_Int32_t2071877448_Int32_t2071877448PK10MethodInfoPvPS2_
Mzc:__ZN5physx10NpMaterial17resolveReferencesERNS_24PxDeserializationContextE
cPh:__ZN6il2cpp2vm22EmbeddedResourceRecordC2ERKS1_
DFb:__ZNSt3__26vectorIN9ShaderLab20SerializedSubProgram15VectorParameterENS_9allocatorIS3_EEE21__push_back_slow_pathIKS3_EEvRT_
VZg:__Z109RuntimeInvoker_Void_t1841601450_Int32U26_t455636984_Int32U26_t455636984_Int32U26_t455636984_Int32_t2071877448PK10MethodInfoPvPS2_
b8a:__ZN9Texture2D13AwakeFromLoadE17AwakeFromLoadMode
TDe:_Kernel_SingleByteDivideInPlace_m1760318278
bCe:_MSCompatUnicodeTableUtil__cctor_m1479836795
Exg:_PositionAssertion__ctor_m3703837499
Qbd:__ZN5physx2Gu26EPASupportMapPairLocalImplINS0_8CapsuleVENS0_18ConvexHullNoScaleVEED0Ev
Xve:_StreamWriter_Initialize_m1707678624
uVh:__ZN6il2cpp2vm3RCW14QueryInterfaceILb0EEEP14Il2CppIUnknownP15Il2CppComObjectRK10Il2CppGuid
k4:__ZN6prcoreL17RemapGenericFloatI15TexFormatRFloat18TexFormatARGBFloatEEvPKNS_9InnerInfoE
u$a:__ZNK21AssetBundleFileSystem4SizeERK13FileEntryData
rbg:__ZL50_Thread_t1894135853_CustomAttributesCacheGeneratorP21CustomAttributesCache
Qyc:__ZN5physx7NpActor15removeConnectorERNS_7PxActorENS_15NpConnectorType4EnumEPNS_6PxBaseEPKc
Yzf:_InternalEnumerator_1_get_Current_m1047712960_gshared
H8c:__ZN5physx19ActorAABBUpdateTask11runInternalEv
QI:__GLOBAL__sub_I_runtime_camera_renderlayers_lump_cpp
VBd:__ZN11UnityEngine15PlatformWrapper20GetPlayerPrefsUInt64ERKN4core12basic_stringIcNS1_20StringStorageDefaultIcEEEEy
rJa:__ZN20ReflectionProbeCacheC2ER13BatchRendererR15RenderLoopStats
b$:__ZN7Texture23VirtualRedirectTransferER18StreamedBinaryReadILb0EE
JV:__ZN18AssetBundleManagerC2Ev
Ova:__ZNK12HandlerChain6ExistsERK13FileEntryData
Mhd:__ZN5physx10PxsContext28runModifiableContactManagersEv
K7d:_Convert_ToInt32_m2734833291
hKa:__Z30FindDirectAttenuationFromProbeP18ForwardLightsBlockbiRK10RenderNodeRK23FindForwardLightsParamsf
wq:__Z32TransferEnumWithNameForceIntSizeI14SafeBinaryReadN4math13RotationOrderEEvRT_RT0_PKc17TransferMetaFlags
NGb:__ZN9Transform23VirtualRedirectTransferER24GenerateTypeTreeTransfer
ded:__ZN5physx21PxsBodyTransformVault7addBodyERKNS_11PxsBodyCoreE
T7:__Z18GetLODGroupManagerv
zFb:__ZNSt3__26vectorIN9ShaderLab20SerializedSubProgram12UAVParameterENS_9allocatorIS3_EEE21__push_back_slow_pathIKS3_EEvRT_
TFc:__ZN5physx6shdfnd5ArrayINS_35PxClothParticleSeparationConstraintENS0_19ReflectionAllocatorIS2_EEE6resizeEjRKS2_
f5e:_X509ChainElement_Count_m228862214
MMc:__ZNK5physx15NpActorTemplateINS_14PxRigidDynamicEE8getSceneEv
UXf:_TimeZone_IsDaylightSavingTime_m1840774423
Ldc:__ZN5physx19PxCapsuleControllerD0Ev
Lkf:_TypeBuilder_get_Module_m1668298460
Xpc:__ZNK5physx14NpArticulation17getSleepThresholdEv
d4g:__Z48RuntimeInvoker_Void_t1841601450_Byte_t3683104436PK10MethodInfoPvPS2_
nzd:__GLOBAL__sub_I_runtime_ui_lump_cpp
Iua:__ZN10MemoryFile4ReadEyyPvPy
lea:__ZN13GfxDeviceGLES26UpdateViewProjectionMatrixEv
Ica:__ZNSt3__26vectorIN22BuiltinResourceManager8ResourceENS_9allocatorIS2_EEE21__push_back_slow_pathIKS2_EEvRT_
kwf:_InternalEnumerator_1_System_Collections_IEnumerator_Reset_m1181480250_AdjustorThunk
GNc:__ZNK5physx19NpRigidBodyTemplateINS_14PxRigidDynamicEE27getMaxDepenetrationVelocityEv
mMb:__ZZL23RegisterLightPropertiesR22GenericPropertyBindingEN22Wrapper_LightIntensity13SetFloatValueEPvf
Ar:__ZN4FMOD3DSP12setParameterEif
pW:__ZN13MemoryManager16StaticInitializeEv
F6b:__ZN5physx2Gu29EPASupportMapPairRelativeImplINS0_11ConvexHullVES2_ED0Ev
rgf:_CryptographicException__ctor_m1012314467
uv:__ZN4FMOD22FakeModChannelCallbackEPv
lf:_emscripten_glValidateProgram
JBa:__ZN4Mesh10CreateMeshEv
yGh:__ZN6il2cpp2gc19AppendOnlyGCHashMapINSt3__24pairIPK9EventInfoP11Il2CppClassEEP21Il2CppReflectionEvent17ReflectionMapHashIS9_ENS2_8equal_toIS9_EEE3AddERKS9_SB_
Acd:__ZN5physx9PxTaskMgr13decrReferenceERNS_9PxSpuTaskE
r5c:__ZN5physx36solveContactPreBlock_WriteBackStaticEPKNS_23PxcSolverConstraintDescEjRNS_16PxcSolverContextEPNS_25PxcThresholdStreamElementEjPi
$Ze:_ListDictionary_FindEntry_m1690278153
USg:_X509Chain__ctor_m1113875360
lei:dynCall_viiiiiiiiiiiiiiiiiiiiiiiiiiiiiiiiii
Vee:_Double_System_IConvertible_ToBoolean_m4251806534_AdjustorThunk
TEe:_BigInteger_op_GreaterThanOrEqual_m1998498565
aGf:_ShimEnumerator_Reset_m2247049027_gshared
zPc:__ZN5physx20NpRigidActorTemplateINS_13PxRigidStaticEE17resolveReferencesERNS_24PxDeserializationContextE
_Oa:__ZN7Texture13SetAnisoLevelEi
y3e:_X509Chain_Process_m2508784250
qsa:__ZN9GfxDevice20GetComputeBufferDataE15ComputeBufferIDPvj
jrd:__ZNK8Collider15SupportsTriggerEv
n1b:__ZL28GeomMTDCallback_SphereSphereRN5physx6PxVec3ERfRKNS_10PxGeometryERKNS_11PxTransformES5_S8_
CIc:__ZNK5physx22NpParticleBaseTemplateINS_15PxParticleFluidENS_15NpParticleFluidEE15getParticleMassEv
GU:__ZN33InstancedMeshIntermediateRenderer13StaticDestroyEPv
Wne:_Int16_Parse_m3012618547
RTc:__ZN5physx7NpScene26setSimulationEventCallbackEPNS_25PxSimulationEventCallbackEh
ZRh:__ZN14dense_hash_mapI10KeyWrapperIP14Il2CppIUnknownEjN6il2cpp5utils11PointerHashIS1_EENS3_14EqualsComparerINSt3__28equal_toIS2_EEEENS9_9allocatorINS9_4pairIKS3_jEEEEE13set_empty_keyERSF_
G4d:_Convert__cctor_m926133987
$2a:__Z21DestroyShadowMapCacheP14ShadowMapCache
w1h:_GC_hblk_fl_from_blocks
bHg:_Enumerator_VerifyState_m739025304_gshared
tjg:__ZL61LoaderOptimization_t1143026982_CustomAttributesCacheGeneratorP21CustomAttributesCache
EIh:__ZN15dense_hashtableINSt3__24pairIK10KeyWrapperIPK10Il2CppTypeEjEES6_N6il2cpp8metadata14Il2CppTypeHashEN14dense_hash_mapIS6_jSB_NS6_14EqualsComparerINSA_26Il2CppTypeEqualityComparerEEENS0_9allocatorIS8_EEE9SelectKeyESF_SH_E14squash_deletedEv
vRh:__ZN6il2cpp2vm13LivenessState5ResetEv
pgc:__ZN5physx6shdfnd4sortIPvNS0_4LessIS2_EENS0_19ReflectionAllocatorINS_2Sc16ActorElementPairEEEEEvPT_jRKT0_RKT1_j
rVb:__ZN9JSONWrite8TransferI11KeyframeTplIfEEEvRT_PKc17TransferMetaFlags
r3g:__Z71RuntimeInvoker_Double_t4078015681_Double_t4078015681_Double_t4078015681PK10MethodInfoPvPS2_
ydh:_GameObject_GetComponent_m306258075
IVg:__Z86RuntimeInvoker_Int32_t2071877448_Int32_t2071877448_Int32_t2071877448_Int32_t2071877448PK10MethodInfoPvPS2_
K9e:_ObjRef_get_ChannelInfo_m53840305
Tod:__ZN5physx2Gu15EdgeListBuilder18ComputeActiveEdgesEjPKjPKtPKNS_6PxVec3Ef
zPh:__ZN6il2cpp2vm9Exception27RaiseNullReferenceExceptionEv
$sa:__ZN24BuiltinShaderParamValuesC2Ev
iWb:__ZL41CreateJSONTransferFunctionScriptingTraitsv
_Yd:_Convert_ToInt32_m3683486440
_se:_FileStream_get_CanWrite_m775322953
Mkg:__ZL72PKCS12_t1362584795_CustomAttributesCacheGenerator_U3CU3Ef__switchU24map7P21CustomAttributesCache
xWf:_TimerCallback_BeginInvoke_m2938818726
jya:__Z23GetLateBehaviourManagerv
eRd:_EncoderExceptionFallbackBuffer__ctor_m3538569575
Edc:__ZN5physx6shdfnd5ArrayIPNS_7PxShapeENS0_15InlineAllocatorILj64ENS0_19ReflectionAllocatorIS3_EEEEE6resizeEjRKS3_
ER:__ZN10MemoryPool10DeallocateEPv
Qie:_CultureInfo_set_NumberFormat_m1618950525
ole:_NumberFormatInfo__ctor_m2752806684
ZYe:_SslStreamBase_get_CanRead_m3061866682
N2b:__ZN5physx6shdfnd19optimizeBoundingBoxERNS_7PxMat33E
jug:_PatternCompiler_EmitFastRepeat_m1175707353
sSf:_Array_InternalArray__get_Item_TisKeyValuePair_2_t3716250094_m3120861630_gshared
D3c:__ZN5physx2Gu22gjkRelativePenetrationINS0_9TriangleVENS0_10ShrunkBoxVEEEjRKT_RKT0_RKNS_6shdfnd3aos15PsMatTransformVERKNSB_6FloatVERNSB_5Vec3VESJ_SJ_RSF_PhSL_Rh
Xgg:__ZL62ApplicationException_t474868623_CustomAttributesCacheGeneratorP21CustomAttributesCache
Nqd:__ZN5physx6shdfnd10Foundation19AlignCheckAllocator10deallocateEPv
j$b:__ZNK9rapidjson12GenericValueINS_4UTF8IcEE13JSONAllocatorE6AcceptINS_6WriterI16TempBufferWriterS2_S2_S3_EEEEbRT_
Mei:dynCall_vif
Nei:dynCall_vid
Oei:dynCall_vii
v4a:__ZN4PPtrI8MaterialE8TransferI18StreamedBinaryReadILb0EEEEvRT_
zzb:__Z18Transfer_BlittableI18StreamedBinaryReadILb0EELb0EdEvRK29SerializationCommandArgumentsR31RuntimeSerializationCommandInfo
Atg:_Enumerator_System_Collections_IEnumerator_MoveNext_m3313126804
GFa:__ZNK17InstancedPropInfo14IsInstanceableERK19ShaderPropertySheet
WJe:_PKCS12_Finalize_m107130293
VXa:__ZN5Unity9Component16CheckConsistencyEv
rna:__ZN7ApiGLES11CheckShaderERjb
xvb:__ZL26Transfer_SimpleNativeClassI19StreamedBinaryWriteILb0EE10RectOffsetLb1EEvRK29SerializationCommandArgumentsR31RuntimeSerializationCommandInfo
rSf:_Array_InternalArray__get_Item_TisKeyValuePair_2_t1174980068_m964958642_gshared
D9c:__ZN5physx20PxcContactCapsuleBoxERKNS_2Gu13GeometryUnionES3_RKNS_11PxTransformES6_RKfRNS_10PxcNpCacheERNS0_13ContactBufferE
E1d:_DictionaryEntry_get_Key_m3623293571_AdjustorThunk
cEh:__ZN15dense_hashtableINSt3__24pairIK10KeyWrapperIPK10Il2CppTypeEjEES6_N6il2cpp8metadata14Il2CppTypeHashEN14dense_hash_mapIS6_jSB_NS6_14EqualsComparerINSA_26Il2CppTypeEqualityComparerEEENS0_9allocatorIS8_EEE9SelectKeyESF_SH_E3endEv
jKa:__Z28GetNonInterpolatedLightProbeRK17LightProbeContextjR20SphericalHarmonicsL2
xOf:_Array_InternalArray__ICollection_Add_TisDateTime_t693205669_m3559987213_gshared
Mga:__ZN13GfxDeviceGLES17SetGpuProgramNameEP10GpuProgramPKc
cvh:__ZN6il2cpp2vm13MetadataCache28GetMethodDefinitionFromIndexEi
vkg:__ZL77U3CPrivateImplementationDetailsU3E_t1486305137_CustomAttributesCacheGeneratorP21CustomAttributesCache
l4a:__Z32TransferEnumWithNameForceIntSizeI14SafeBinaryReadN21BuiltinShaderSettings17BuiltinShaderModeEEvRT_RT0_PKc17TransferMetaFlags
g$h:__ZN6il2cpp2os20FileErrnoToErrorCodeEi
V0:__ZN14SafeBinaryRead19TransferSTLStyleMapINSt3__23mapI39DeprecatedFastPropertyNameSerialization10ColorRGBAfNS1_4lessIS3_EENS1_9allocatorINS1_4pairIKS3_S4_EEEEEEEEvRT_17TransferMetaFlags
Ukb:__ZN14CachingManager13WriteInfoFileERKN4core12basic_stringIcNS0_20StringStorageDefaultIcEEEERKNSt3__26vectorIS4_NS7_9allocatorIS4_EEEE
Z2d:_Slot_t2022531261_marshal_pinvoke
poa:__ZN7ApiGLES18CreateRenderbufferEiN2gl9TexFormatEii
Wg:_atexit
G0d:_BitArrayEnumerator_Reset_m3218489242
Jjh:_RaycastHit_t87180320_marshal_pinvoke_cleanup
dYd:_Byte_System_IConvertible_ToUInt16_m2275325191
gTc:__ZNK5physx7NpScene8getFlagsEv
fHh:__ZN6il2cpp2vmL31GetObjectForMissingDefaultValueEj
Fbc:__ZN5physx3Cct17CapsuleController6resizeEf
fDh:__ZN15dense_hashtableINSt3__24pairIK10KeyWrapperINS1_IPK14Il2CppAssemblyP11Il2CppClassEEEjEES9_17ReflectionMapHashIS8_EN14dense_hash_mapIS9_jSD_NS9_14EqualsComparerINS0_8equal_toIS8_EEEENS0_9allocatorISB_EEE9SelectKeyESI_SK_E16reset_thresholdsEv
iAa:_UNITY_png_write_info_before_PLTE
_kc:__ZN5physx6shdfnd8PoolBaseINS_2Cm5BlockIhLj384EEENS0_19ReflectionAllocatorIS4_EEE12allocateSlabEv
B2c:__Z13sweepAABBAABBRKN5physx6PxVec3ES2_S2_S2_S2_S2_
eDb:__ZN9ShaderLab14SerializedPassC2ERKS0_
Nxf:_InternalEnumerator_1_System_Collections_IEnumerator_get_Current_m3088751576_AdjustorThunk
Dmd:__ZN5physx6shdfnd8internal8HashBaseIPNS_2Gu12TriangleMeshES5_NS0_4HashIS5_EENS1_11HashSetBaseIS5_S7_NS0_9AllocatorELb1EE6GetKeyES9_Lb1EE6createERKS5_Rb
ctc:__ZN5physx18NpArticulationLink17setLinearVelocityERKNS_6PxVec3Eb
GAc:__ZN5physx9NpPhysics20createParticleSystemEjb
W9f:__ZL60ParameterModifier_t1820634920_CustomAttributesCacheGeneratorP21CustomAttributesCache
mnf:_GenericTypeParameterBuilder_GetCustomAttributes_m3266536625
l:STACKTOP
ky:__ZNK7Texture14IsDepthTextureEv
wva:__ZNK12HandlerChain8IsHiddenERK13FileEntryData
lng:__ZL81Camera_t189460977_CustomAttributesCacheGenerator_Camera_get_cullingMask_m73686965P21CustomAttributesCache
rpd:__ZN5physx17ConvexHullBuilder14CreateEdgeListEv
a9e:_SoapFieldAttribute_get_XmlElementName_m4100905008
BOb:__ZN17TransformInternal27UpdateDeepChildCountUpwardsER18TransformHierarchyii
lvc:__ZNK5physx12NpConstraint10getNpSceneEv
wci:__ZNK10__cxxabiv117__class_type_info16search_above_dstEPNS_19__dynamic_cast_infoEPKvS4_ib
D6f:__ZL59ArrayListWrapper_t3918858854_CustomAttributesCacheGeneratorP21CustomAttributesCache
n3c:__ZN5physxL24PxcSweepCapsuleTrianglesERKNS_11PxsCCDShapeES2_RKNS_11PxTransformES5_S5_S5_fRNS_6PxVec3ES7_RNS_10PxcNpCacheERNS_18PxcNpThreadContextERKNS_2Cm23FastVertex2ShapeScalingERNS_2Gu9TriangleVEf
A:tempBigIntD
ANd:_Single_Equals_m3359827399_AdjustorThunk
lOa:__ZNK25CameraStackRenderingState25CalculateCameraTargetTypeEv
ZMc:__ZNK5physx15NpActorTemplateINS_14PxRigidDynamicEE12getAggregateEv
z:tempBigIntI
XOg:_CachedInvokableCall_1__ctor_m127496184_gshared
INe:_PrimalityTests_RabinMillerTest_m2029846965
y:tempBigIntR
x:tempBigIntS
tre:_BinaryReader_ReadInt32_m1811936587
fn:FUNCTION_TABLE_viffi
rbf:_ServerIdentity_CreateObjRef_m1056204803
qR:__ZN6Object18RegisterInstanceIDEPS_
qtb:__Z18Transfer_BlittableI24GenerateTypeTreeTransferLb1EsEvRK29SerializationCommandArgumentsR31RuntimeSerializationCommandInfo
$Wh:__ZN15dense_hashtableINSt3__24pairIK10KeyWrapperIP12Il2CppObjectEN6il2cpp2gc9CachedCCWEEES5_NS7_5utils11PointerHashIS3_EEN14dense_hash_mapIS5_S9_SD_NS5_14EqualsComparerINS0_8equal_toIS4_EEEENS0_9allocatorISA_EEE9SelectKeyESI_SK_E11set_deletedER30dense_hashtable_const_iteratorISA_S5_SD_SM_SI_SK_E
mea:__ZNK9GfxDevice18GetWorldViewMatrixEv
b8g:__Z51RuntimeInvoker_Boolean_t3825574718_Byte_t3683104436PK10MethodInfoPvPS2_
Zqd:__ZNK11BoxCollider26GetTypeInfoVirtualInternalEv
GSe:_TlsServerKeyExchange__ctor_m247733406
W$f:_UInt64_GetHashCode_m3478338766_AdjustorThunk
zUh:__ZN15dense_hashtableINSt3__24pairIK10KeyWrapperINS1_IPKcS4_EEEiEES6_24NamespaceAndNamePairHashN14dense_hash_mapIS6_iS9_NS6_14EqualsComparerI26NamespaceAndNamePairEqualsEENS0_9allocatorIS8_EEE9SelectKeyESD_SF_E12expand_arrayEjN21dense_hash_map_traits17integral_constantIbLb0EEE
k0h:__ZN6il2cpp6icalls8mscorlib6System7Convert17Base64ToByteArrayEPDsib
Gbd:__ZN5physx2Gu18pcmContactPlaneBoxERKNS0_13GeometryUnionES3_RKNS_11PxTransformES6_RKfRNS0_5CacheERNS0_13ContactBufferE
L9f:__ZL95MethodBase_t904190842_CustomAttributesCacheGenerator_MethodBase_GetGenericArguments_m1277035033P21CustomAttributesCache
EUe:_TlsServerSettings_get_Certificates_m3301336199
ish:__ZNSt3__218__insertion_sort_3IRN6il2cpp5utils11collections13ArrayValueMapIPK10Il2CppType17Il2CppInteropData26InteropDataToTypeConverterNS1_8metadata14Il2CppTypeLessENSA_26Il2CppTypeEqualityComparerEE12SortComparerEPS8_EEvT0_SH_T_
Rzh:__ZNSt3__26vectorINS_4pairIPK10MethodInfoP11Il2CppClassEENS_9allocatorIS7_EEE21__push_back_slow_pathIS7_EEvOT_
auc:__ZN5physx6shdfnd5ArrayIPNS_2Sq10ActorShapeENS0_19ReflectionAllocatorIS4_EEE15growAndPushBackERKS4_
qea:__ZNK9GfxDevice25GetDeviceProjectionMatrixEv
VKh:__ZNSt3__26vectorIP11Il2CppClassNS_9allocatorIS2_EEE21__push_back_slow_pathIS2_EEvOT_
F$e:_HttpWebRequest__ctor_m1248252412
IGf:_Transform_1_EndInvoke_m803975703_gshared
B6g:__Z101RuntimeInvoker_Il2CppObject_Il2CppObject_Il2CppObject_Vector3U26_t425862308_QuaternionU26_t4187826802PK10MethodInfoPvPS2_
na:invoke_iidiii
utb:__Z18Transfer_BlittableI24GenerateTypeTreeTransferLb1EtEvRK29SerializationCommandArgumentsR31RuntimeSerializationCommandInfo
pif:_RankException__ctor_m2119191472
q$b:__ZN9rapidjson12PrettyWriterI16TempBufferWriterNS_4UTF8IcEES3_13JSONAllocatorE11WriteIndentEv
r6b:__ZL13midPhaseQueryRKN5physx22PxTriangleMeshGeometryERKNS_11PxTransformERNS_2Gu3BoxERNS6_9ContainerE
oYb:__ZN9JSONWrite8TransferI13dynamic_arrayI4AABBLj4EEEEvRT_PKc17TransferMetaFlags
Qz:__ZN5physx14PxLightCpuTask15removeReferenceEv
V0e:_SPKey_Equals_m1112627532
ES:__ZN13RuntimeStaticI13ModuleManagerLb0EE13StaticDestroyEPv
mve:_Stream_Close_m1499612649
dEg:_ArgInfo__ctor_m3787931268
IIc:__ZNK5physx22NpParticleBaseTemplateINS_15PxParticleFluidENS_15NpParticleFluidEE17getStaticFrictionEv
eTg:_X509Chain_Build_m175470596
Mfd:__ZN5physx6shdfnd5ArrayINS_24PxsConstraintBatchHeaderENS0_19ReflectionAllocatorIS2_EEE8recreateEj
kyd:__ZN14PhysicsManagerC2E18MemLabelIdentifier18ObjectCreationMode
dY:__ZN9ShaderLab6TexEnvC2ERKNS_25SerializedTexturePropertyE
Rih:_Object_Instantiate_m2489341053
RDf:_DefaultComparer__ctor_m732373515_gshared
o$:__ZN19ShaderPropertySheet38CopyTextureWithAuxiliaryPropertiesFromERKN9ShaderLab16FastPropertyNameERKS_
cTe:_TlsServerCertificate__ctor_m3697944709
ryh:__ZN6il2cpp2vm19SocketPollingThread14DequeueRequestEv
QYh:__ZL10RevealLinkPv
gRf:_Array_InternalArray__set_Item_TisSingle_t2076509932_m4273663642_gshared
xhc:__ZN5physx6shdfnd8PoolBaseINS_2Sc26ActorPairContactReportDataENS0_19ReflectionAllocatorIS3_EEE12allocateSlabEv
rvf:_ArrayReadOnlyList_1_Remove_m1875216835_gshared
z1g:__Z48RuntimeInvoker_Char_t3454481338_SByte_t454417549PK10MethodInfoPvPS2_
yi:___cxa_end_catch
iof:_MethodBuilder_MakeGenericMethod_m303913412
jjf:_AssemblyName_InternalGetPublicKeyToken_m3706025887
O6b:__ZN5physx2Gu26EPASupportMapPairLocalImplINS0_8CapsuleVENS0_11ConvexHullVEED0Ev
ZGf:_Dictionary_2_System_Collections_ICollection_get_SyncRoot_m2175588702_gshared
S$e:_HttpWebRequest_GetObjectData_m1200570677
wLe:_AppDomain_get_CurrentDomain_m3432767403
ITc:__ZN5physx7NpScene12createClientEv
OWe:_ReceiveRecordAsyncResult_get_AsyncWaitHandle_m1602093076
Kzb:__Z19TransferField_ArrayI18StreamedBinaryReadILb0EE27Converter_UnityEngineObjectEvRK23StaticTransferFieldInfoR31RuntimeSerializationCommandInfoRT0_
f5a:__ZN5Light8TransferI24GenerateTypeTreeTransferEEvRT_
T3b:__ZN26ContactCapsuleMeshCallback10processHitERKN5physx12PxRaycastHitERKNS0_6PxVec3ES6_S6_RfPKj
aN:__Z33InitializeBuiltinShaderParamNamesv
iLe:_ActivationContext_System_Runtime_Serialization_ISerializable_GetObjectData_m775951299
zyd:__ZN13PhysicsModule24CapsuleColliderSetHeightER15CapsuleColliderf
onf:_GenericTypeParameterBuilder_get_Namespace_m1776615511
o8c:__ZN5physx14PxsAABBManager25removeAggregateSinglePairEjPNS_9AggregateEPNS_2Cm10BitMapBaseINS_6shdfnd9AllocatorEEE
IZ:__ZNK16TypeTreeIterator4TypeEv
bEg:_LeaseManager__ctor_m2166901364
kta:__ZN10FileSystem25MountDataFolderFileSystemERKN4core12basic_stringIcNS0_20StringStorageDefaultIcEEEES6_
K5f:__ZL73MarshalAsAttribute_t2900773360_CustomAttributesCacheGenerator_MarshalTypeP21CustomAttributesCache
fj:_glGetUniformLocation
zfa:__ZN13GfxDeviceGLES32CreateColorRenderSurfacePlatformEP17RenderSurfaceBase19RenderTextureFormat
qlg:__ZL55TypeConverter_t745995970_CustomAttributesCacheGeneratorP21CustomAttributesCache
Is:__ZN12AudioManager24CreateFMODSoundFromMovieEP9AudioClip
s$b:__ZN9rapidjson6WriterI16TempBufferWriterNS_4UTF8IcEES3_13JSONAllocatorE8WriteIntEi
x6a:__ZN16LevelGameManager8TransferI19StreamedBinaryWriteILb0EEEEvRT_
JQc:__ZN5physx2Sc10NPhaseCore9visualizeERNS_2Cm12RenderOutputE
Dqe:_IntPtr_GetHashCode_m1174575389
ind:__ZN5physx2Gu12TriangleMesh15exportExtraDataERNS_22PxSerializationContextE
Xth:__ZN6il2cpp2vm13MetadataCache24GetGenericInstanceMethodEPK10MethodInfoPK20Il2CppGenericContext
_Be:_MSCompatUnicodeTable_get_IsReady_m562849792
dCe:_SimpleCollator_SetCJKTable_m1356471502
Awb:__Z18Transfer_BlittableI18StreamedBinaryReadILb1EELb0E8Vector2fEvRK29SerializationCommandArgumentsR31RuntimeSerializationCommandInfo
Roe:_Int32_System_IConvertible_ToUInt64_m2888588559_AdjustorThunk
QH:__Z24ConvertSeparatorsToUnityPc
Tgb:__ZNSt3__213__vector_baseI9InputAxisNS_9allocatorIS1_EEED2Ev
qMh:__ZN6il2cpp2vm6Thread20FreeThreadStaticDataEP12Il2CppThread
x4d:_Console_SetEncodings_m342145566
MUg:__Z57RuntimeInvoker_Int64_t909078037_Il2CppObject_Il2CppObjectPK10MethodInfoPvPS2_
ehe:_Exception_get_ClassName_m2189012117
Jre:_IOException__ctor_m613517077
vmc:__ZN5physx2Sc8BodyCore17setupSimStateDataEPNS_6shdfnd4PoolINS0_12SimStateDataENS2_19ReflectionAllocatorIS4_EEEEbb
eoc:__ZN5physx2Sc18ParticleSystemCore20returnStandaloneDataEPNS_15PxsParticleDataE
e4d:_Stack__ctor_m521896492
sEa:__Z20LookRotationToMatrixRK8Vector3fS1_P10Matrix3x3f
FJc:__Z25computePacketSizeMultLog2ff
Z1c:__ZN5physx2Cm12DelegateTaskINS_13PxsCCDContextEXadL_ZNS2_14postCCDAdvanceEPNS_10PxBaseTaskEEEED0Ev
HEe:_SequentialSearchPrimeGeneratorBase__ctor_m1628348781
_o:__ZN5Unity9Component26SupportedMessagesDidChangeEj
hue:_IOException__ctor_m847281350
djb:__ZNSt3__26vectorIN15ResourceManager10DependencyE13stl_allocatorIS2_L18MemLabelIdentifier51ELi16EEE6assignINS_11__wrap_iterIPS2_EEEENS_9enable_ifIXaasr21__is_forward_iteratorIT_EE5valuesr16is_constructibleIS2_NS_15iterator_traitsISC_E9referenceEEE5valueEvE4typeESC_SC_
_ph:__ZN15dense_hashtableINSt3__24pairIK10KeyWrapperIPK11Il2CppClassEPKcEES6_N6il2cpp5utils11PointerHashIS3_EEN14dense_hash_mapIS6_S9_SE_NS6_14EqualsComparerINS0_8equal_toIS5_EEEENS0_9allocatorISA_EEE9SelectKeyESJ_SL_E12expand_arrayEjN21dense_hash_map_traits17integral_constantIbLb0EEE
$qa:__ZN10GpuProgramD0Ev
oYf:_Type_GetTypeFromHandle_m432505302
yre:_BinaryReader_ReadUInt16_m2664161107
kLh:__ZN15dense_hashtableINSt3__24pairIK10KeyWrapperINS1_IP11Il2CppClassjEEES4_EES6_N6il2cpp8metadata14ArrayClassHashEN14dense_hash_mapIS6_S4_SB_NS6_14EqualsComparerINSA_17ArrayClassCompareEEENS0_9allocatorIS8_EEE9SelectKeyESF_SH_E12maybe_shrinkEv
pGd:_RSA__ctor_m375023755
ZHh:__ZNSt3__218uninitialized_copyIPNS_4pairIK10KeyWrapperIPK14Il2CppAssemblyEPK16MonoAssemblyNameEESC_EET0_T_SE_SD_
Q9e:_ObjRef_set_URI_m1923766829
bAg:_GCHandle_FreeHandle_m2466807271
LRc:__ZN5physx16PxsIslandManager18setEdgeUnconnectedERKNS_20PxsIslandManagerHookIjLj4294967295EEE
ZA:__ZN11UnityEngine15CloudWebService14DataDispatcher25OnDataBlockConsumedStaticEPv
x1b:__ZL27GeomMTDCallback_PlaneConvexRN5physx6PxVec3ERfRKNS_10PxGeometryERKNS_11PxTransformES5_S8_
lbg:__ZL54_MethodInfo_t3642518830_CustomAttributesCacheGeneratorP21CustomAttributesCache
uWg:__Z46RuntimeInvoker_Il2CppObject_Decimal_t724701077PK10MethodInfoPvPS2_
QSf:_Array_InternalArray__get_Item_TisSingle_t2076509932_m1495809753_gshared
syb:__Z29Transfer_Blittable_ArrayFieldI18StreamedBinaryReadILb1EE11QuaternionfEvRT_R9ArrayInfoRK23StaticTransferFieldInfo
ppe:_Int64_System_IConvertible_ToByte_m3027162116_AdjustorThunk
SNg:_ReadOnlyCollection_1_Contains_m1895759124_gshared
H:Math_pow
XGc:__ZNK5physx2Sc9ClothCore16getStretchConfigENS_22PxClothFabricPhaseType4EnumE
ZRc:__ZN5physx6shdfnd5ArrayIPvNS0_15InlineAllocatorILj256ENS0_19ReflectionAllocatorINS_2Gu30LargePersistentContactManifoldEEEEEE15growAndPushBackERKS2_
f_d:_ArrayList__cctor_m2090802806
fci:__ZNSt3__212basic_stringIcNS_11char_traitsIcEENS_9allocatorIcEEE6insertEjPKcj
kWb:__Z44InitializeTransferFunctionScriptingTraitsForI8JSONReadEvR31TransferFunctionScriptingTraits
LFc:__ZN5physx2Sc13ClothBulkData15exportExtraDataERNS_22PxSerializationContextE
qTa:__ZNSt3__26vectorINS_4pairIN4core12basic_stringIcNS2_20StringStorageDefaultIcEEEES6_EE13stl_allocatorIS7_L18MemLabelIdentifier37ELi16EEE6insertENS_11__wrap_iterIPKS7_EERSD_
Lca:__ZNSt3__27__sort4IRNS_4lessIN22BuiltinResourceManager8ResourceEEEPS3_EEjT0_S7_S7_S7_T_
xwa:__ZN17ArchiveFileSystem4CopyER13FileEntryDataS1_
wY:__ZN15dense_hashtableINSt3__24pairIKPK17RenderSurfaceBaseP13RenderTextureEES4_19PointerHashFunctionIS4_EN14dense_hash_mapIS4_S7_SA_NS0_8equal_toIS4_EE13stl_allocatorIS8_L18MemLabelIdentifier65ELi16EEE9SelectKeyESD_SG_E12resize_deltaEjj
rla:__ZN4crnd12crn_unpacker11unpack_dxt5EPPhjjjjjj
Y_f:_UInt32_System_IConvertible_ToUInt64_m4083788326_AdjustorThunk
Zgc:__ZN5physx6shdfnd4sortIPvNS0_4LessIS2_EENS0_19ReflectionAllocatorINS_2Sc19ShapeInstancePairLLEEEEEvPT_jRKT0_RKT1_j
Ugf:_DESTransform_Permutation_m4174035780
Rre:_Path_IsDsc_m1314465747
Vse:_MonoIO_Seek_m3461199288
oAb:__Z29Transfer_Blittable_ArrayFieldI18StreamedBinaryReadILb0EE4AABBEvRT_R9ArrayInfoRK23StaticTransferFieldInfo
M8f:__ZL50OpCodes_t3494785031_CustomAttributesCacheGeneratorP21CustomAttributesCache
Ohg:__ZL78Convert_t2607082565_CustomAttributesCacheGenerator_Convert_ToInt64_m1009422297P21CustomAttributesCache
rN:__ZNSt3__26__treeINS_12__value_typeINS_4pairIPcS3_EENS_3setIS3_15compare_tstringIPKcENS_9allocatorIS3_EEEEEENS_19__map_value_compareIS4_SD_20smaller_tstring_pairIS8_ELb1EEENSA_ISD_EEE7destroyEPNS_11__tree_nodeISD_PvEE
Ynh:__ZN15dense_hashtableINSt3__24pairIK10KeyWrapperIPK22Il2CppGenericParameterEP11Il2CppClassEES6_N6il2cpp5utils11PointerHashIS4_EEN14dense_hash_mapIS6_S9_SE_NS6_14EqualsComparerINS0_8equal_toIS5_EEEENS0_9allocatorISA_EEE9SelectKeyESJ_SL_E15insert_noresizeERKSA_
dTb:__Z52Register_UnityEngine_GameObject_GetComponentInParentv
Mhb:__ZN15SerializeTraitsINSt3__24pairIPKN5Unity4TypeE7Hash128EEE8TransferI14SafeBinaryReadEEvRS7_RT_
YX:__ZN19ShaderPropertySheet37CreateTextureAuxPropertyUninitializedEN9ShaderLab16FastPropertyNameEPKc
RMa:__Z37GenerateCombinedDynamicVisibleListJobP11CullResults
ZI:__GLOBAL__sub_I_runtime_graphics_billboard_lump_cpp
xG:__ZNK13ScreenManager21GetCursorInsideWindowEv
AZh:__ZN6il2cpp2vmL22RaiseOverflowExceptionEv
OOf:_Array_InternalArray__ICollection_Add_TisSByte_t454417549_m46595441_gshared
ZPc:__ZN5physx13PxRigidStaticD0Ev
CAg:_SafeHandle_SetHandle_m1980208835
jtg:_Match_get_Empty_m3581361913
tEf:_Comparer_1__ctor_m4082958187_gshared
RJa:__Z20IntersectAABBFrustumRK4AABBPK5Planej
qPd:_String_Concat_m626692867
Q2f:__ZL49Double_t4078015681_CustomAttributesCacheGeneratorP21CustomAttributesCache
$Mb:__ZN13RenderManager15InitializeClassEv
Rqb:__ZN15SerializeTraitsI12PropertyNameE8TransferI14SafeBinaryReadEEvRS0_RT_
bXd:_Convert_ToUInt32_m3686071170
m1:__ZN18UnityPropertySheet11UnityTexEnvC2Ev
jE:__ZNSt3__23mapIN19CloudServiceHandler11ServiceTypeEPS1_NS_4lessIS2_EE13stl_allocatorINS_4pairIKS2_S3_EEL18MemLabelIdentifier85ELi16EEEixERS8_
Sld:__ZN5physx6shdfnd8internal8HashBaseIPNS_2Gu11HeightFieldES5_NS0_4HashIS5_EENS1_11HashSetBaseIS5_S7_NS0_9AllocatorELb1EE6GetKeyES9_Lb1EE6createERKS5_Rb
Ytd:__ZN5physx7profile8ZoneImplINS_28PxProfileNameProviderForwardEED0Ev
vNg:_ReadOnlyCollection_1_get_Count_m1203010282_gshared
h3f:__ZL39IntPtr_t_CustomAttributesCacheGeneratorP21CustomAttributesCache
Xei:dynCall_iiiiiiiiiiffffii
UD:__ZN11UnityEngine15CloudWebService17WebFileDownloaderINS0_13WWWRestClientENS0_16WWWRestHeaderMapEED0Ev
bYb:__ZN9JSONWrite8TransferI11ColorRGBA32EEvRT_PKc17TransferMetaFlags
k_b:__Z22TransferField_NonArrayI8JSONRead27Converter_SimpleNativeClassI8GradientEEvRK23StaticTransferFieldInfoR31RuntimeSerializationCommandInfoRT0_
ITa:__ZNSt3__26__treeIN4core12basic_stringIcNS1_20StringStorageDefaultIcEEEENS_4lessIS5_EE13stl_allocatorIS5_L18MemLabelIdentifier37ELi16EEE7destroyEPNS_11__tree_nodeIS5_PvEE
_ma:__ZNSt3__26vectorI15ComputeShaderCBNS_9allocatorIS1_EEE21__push_back_slow_pathIKS1_EEvRT_
kic:__ZL28GeomOverlapCallback_MeshMeshRKN5physx10PxGeometryERKNS_11PxTransformES2_S5_PNS_2Gu12TriggerCacheE
$If:_DefaultComparer_GetHashCode_m3006415128_gshared
KIb:__ZN13ProduceHelperI11MonoManagerLb0EE7ProduceE18MemLabelIdentifier18ObjectCreationMode
pig:__ZL79Convert_t2607082565_CustomAttributesCacheGenerator_Convert_ToUInt16_m2828700513P21CustomAttributesCache
gpa:__ZNK18GfxFramebufferGLES15DiscardContentsER12ObjectHandleI17RenderSurface_TagP17RenderSurfaceBaseE
Yuh:__ZN6il2cpp2vm13MetadataCache27GetEventDefinitionFromIndexEi
IGe:_KeyPairPersistence_IsUserProtected_m37342608
rai:___fflush_unlocked
hXb:__Z18Transfer_BlittableI9JSONWriteLb1EdEvRK29SerializationCommandArgumentsR31RuntimeSerializationCommandInfo
eji:_glGetIntegerv__wrapper
vje:_NumberFormatter_ResetCharBuf_m3823516989
v$c:__ZN5physx23ArticulationRootManagerD0Ev
ief:_SerializationInfo_GetInt16_m3549836657
Wlh:_StackTraceUtility_IsSystemStacktraceType_m506502194
Z8a:__ZN9Texture2DD2Ev
TI:__GLOBAL__sub_I_runtime_geometry_lump_cpp
z_d:_ArrayList_Remove_m3941780739
etd:__ZN14PhysicsManager8TransferI19StreamedBinaryWriteILb0EEEEvRT_
Dyh:__ZN6il2cpp2vm21ThreadPoolCompartment12DetachThreadEP12Il2CppThread
Ake:_DateTimeFormatInfo_get_RawAbbreviatedMonthNames_m19087795
tbg:__ZL53IActivator_t1538980900_CustomAttributesCacheGeneratorP21CustomAttributesCache
gc:invoke_iiiifiiiii
JZc:__ZN5physx2Sc5Scene31setClothInterCollisionStiffnessEf
Skf:_ConstructorBuilder_not_created_m2150488017
GXd:_Convert_ToChar_m2170787796
Sdg:__ZL67DSACryptoServiceProvider_t2915171657_CustomAttributesCacheGeneratorP21CustomAttributesCache
vr:__ZNSt3__26vectorIiNS_9allocatorIiEEE6insertENS_11__wrap_iterIPKiEERS5_
Vyg:_Uri_AppendQueryAndFragment_m2358658590
fq:__ZN13dynamic_arrayIhLj1EE18resize_initializedEjRKh12ResizePolicy
Zaa:__ZN17PersistentManager27GetLoadErrorMessageFromPathERKN4core12basic_stringIcNS0_20StringStorageDefaultIcEEEE
Lid:__ZN5physx2Cm12DelegateTaskINS_2Sc5SceneEXadL_ZNS3_19updateCCDSinglePassEPNS_10PxBaseTaskEEEED0Ev
_Qd:_DecoderReplacementFallbackBuffer_Fallback_m1790184670
Tl:_glGenRenderbuffers
QQh:__ZN6il2cpp6icalls8mscorlib6System2IO6MonoIO19GetCurrentDirectoryEPi
pid:__ZN5physx2Sc13ConstraintSim11projectPoseEPNS0_7BodySimE
lBg:_ChannelInfo_get_ChannelData_m2401378984
Vwg:_CapturingGroup_IsComplex_m844914640
vPd:_String_GetHashCode_m931956593
m_a:__ZN14CachingManager7DisposeEv
yMf:_Array_InternalArray__IEnumerable_GetEnumerator_TisCustomAttributeNamedArgument_t94157543_m2704432855_gshared
F9c:__ZN5physx21PxcContactCapsuleMeshERKNS_2Gu13GeometryUnionES3_RKNS_11PxTransformES6_RKfRNS_10PxcNpCacheERNS0_13ContactBufferE
Pfb:__ZN12MeshRenderer16UpdateCachedMeshEv
Lyd:__ZN9Rigidbody11SetPositionERK8Vector3f
xqb:__Z19TransferField_ArrayI14SafeBinaryRead27Converter_SimpleNativeClassI8GradientEEvRK23StaticTransferFieldInfoR31RuntimeSerializationCommandInfoRT0_
wUh:__ZN15dense_hashtableINSt3__24pairIK10KeyWrapperINS1_IPKcS4_EEEiEES6_24NamespaceAndNamePairHashN14dense_hash_mapIS6_iS9_NS6_14EqualsComparerI26NamespaceAndNamePairEqualsEENS0_9allocatorIS8_EEE9SelectKeyESD_SF_E16reset_thresholdsEv
v_e:_NameObjectCollectionBase_System_Collections_ICollection_CopyTo_m810189168
Kfe:_EntryPointNotFoundException__ctor_m1386578372
tPa:__ZN6Camera15SetOrthographicEb
Yvh:__ZL24UnresolvedVirtualCall_34P12Il2CppObjectS0_PK10MethodInfo
uwh:__ZL24UnresolvedVirtualCall_58P12Il2CppObjectsPK10MethodInfo
wea:__ZN13GfxDeviceGLES14DisableScissorEv
g$c:__ZN5physx17PxcNpMemBlockPool23releaseConstraintMemoryEv
y_a:__Z22GetFolderSizeRecursiveRKN4core12basic_stringIcNS_20StringStorageDefaultIcEEEE
vag:__ZL71ReliabilityContractAttribute_t1625655220_CustomAttributesCacheGeneratorP21CustomAttributesCache
_qg:__ZL55ContactPoint_t1376425630_CustomAttributesCacheGeneratorP21CustomAttributesCache
afd:__ZNK5physx10PxsContext25getManagerTouchEventCountEPiS1_S1_
N8d:_Decimal_op_Explicit_m1986696267
Wje:_NumberFormatter_AppendDecimalString_m3532330813
vc:_glVertexAttrib4f
KMh:__ZNSt3__26vectorIiNS_9allocatorIiEEE21__push_back_slow_pathIRKiEEvOT_
jlf:_ILGenerator__ctor_m3365621387
Qge:_Environment_GetFolderPath_m1849163024
e7:__ZN13LoadOperationC2Ev
kFe:_ASN1_Add_m2540239672
BLf:_Array_InternalArray__ICollection_Remove_TisInt16_t4041245914_m3380378727_gshared
n4f:__ZL68Il2CppArray_CustomAttributesCacheGenerator_Array_SetValue_m169741241P21CustomAttributesCache
Nwf:_InternalEnumerator_1__ctor_m960275522_AdjustorThunk
r2c:__ZN5physx6shdfnd4sortIPNS_10PxsCCDPairENS_13ToiPtrCompareENS0_19ReflectionAllocatorIS3_EEEEvPT_jRKT0_RKT1_j
rjg:__ZL63InvalidCastException_t3625212209_CustomAttributesCacheGeneratorP21CustomAttributesCache
j5f:__ZL52ICollection_t91669223_CustomAttributesCacheGeneratorP21CustomAttributesCache
LBg:_SinkProviderData__ctor_m1828480392
Szd:__ZN9JSONWrite8TransferINSt3__26vectorIN4core12basic_stringIcNS3_20StringStorageDefaultIcEEEENS1_9allocatorIS7_EEEEEEvRT_PKc17TransferMetaFlags
Zzg:_GCHandle_GetTarget_m2056570211
v2h:_GC_set_hdr_marks
HBa:__Z17SetupObjectMatrixRK10Matrix4x4fi
FMd:_SecurityFrame_ToString_m1282306399
$Ce:_SimpleCollator_MatchesBackwardCore_m1884994267
wXf:_TimeSpan_From_m1249538749
Loc:__ZN5physx6shdfnd8PoolBaseINS_11NpAggregateENS0_19ReflectionAllocatorIS2_EEE17releaseEmptySlabsEv
vCe:_SimpleCollator_GetSortKey_m1317491197
kPg:_InvokableCall_1_add_Delegate_m4009721884_gshared
HUb:__Z43Object_CUSTOM_DoesObjectWithInstanceIDExisti
wmd:__ZN5physx13GuMeshFactory17createHeightFieldERKNS_17PxHeightFieldDescE
oN:__ZN13RuntimeStaticINSt3__23mapINS0_4pairIPcS3_EEPFbPvR14SafeBinaryReadE20smaller_tstring_pairIPKcENS0_9allocatorINS2_IKS4_S9_EEEEEELb0EE13StaticDestroyES5_
orf:_MonoEvent_GetCustomAttributes_m3899596098
JDd:__GLOBAL__sub_I_VRGfxHelpers_cpp
Pxg:_Reference_IsComplex_m3827291813
apg:__ZL95MonoBehaviour_t1158329972_CustomAttributesCacheGenerator_MonoBehaviour_StopCoroutine_m987450539P21CustomAttributesCache
Pp:__ZN4PPtrI6ObjectE8TransferI19StreamedBinaryWriteILb0EEEEvRT_
$Kb:__ZZL31RegisterOtherRendererPropertiesR22GenericPropertyBindingEN30Wrapper_RendererReceiveShadows13SetFloatValueEPvf
Xag:__ZL70TypeLibImportClassAttribute_t2390314680_CustomAttributesCacheGeneratorP21CustomAttributesCache
Bjd:__ZN5physx2Sc17ParticleSystemSim19unlinkParticleShapeEPNS0_19ParticlePacketShapeE
hie:_CompareInfo_GetHashCode_m103561552
Nch:_Camera_FireOnPreRender_m24116662
yZf:_TypeLoadException_GetObjectData_m2885802706
Yxh:__ZL25UnresolvedVirtualCall_142P12Il2CppObjectPK10MethodInfo
gfa:__ZN9GfxDevice24CreateRenderDepthSurfaceE9TextureIDiiii16TextureDimension17DepthBufferFormat18SurfaceCreateFlags
qIg:_List_1_System_Collections_Generic_ICollectionU3CTU3E_get_IsReadOnly_m2131934397_gshared
sdf:_ObjectManager_DoFixups_m835924385
Paf:_RemotingServices_CreateWellKnownServerIdentity_m3390048085
As:__ZN4FMOD5Sound11setUserDataEPv
dig:__ZL78Convert_t2607082565_CustomAttributesCacheGenerator_Convert_ToSByte_m1972336057P21CustomAttributesCache
lBb:__ZN14SafeBinaryRead21TransferSTLStyleArrayINSt3__26vectorIN9ShaderLab19SerializedSubShaderENS1_9allocatorIS4_EEEEEEvRT_17TransferMetaFlags
xHg:_List_1__cctor_m2189212316_gshared
lOe:_ARC4Managed_KeySetup_m73384687
Yua:__ZNK25SingleBlockMemoryFileData4SizeEv
Uic:__ZN5physx6shdfnd8internal8HashBaseIPNS_2Sc15CoreInteractionES5_NS0_4HashIS5_EENS1_11HashSetBaseIS5_S7_NS0_9AllocatorELb1EE6GetKeyES9_Lb1EE5eraseERKS5_
L0a:__ZNK23ArchiveStorageConverter26GetUncompressedArchiveSizeEv
Zae:_DateTime_Equals_m2562884703
vUa:__Z29StdTemplateConversionFunctionItsEbPvR14SafeBinaryRead
fbd:__ZN5physx2Gu22GJKRelativePenetrationERKNS0_10ShrunkBoxVES3_RKNS_6shdfnd3aos15PsMatTransformVERKNS5_6FloatVERNS5_5Vec3VESD_SD_RS9_PhSF_Rh
m2c:__ZN5physx2Cm12DelegateTaskINS_13PxsCCDContextEXadL_ZNS2_12postCCDSweepEPNS_10PxBaseTaskEEEE11runInternalEv
OAa:_UNITY_png_zfree
d6g:__Z50RuntimeInvoker_Void_t1841601450_RectU26_t844847526PK10MethodInfoPvPS2_
yxd:__ZZN8Collider15InitializeClassEvEN32FunctorImpl_786kTransformChanged4CallEPviR11MessageData
yWh:__ZNK15dense_hashtableINSt3__24pairIK10KeyWrapperIP12Il2CppObjectEN6il2cpp2gc9CachedCCWEEES5_NS7_5utils11PointerHashIS3_EEN14dense_hash_mapIS5_S9_SD_NS5_14EqualsComparerINS0_8equal_toIS4_EEEENS0_9allocatorISA_EEE9SelectKeyESI_SK_E3endEv
HXa:__ZN17LowLevelAllocator4FreeEPvj
Y2d:_KeyMarker__cctor_m2057880225
qud:__ZN5physx7profile8ZoneImplINS_28PxProfileNameProviderForwardEE10eventValueEtyx
upg:__ZL82Object_t1021602117_CustomAttributesCacheGenerator_Object_Destroy_m4279412553____t1P21CustomAttributesCache
Bnh:__ZN15dense_hashtableINSt3__24pairIK10KeyWrapperIPK22Il2CppGenericParameterEP11Il2CppClassEES6_N6il2cpp5utils11PointerHashIS4_EEN14dense_hash_mapIS6_S9_SE_NS6_14EqualsComparerINS0_8equal_toIS5_EEEENS0_9allocatorISA_EEE9SelectKeyESJ_SL_E9copy_fromERKSO_j
eme:_TextInfo_get_ListSeparator_m3426465394
Dte:_FileStream_BeginWrite_m3895959548
jUe:_Context_set_RecordProtocol_m1968834768
GJ:__ZL19StaticCleanupPlayerPv
o4e:_X509Certificate2Enumerator_MoveNext_m1861665712
S4c:__ZN5physx24writeBackContactCoulomb4EPKNS_23PxcSolverConstraintDescERNS_16PxcSolverContextEPPKNS_17PxcSolverBodyDataES8_
P7f:__ZL91BinaryReader_t2491843768_CustomAttributesCacheGenerator_BinaryReader_ReadUInt64_m1893783375P21CustomAttributesCache
HV:__ZN15dense_hashtableINSt3__24pairIKN4core12basic_stringIcNS2_20StringStorageDefaultIcEEEEP11AssetBundleEES6_20StringHash32FunctionIS6_EN14dense_hash_mapIS6_S9_SC_NS0_8equal_toIS6_EENS0_9allocatorISA_EEE9SelectKeyESF_SH_ED2Ev
jVf:_Monitor_Monitor_wait_m3813798368
NQd:_DecoderExceptionFallbackBuffer_Fallback_m3457210607
MKf:_Array_InternalArray__ICollection_Contains_TisDouble_t4078015681_m2262383923_gshared
YXa:__ZN9Behaviour10DeactivateE19DeactivateOperation
O9:__ZN13StreamingInfo8TransferI14SafeBinaryReadEEvRT_
YAf:_InternalEnumerator_1_MoveNext_m2302237510_AdjustorThunk
KBb:__ZN15dense_hashtableINSt3__24pairIKiN4core17string_with_labelILi1EEEEEi18SInt32HashFunctionN14dense_hash_mapIiS5_S7_NS0_8equal_toIiEE13stl_allocatorIS6_L18MemLabelIdentifier1ELi16EEE9SelectKeyESA_SD_E15insert_noresizeERKS6_
kTh:__ZN15dense_hashtableI10KeyWrapperIP18Il2CppGenericClassES3_N6il2cpp8metadata22Il2CppGenericClassHashEN14dense_hash_setIS3_S6_NS3_14EqualsComparerINS5_25Il2CppGenericClassCompareEEENSt3__29allocatorIS3_EEE8IdentityESA_SD_EC2EjRKS6_RKSA_RKSF_
Cjb:__ZN14SafeBinaryRead21TransferSTLStyleArrayINSt3__26vectorIN4core12basic_stringIcNS3_20StringStorageDefaultIcEEEE13stl_allocatorIS7_L18MemLabelIdentifier12ELi16EEEEEEvRT_17TransferMetaFlags
B_g:__Z87RuntimeInvoker_Boolean_t3825574718_IntPtr_t_Int64_t909078037_MonoIOErrorU26_t1029615899PK10MethodInfoPvPS2_
cec:__GLOBAL__sub_I_runtime_dynamics_lump_cpp
Lic:__ZNK5physx2Gu22SupportMapRelativeImplINS0_4BoxVEE9doSupportERKNS_6shdfnd3aos5Vec3VE
nr:__Z23CalculateGlobalRotation23TransformAccessReadOnly
iVd:_Array_obj_swapper_m2156282294
s4e:_X509Store_Close_m2412711366
$Sf:_AttributeHelperEngine_GetCustomAttributeOfType_TisIl2CppObject_m581732473_gshared
x_c:__ZN5physx2Cm10FanoutTaskD0Ev
wjg:__ZL60LocalDataStoreSlot_t486331200_CustomAttributesCacheGeneratorP21CustomAttributesCache
Ktc:__ZN5physx14NpShapeManager26markAllSceneQueryForUpdateERNS_2Sq17SceneQueryManagerE
iIc:__ZN5physx15NpActorTemplateINS_15PxParticleFluidEE14setOwnerClientEh
Ojc:__ZN5physx2Sc21ConstraintInteractionD2Ev
YKb:__Z43InitializeRendererAnimationBindingInterfacev
BR:__ZL26DestroyGameObjectRecursiveR10GameObjectR11BatchDelete
MKd:_PermissionSet_set_DeclarativeSecurity_m3993468766
M2h:_GC_allochblk_nth
pRa:__ZN12ImmediatePtrIN5Unity9ComponentEE8TransferI19StreamedBinaryWriteILb0EEEEvRT_
oVf:_Mutex_ReleaseMutex_m2143813124
P_f:_UInt32_System_IConvertible_ToSByte_m604037412_AdjustorThunk
Cod:__ZNK5physx2Gu9Container8ContainsEjPj
gCc:__ZNK5physx7NpShape13getRestOffsetEv
lKb:__Z7HaloTexP9Texture2DPhiiii
Rfi:dynCall_i
pjh:_Physics_RaycastAll_m410413656
Ey:__ZN17AudioCustomFilter4InitEv
eSg:_X509Certificate__cctor_m2984068893
frb:__ZN14SafeBinaryRead21TransferSTLStyleArrayI13dynamic_arrayIxLj8EEEEvRT_17TransferMetaFlags
uie:_CultureInfo_ConstructInternalLocaleFromLcid_m1929848881
v1c:__ZN5physx6shdfnd9MutexImplC2Ev
Cei:dynCall_v
eve:_Path__cctor_m3685888661
Ece:_Decimal_System_IConvertible_ToDateTime_m4247760250_AdjustorThunk
GFe:_BitConverterLE_ULongFromBytes_m2583105400
OYg:__Z112RuntimeInvoker_Int32_t2071877448_Il2CppObject_Il2CppObject_Int32_t2071877448_Int32_t2071877448_Int32_t2071877448PK10MethodInfoPvPS2_
oWa:__ZNSt3__26__treeINS_12__value_typeIN4core12basic_stringIcNS2_20StringStorageDefaultIcEEEEPN16MemoryFileSystem4NodeEEENS_19__map_value_compareIS6_SA_NS_4lessIS6_EELb1EEE13stl_allocatorISA_L18MemLabelIdentifier54ELi16EEE7destroyEPNS_11__tree_nodeISA_PvEE
xHf:_Dictionary_2_ToTKey_m965425080_gshared
z2a:__ZN6Camera23VirtualRedirectTransferER14SafeBinaryRead
UIg:_List_1_System_Collections_Generic_IEnumerableU3CTU3E_GetEnumerator_m3911881107_gshared
I7h:__ZNSt3__26vectorINS_12basic_stringIDsNS_11char_traitsIDsEENS_9allocatorIDsEEEENS4_IS6_EEE8__appendEj
vXf:_TimeSpan_FromDays_m2859053398
bBd:__ZN11UnityEngine7Connect13ConnectConfig11ConfigValueD2Ev
nia:__ZNSt3__26__treeINS_12__value_typeIjP14DataBufferGLESEENS_19__map_value_compareIjS4_NS_4lessIjEELb1EEENS_9allocatorIS4_EEE7destroyEPNS_11__tree_nodeIS4_PvEE
ssa:__ZN9GfxDevice22CopyComputeBufferCountE15ComputeBufferIDS0_j
Ipc:__ZN5physx14NpArticulationD0Ev
lb:invoke_viiiiiiii
h7h:__ZN6il2cpp2os6Memory11AlignedFreeEPv
bye:_MissingMemberException__ctor_m2869542203
_2g:__Z61RuntimeInvoker_Boolean_t3825574718_DateTimeOffset_t1362988906PK10MethodInfoPvPS2_
$Og:_CachedInvokableCall_1__ctor_m3238306320_gshared
Rfe:_Enum_get_Value_m1180385699
oNa:__ZNK6Camera16GetCullingMatrixEv
mNf:_Array_IndexOf_TisIl2CppObject_m1815604637_gshared
EDh:__ZNK15dense_hashtableINSt3__24pairIK10KeyWrapperINS1_IPK9FieldInfoP11Il2CppClassEEEjEES9_17ReflectionMapHashIS8_EN14dense_hash_mapIS9_jSD_NS9_14EqualsComparerINS0_8equal_toIS8_EEEENS0_9allocatorISB_EEE9SelectKeyESI_SK_E12test_deletedEj
Kbf:_WellKnownClientTypeEntry_get_ApplicationUrl_m3129286015
syg:_Uri_EnsureAbsoluteUri_m1892758054
EIb:__ZN19LowerResBlitTexture19UnloadFromGfxDeviceEb
Mp:__ZN18StreamedBinaryReadILb0EE21TransferSTLStyleArrayI13dynamic_arrayIiLj4EEEEvRT_17TransferMetaFlags
s9a:__ZN16LightmapSettings5ResetEv
Vta:__ZN12FileAccessor4ReadEyPvPy
fGg:_MonoMethodMessage_get_ReturnValue_m3408856672
Hya:__Z12IsFirstFramev
d_d:_ArrayList_ThrowNewArgumentOutOfRangeException_m3795973535
Jug:_Regex_Init_m1873144192
KFe:_BitConverterLE_ToDouble_m516016818
TH:__ZNK15FileSystemEntry6ExistsEv
CUa:__Z29StdTemplateConversionFunctionIsjEbPvR14SafeBinaryRead
pgb:__ZNK9Transform21GetLocalToWorldMatrixER10Matrix4x4f
bld:__ZN5physx2Gu10ConvexMesh4loadERNS_13PxInputStreamE
I4f:__ZL65Il2CppArray_CustomAttributesCacheGenerator_Array_Sort_m1417611156P21CustomAttributesCache
tt:__ZN13AudioListener23VirtualRedirectTransferER19StreamedBinaryWriteILb0EE
ozf:_InternalEnumerator_1_MoveNext_m1683120485_AdjustorThunk
Und:__ZN5physx6shdfnd5ArrayIPvNS0_19ReflectionAllocatorIN17PxcPoolMallocData10PoolData16EEEE15growAndPushBackERKS2_
Sfa:__ZN13GfxDeviceGLES11CopyTextureE9TextureIDS0_
ARb:__Z72Register_UnityEngine_AssetBundleCreateRequest_DisableCompatibilityChecksv
qii:_emscripten_glViewport__wrapper
zCg:_Context__cctor_m3895126354
sig:__ZL79Convert_t2607082565_CustomAttributesCacheGenerator_Convert_ToUInt16_m1058302913P21CustomAttributesCache
DJf:_EqualityComparer_1_get_Default_m3911577264_gshared
pB:__ZN11UnityEngine15CloudWebService17SessionEventQueue15RestoreFromFileER12FileAccessorPvy
Bqg:__ZL77Physics_t634932869_CustomAttributesCacheGenerator_Physics_Raycast_m2686676054P21CustomAttributesCache
bKf:_EqualityComparer_1__ctor_m2244446852_gshared
okf:_CustomAttributeNamedArgument_t94157543_marshal_pinvoke
Shb:__ZN14PlayerSettingsD2Ev
kqf:_MethodBase_get_ContainsGenericParameters_m1185248753
ate:_FileStream_get_Length_m2265080501
LYf:_Type_type_is_assignable_from_m1620694099
A1h:_GC_reclaim_all
aK:__ZN13PlayableGraph14DestroyOutputsEv
yDg:_ContextAttribute_GetPropertiesForNewContext_m4007241045
jkf:_CustomAttributeTypedArgument_Equals_m1555989603
Q7b:__ZN16RayRTreeCallbackILi1ELb1EED0Ev
L9c:__ZL18PxcContactHullHullRKN5physx2Gu13PolygonalDataES3_RKNS_9PxBounds3ES6_RKNS_11PxTransformES9_fRNS0_13ContactBufferERKNS_2Cm23FastVertex2ShapeScalingESF_bb
Zyh:__ZN6il2cpp2vm10ThreadPool5QueueEP14Il2CppDelegatePPvS3_P12Il2CppObject
yuf:_ResourceSet__ctor_m2566914412
qFc:__ZN5physx7NpCloth16setContactOffsetEf
oFc:__ZN5physx7NpCloth23setSimulationFilterDataERKNS_12PxFilterDataE
a1b:__ZN5physx3Cct26CharacterControllerManager21resetObstaclesBuffersEv
eOe:_ASN1Convert_ToDateTime_m2305963290
nLg:_Collection_1_System_Collections_IList_Add_m2954354104_gshared
Wo:__ZNK6Object25GetNeedsPerObjectTypeTreeEv
Zid:__ZN5physx6shdfnd5ArrayIPNS_10PxsCCDBodyENS0_19ReflectionAllocatorIS3_EEE8recreateEj
EId:_SymmetricAlgorithm_Finalize_m1665128997
RQf:_Array_InternalArray__set_Item_TisDouble_t4078015681_m24756265_gshared
kMe:_BigInteger__ctor_m2991182310
wph:__ZN6il2cpp2vm5Class6IsEnumEPK11Il2CppClass
uSb:__Z52Register_UnityEngine_Camera_INTERNAL_CALL_RaycastTryv
oTa:__ZN13sorted_vectorINSt3__24pairIN4core12basic_stringIcNS2_20StringStorageDefaultIcEEEES6_EEN10vector_mapIS6_S6_27compare_tstring_insensitiveIS6_E13stl_allocatorIS7_L18MemLabelIdentifier37ELi16EEE13value_compareESD_E10insert_oneERKS7_
Yai:_mkdir
Tfg:__ZL86UTF7Encoding_t741406939_CustomAttributesCacheGenerator_UTF7Encoding_Equals_m3706778156P21CustomAttributesCache
Lrh:__ZN15dense_hashtableI10KeyWrapperIPK19Il2CppGenericMethodES4_N6il2cpp8metadata23Il2CppGenericMethodHashEN14dense_hash_setIS4_S7_NS4_14EqualsComparerINS6_26Il2CppGenericMethodCompareEEENSt3__29allocatorIS4_EEE8IdentityESB_SE_E5clearEv
eed:__ZN5physx6shdfnd8PoolBaseINS_21PxsBodyTransformVault13PxsBody2WorldENS0_19ReflectionAllocatorIS3_EEE12allocateSlabEv
r5d:_Convert_ToByte_m791636053
iAc:__ZN5physx9NpPhysics17getVisualDebuggerEv
xfi:dynCall_iifi
jNb:__Z16CreateRenderLoopR6Camera
m4c:__ZN5physx20PxcNpCacheStreamPairC2ERNS_17PxcNpMemBlockPoolE
wAf:_InternalEnumerator_1__ctor_m3387972470_gshared
PF:_tlsf_create
tmb:__ZN13MonoBehaviour23VirtualRedirectTransferER18StreamedBinaryReadILb0EE
PCb:__ZN9ShaderLab20SerializedSubProgramC2ERKS0_
Omi:_emscripten_glCompileShader__wrapper
QHd:_SHA256Managed_ProcessBlock_m1064908669
bE:__ZN11UnityEngine15CloudWebService17WebFileDownloaderINS0_13WWWRestClientENS0_16WWWRestHeaderMapEE24ExtractResponseEtagValueEv
Zci:__ZNK10__cxxabiv121__vmi_class_type_info27has_unambiguous_public_baseEPNS_19__dynamic_cast_infoEPvi
l9d:_Convert_ToUInt64_m2215781574
zSg:_X509Certificate_VerifySignature_m4020723406
vZf:_TypeInitializationException_GetObjectData_m2244451030
qie:_CompareInfo_LastIndexOf_m2978196696
eGe:_DSAManaged_Generate_m3166917081
YEf:_Enumerator_VerifyCurrent_m3330382363_AdjustorThunk
BLb:__ZZN12MeshRenderer15InitializeClassEvEN29FunctorImpl_133kDidDeleteMesh4CallEPviR11MessageData
jl:_emscripten_glGetActiveUniform
xHa:__Z20RenderFullScreenQuadR9GfxDeviceRK6Camera17ShaderChannelMaskRK5RectTIfEf21MonoOrStereoscopicEye
$nd:__ZN5physx7Cooking16platformMismatchEv
F_:__ZN16RenderTextureMap5QueryEPK17RenderSurfaceBase
P4a:__ZN5Light17MainThreadCleanupEv
YQ:__ZN14FileCacherRead12GetCacheSizeEv
qxe:_UnexceptionalStreamWriter_Write_m186237617
Bpg:__ZL77Object_t1021602117_CustomAttributesCacheGenerator_Object_set_name_m4157836998P21CustomAttributesCache
Qli:_emscripten_glUniform4iv__wrapper
Rfd:__ZN5physx28solveParallelCouloumFrictionERNS_18PxsDynamicsContextEjjPNS_13PxcSolverBodyEPNS_17PxcSolverBodyDataEjjPNS_25PxcArticulationSolverDescEjPNS_23PxcSolverConstraintDescEjS9_jPiSA_SA_SA_SA_SA_PNS_25PxcThresholdStreamElementEjSA_PNS_2Cm13SpatialVectorEPKPNS_11PxsBodyCoreERNSD_10BitMapBaseINS_6shdfnd9AllocatorEEEPKPNS_15PxsArticulationEjPViRNSL_5ArrayINS_24PxsConstraintBatchHeaderENSL_19ReflectionAllocatorISW_EEEES10_RNSV_IjNSX_IjEEEES13_PPNS_12PxsRigidBodyEj
O3f:__ZL72Enum_t2459695545_CustomAttributesCacheGenerator_Enum_ToObject_m745807726P21CustomAttributesCache
kXd:_Boolean_CompareTo_m1086129598_AdjustorThunk
kLb:__ZN8Material8GetFloatEN9ShaderLab16FastPropertyNameE
LTg:_X509ExtensionCollection__ctor_m1119345384
B3c:__ZN5physx2Gu18gjkRelativeRayCastINS0_9TriangleVENS0_4BoxVES2_NS0_10ShrunkBoxVEEEbRT_RT0_RKNS_6shdfnd3aos15PsMatTransformVERKNSA_6FloatVERKNSA_5Vec3VESJ_RSE_RSH_SL_fb
eg:_pthread_key_create
bwc:__ZN5physx2Sc8BodyCoreD2Ev
r_d:_ArrayList_Clear_m3834604134
yIc:__ZNK5physx22NpParticleBaseTemplateINS_15PxParticleFluidENS_15NpParticleFluidEE23getExternalAccelerationEv
c1:__ZN15SerializeTraitsI10ColorRGBAfE8TransferI14SafeBinaryReadEEvRS0_RT_
t$d:_FixedSizeArrayListWrapper_get_Capacity_m2972822506
KS:__ZN22BuiltinResourceManager13StaticDestroyEPv
ARf:_Array_Resize_TisCustomAttributeTypedArgument_t1498197914_m3055365808_gshared
uR:__ZN10GameObject17GetComponentIndexEPN5Unity9ComponentE
rEc:__ZN5physx7NpCloth20setMotionConstraintsEPKNS_31PxClothParticleMotionConstraintE
Ccb:__ZN14SafeBinaryRead21TransferSTLStyleArrayI13dynamic_arrayI7SubMeshLj4EEEEvRT_17TransferMetaFlags
sNd:_Single_IsNegativeInfinity_m2615809279
Qke:_DateTimeFormatInfo_get_Calendar_m532085644
dSe:_CipherSuiteFactory_GetSsl3SupportedCiphers_m2476597368
a0e:_IPv6Address_Fill_m1824197512
sxa:__Z19InitFloatExceptionsv
HDc:__ZN5physx15NpActorTemplateINS_7PxClothEE22setClientBehaviorFlagsENS_7PxFlagsINS_25PxActorClientBehaviorFlag4EnumEhEE
K1g:__Z52RuntimeInvoker_Double_t4078015681_Double_t4078015681PK10MethodInfoPvPS2_
ghf:_DSACryptoServiceProvider_Finalize_m1911772902
Rkd:__ZNK5physx2Sc15ClothFabricCore9getPhasesEPNS_18PxClothFabricPhaseEj
USa:__ZN35RegisterRuntimeInitializeAndCleanup22ExecuteInitializationsEv
Hqg:__ZL77Physics_t634932869_CustomAttributesCacheGenerator_Physics_Raycast_m2736931691P21CustomAttributesCache
uLe:_AppDomain_getFriendlyName_m3264018353
Q3h:_GC_set_no_dls
Okg:__ZL72PKCS12_t1362584795_CustomAttributesCacheGenerator_U3CU3Ef__switchU24mapCP21CustomAttributesCache
YHh:__ZNK15dense_hashtableINSt3__24pairIK10KeyWrapperIPK14Il2CppAssemblyEPK16MonoAssemblyNameEES6_N6il2cpp5utils11PointerHashIS4_EEN14dense_hash_mapIS6_SA_SF_NS6_14EqualsComparerINS0_8equal_toIS5_EEEENS0_9allocatorISB_EEE9SelectKeyESK_SM_E12test_deletedERK30dense_hashtable_const_iteratorISB_S6_SF_SO_SK_SM_E
h6:__ZN23PreloadManagerOperation14SetFinalTimingEffff
i:DYNAMICTOP_PTR
bCa:__Z11CopyTextureP7TextureiiS0_ii
Ohb:__ZN13BuildSettings8TransferI18StreamedBinaryReadILb0EEEEvRT_
DBe:_Level2Map__ctor_m542306287
KHb:__ZN10GameObject15InitializeClassEv
hYc:__ZN5physx3Scb17ArticulationJoint9syncStateEv
h3c:__ZNK5physx2Gu29EPASupportMapPairRelativeImplINS0_8CapsuleVENS0_4BoxVEE18doWarmStartSupportEiiRNS_6shdfnd3aos5Vec3VES8_S8_
aid:__ZN5physx17PxsThresholdTable5buildERKNS_18PxsThresholdStreamE
xse:_IsolatedStorageException__ctor_m2390194344
bHf:_Dictionary_2_System_Collections_Generic_ICollectionU3CSystem_Collections_Generic_KeyValuePairU3CTKeyU2CTValueU3EU3E_CopyTo_m1323252853_gshared
M7c:__ZN9BoxPruner12updateObjectERK5IAABBt
Afe:_Double_Equals_m920556135_AdjustorThunk
Jbd:__ZN5physx2Gu22pcmContactPlaneCapsuleERKNS0_13GeometryUnionES3_RKNS_11PxTransformES6_RKfRNS0_5CacheERNS0_13ContactBufferE
c7:__ZN14AsyncOperationD0Ev
tja:__Z29TextureIdMapGLES_QueryOrAlloc9TextureID
keh:_ControllerColliderHit_t4070855101_marshal_pinvoke_back
bRe:_CipherSuite_get_ExpandedKeyMaterialSize_m296573450
r7g:__Z54RuntimeInvoker_Boolean_t3825574718_Vector3_t2243707580PK10MethodInfoPvPS2_
Kvd:__ZN5physx6shdfnd4sortIPvNS0_4LessIS2_EENS0_19ReflectionAllocatorINS_24NpPtrTableStorageManager8PtrBlockILi4EEEEEEEvPT_jRKT0_RKT1_j
r4d:_Stack_Push_m284336154
Kae:_DateTime_Add_m4237489122
anh:__ZL11decimalLog2P19il2cpp_decimal_repr
Zib:__ZN15ResourceManager10Dependency8TransferI14SafeBinaryReadEEvRT_
TE:__ZN3WWWD2Ev
O5c:__ZNK5physx29BroadPhaseBatchUpdateWorkTask7getNameEv
c1h:_GC_extend_size_map
Sca:__ZNSt3__26vectorIPKN5Unity4TypeENS_9allocatorIS4_EEE8__appendEjRKS4_
aIh:__ZN15dense_hashtableINSt3__24pairIK10KeyWrapperIPK14Il2CppAssemblyEPK16MonoAssemblyNameEES6_N6il2cpp5utils11PointerHashIS4_EEN14dense_hash_mapIS6_SA_SF_NS6_14EqualsComparerINS0_8equal_toIS5_EEEENS0_9allocatorISB_EEE9SelectKeyESK_SM_EC2EjRKSF_RKSK_RKSO_
Fw:__ZN4FMOD6System9setDriverEi
Kxh:__ZL25UnresolvedVirtualCall_128P12Il2CppObject20TimeSpan_t3430258949PK10MethodInfo
ATh:__ZN6il2cpp8metadataL24RecursiveGenericDepthForEPK17Il2CppGenericInst
pNb:__ZNK9Transform11GetRotationEv
f3e:_X509Certificate2_Find_m833446211
mIh:__ZN15dense_hashtableINSt3__24pairIK10KeyWrapperIPK22Il2CppGenericParameterEPK24MonoGenericParameterInfoEES6_N6il2cpp5utils11PointerHashIS4_EEN14dense_hash_mapIS6_SA_SF_NS6_14EqualsComparerINS0_8equal_toIS5_EEEENS0_9allocatorISB_EEE9SelectKeyESK_SM_E8min_sizeEjj
Qy:__ZN12AudioManager15DidReloadDomainEv
OWc:__ZN5physx2Sc5Scene26setVisualizationCullingBoxERKNS_9PxBounds3E
Rtb:__Z18Transfer_BlittableI24GenerateTypeTreeTransferLb0EyEvRK29SerializationCommandArgumentsR31RuntimeSerializationCommandInfo
DX:__ZN8Material14CreateMaterialER6ShaderN6Object9HideFlagsEb
RGe:_KeyPairPersistence_FromXml_m2310151202
rA:__ZN5physx10PxBaseTaskD2Ev
PRb:__Z60Register_UnityEngine_AsyncOperation_get_allowSceneActivationv
hce:_DBNull_System_IConvertible_ToUInt64_m2919804476
gbi:_fread
IHh:__ZN15dense_hashtableINSt3__24pairIK10KeyWrapperIPK14Il2CppAssemblyEPK16MonoAssemblyNameEES6_N6il2cpp5utils11PointerHashIS4_EEN14dense_hash_mapIS6_SA_SF_NS6_14EqualsComparerINS0_8equal_toIS5_EEEENS0_9allocatorISB_EEE9SelectKeyESK_SM_E15set_deleted_keyERKSB_
Hxd:__Z27GetMeshAssetPathDescriptivePK4Mesh
GX:__Z25GetBuiltinResourceManagerv
z0c:__ZN5physx2Sq16BucketPrunerCore20allocateSortedMemoryEj
FVh:__ZN6il2cpp2gc8GCHandle15GetTargetHandleEP12Il2CppObjectii
X4h:__ZN6il2cpp2os14WindowsRuntime13DeleteHStringEP15Il2CppHString__
bna:__ZNSt3__26vectorIN20GpuProgramParameters19AtomicCounterBufferENS_9allocatorIS2_EEE21__push_back_slow_pathIKS2_EEvRT_
Ch:_llvm_trap
fN:__ZNSt3__27__sort5IRNS_6__lessIN12_GLOBAL__N_114ParamNameIndexES3_EEPS3_EEjT0_S7_S7_S7_S7_T_
Bre:_Directory_CreateDirectory_m3561886598
fWb:__ZL34RegisterModuleICalls_JSONSerializev
z1h:_get_index
X8c:__ZNK5physx14SingleAABBTask7getNameEv
Epd:__ZN5physx11HullLibrary11calchullgenEPNS_6float3Eiif
pTe:_ClientSessionInfo_get_Valid_m3589823308
QHe:_PKCS1_Sign_v15_m2137018891
Uzg:_GCHandle__ctor_m2952050298
vfa:__ZN13GfxDeviceGLES30SetBackBufferColorDepthSurfaceEP17RenderSurfaceBaseS1_
zMa:__Z11BeginJobSetR8JobFencei
eOb:__ZN16StreamedResource8TransferI18StreamedBinaryReadILb0EEEEvRT_
dWc:__ZN5physx6shdfnd5ArrayINS_12PxActorShapeENS0_19ReflectionAllocatorIS2_EEE8recreateEj
kPc:__ZN5physx15NpActorTemplateINS_13PxRigidStaticEE14setOwnerClientEh
JBb:__ZN15dense_hashtableINSt3__24pairIKiN4core17string_with_labelILi1EEEEEi18SInt32HashFunctionN14dense_hash_mapIiS5_S7_NS0_8equal_toIiEE13stl_allocatorIS6_L18MemLabelIdentifier1ELi16EEE9SelectKeyESA_SD_E12resize_deltaEjj
cOa:__ZNK20OcclusionCullingData22GetStaticRendererCountEv
Ln:FUNCTION_TABLE_iiiiifi
QHa:__ZNK6Camera17GetSkyboxMaterialEv
_mi:_emscripten_glDisableVertexAttribArray__wrapper
Xyf:_InternalEnumerator_1_get_Current_m3259181373_AdjustorThunk
HHf:_Dictionary_2_System_Collections_IDictionary_set_Item_m417746447_gshared
UAf:_InternalEnumerator_1_get_Current_m789289033_gshared
Rfb:__ZN12MeshRenderer18CalculateLocalAABBER4AABBRKS_RK4Mesh
fHc:__ZN5physx2Sc9ClothCore20setMotionConstraintsEPKNS_31PxClothParticleMotionConstraintE
zRg:_X509CertificateCollection_GetEnumerator_m3994741635
Fic:__ZNK5physx2Gu22SupportMapRelativeImplINS0_11ConvexHullVEE14doSupportSweepERKNS_6shdfnd3aos5Vec3VE
Zme:_Guid_ToString_m3927110175
BXa:__ZN21UnityDefaultAllocatorI17LowLevelAllocatorE8AllocateEji
x0e:_IPv6Address_AsIPv4Int_m3565745471
E9c:__ZN5physx23PxcContactCapsuleConvexERKNS_2Gu13GeometryUnionES3_RKNS_11PxTransformES6_RKfRNS_10PxcNpCacheERNS0_13ContactBufferE
yRb:__Z43AssetBundleRequest_Get_Custom_PropAllAssetsP12Il2CppObject
opf:_TypeBuilder_MakeGenericType_m4282022646
Agh:_Gradient_t3600583008_marshal_pinvoke
Jva:__ZN12HandlerChain10AtomicMoveER13FileEntryDataS1_
$nf:_MethodBuilder_GetCustomAttributes_m923430117
wM:__ZN20SpeedTreeWindManager6UpdateEf
Zra:__ZN9GfxDevice19CreateSparseTextureE9TextureIDii13TextureFormati17TextureColorSpace
uxg:_Literal_GetWidth_m1285678191
I6d:_Decimal_ThrowAtPos_m3318712794
qIe:_RSAManaged_GetPaddedValue_m4394397
oxe:_UnexceptionalStreamWriter__ctor_m2209699189
gyf:_InternalEnumerator_1_Dispose_m2337194690_AdjustorThunk
vxf:_InternalEnumerator_1_MoveNext_m3486952605_gshared
kfb:__ZN14CompressedMesh8TransferI19StreamedBinaryWriteILb0EEEEvRT_
ypc:__ZN5physx6shdfnd5ArrayIPvNS0_15InlineAllocatorILj256ENS0_19ReflectionAllocatorINS_14NpRigidDynamicEEEEEE15growAndPushBackERKS2_
cjf:_AssemblyFileVersionAttribute__ctor_m2026149866
wRb:__Z58AssetBundleCreateRequest_CUSTOM_DisableCompatibilityChecksP12Il2CppObject
wof:_TypeBuilder_SetParent_m387557893
ngh:_ScriptPlayable_OnGraphStop_m4241519609
vcc:__ZN5physx3Cct9SweepTest13onOriginShiftERKNS_6PxVec3E
S9e:_SerializationInfo_SetType_m499725474
SRe:_CipherSuiteCollection_cultureAwareCompare_m1825407448
bnd:__ZNK5physx2Gu12TriangleMesh12getTrianglesEv
nje:_DateTimeFormatInfo_GetEraName_m1437894363
kQf:_Array_InternalArray__Insert_TisLabelFixup_t4090909514_m3927736182_gshared
F1f:_WeakReference_get_TrackResurrection_m2095420877
C5e:_X509KeyUsageExtension_Encode_m3100824560
rJf:_DefaultComparer_GetHashCode_m1728348656_gshared
Bgf:_CspParameters_set_Flags_m4131471722
jac:__ZN26IntersectAnyVsMeshCallbackILi2ELb1EE10processHitERKN5physx12PxRaycastHitERKNS1_6PxVec3ES7_S7_RfPKj
Jsh:__ZN15dense_hashtableINSt3__24pairIK10KeyWrapperI13dynamic_arrayIPK10Il2CppTypeLj4EEEPFvvEEES8_N6il2cpp8metadata19Il2CppSignatureHashEN14dense_hash_mapIS8_SB_SF_NS8_14EqualsComparerINSE_22Il2CppSignatureCompareEEENS0_9allocatorISC_EEE9SelectKeyESJ_SL_E15destroy_bucketsEjj
tnf:_GenericTypeParameterBuilder_get_TypeHandle_m3293062357
Z4e:_X509ChainPolicy_get_ExtraStore_m2890873777
ETg:_X509Extension_get_Critical_m1103269870
cdg:__ZL60FormatterServices_t3161112612_CustomAttributesCacheGeneratorP21CustomAttributesCache
btf:_GetterAdapter_EndInvoke_m1928570128
H9b:__ZN5physx6shdfnd5ArrayINS_11PxDebugLineENS0_19ReflectionAllocatorIS2_EEE15growAndPushBackERKS2_
C5c:__ZN5physx25solveContactConcludeBlockEPKNS_23PxcSolverConstraintDescEjRNS_16PxcSolverContextE
G6e:_Interpreter_PopulateGroup_m4098755954
KPe:_PrivateKeyInfo_DecodeRSA_m919734506
uTb:__ZNSt3__27__sort4IRNS_6__lessI11KeyframeTplIfES3_EEPS3_EEjT0_S7_S7_S7_T_
B9c:__ZN5physx21PxcContactPlaneConvexERKNS_2Gu13GeometryUnionES3_RKNS_11PxTransformES6_RKfRNS_10PxcNpCacheERNS0_13ContactBufferE
sWa:__ZL16MouseMoveHandleriPK20EmscriptenMouseEventPv
sme:_GuidParser_Reset_m3389485794
dHh:__ZN6il2cpp2gc19AppendOnlyGCHashMapINSt3__24pairIPK10MethodInfoP11Il2CppClassEEP11Il2CppArray17ReflectionMapHashIS9_ENS2_8equal_toIS9_EEE11TryGetValueERKS9_PSB_
qKg:_Enumerator_System_Collections_IEnumerator_get_Current_m1270503615_gshared
nyf:_InternalEnumerator_1_System_Collections_IEnumerator_get_Current_m3315293493_gshared
AEa:__ZN11HaloManager17RenderGeometryJobEP25DynamicVBOGeometryJobDataj
$pe:_Int64_Parse_m4214159959
bBf:_InternalEnumerator_1_System_Collections_IEnumerator_get_Current_m4023948615_gshared
kni:_emscripten_glBlendEquation__wrapper
FKh:__ZN15dense_hashtableINSt3__24pairIK10KeyWrapperIP11Il2CppClassES4_EES5_N6il2cpp8metadata16SZArrayClassHashEN14dense_hash_mapIS5_S4_SA_NS5_14EqualsComparerINS9_19SZArrayClassCompareEEENS0_9allocatorIS7_EEE9SelectKeyESE_SG_E13set_empty_keyERKS7_
Sbi:__ZNSt3__212basic_stringIcNS_11char_traitsIcEENS_9allocatorIcEEE6__initEPKcj
Gj:_emscripten_set_fullscreenchange_callback
cQc:__ZN5physx2Sc5Scene11preAllocateEjjjjj
BHe:_KeyPairPersistence__IsUserProtected_m3417764903
c6e:_CategoryUtils_CategoryFromName_m226887453
Hde:_Decimal_op_Division_m1099836590
ED:__ZN11UnityEngine15CloudWebService14DataDispatcher22ResetNetworkRetryIndexEv
Ma:invoke_vifiiiiiiiiiiiiiiiiiiiiiiiiiiii
Lj:_emscripten_glDrawArrays
Swf:_InternalEnumerator_1_Dispose_m811081805_AdjustorThunk
cD:__ZN11UnityEngine15CloudWebService19SessionEventManagerC2Ev
use:_File_Open_m1543461971
DCa:__ZNK22RenderingCommandBuffer10FindTempRTERKN9ShaderLab16FastPropertyNameE
gFg:_LogicalCallContext_GetObjectData_m104142736
G2d:_Hashtable_KeyEquals_m1433874944
k0:__ZN30dense_hashtable_const_iteratorINSt3__24pairIKN9ShaderLab7Program23ShaderKeywordSetAndHashEPKNS2_10SubProgramEEES4_NS3_24ShaderKeywordHashFunctorEN14dense_hash_mapIS4_S8_SA_NS0_8equal_toIS4_EE13stl_allocatorIS9_L18MemLabelIdentifier65ELi16EEE9SelectKeyESD_SG_E30advance_past_empty_and_deletedEv
Eug:_QuickSearch_GetShiftDistance_m2364008966
BAb:__ZNSt3__26vectorI17ScriptingImagePtrNS_9allocatorIS1_EEE8__appendEj
HDd:__ZN13RuntimeStaticI14dynamic_bitsetLb0EE16StaticInitializeEPv
h4f:__ZL69Il2CppArray_CustomAttributesCacheGenerator_Array_SetValue_m2671138705P21CustomAttributesCache
Fdc:__ZN5physx3Ext9MassProps13rotateInertiaERKNS_7PxMat33ERKNS_6PxQuatE
Afd:__ZN5physx32PxsSolverConstraintPartitionTaskD2Ev
Gz:__ZL19CleanupModule_Audiov
tKf:_GenericComparer_1_Compare_m2516380588_gshared
BLh:__ZN6il2cpp2os4File10DeleteFileERKNSt3__212basic_stringIcNS2_11char_traitsIcEENS2_9allocatorIcEEEEPi
Cre:_File_Exists_m1685968367
Brb:__Z29Transfer_Blittable_ArrayFieldI14SafeBinaryReadiEvRT_R9ArrayInfoRK23StaticTransferFieldInfo
Xzh:__ZN6il2cpp6icalls8mscorlib6System8MonoType8GetFieldEP20Il2CppReflectionTypeP12Il2CppStringi
rJb:__ZN9Texture2D15InitializeClassEv
Kji:_emscripten_glVertexAttrib3fv__wrapper
gog:__ZL98DebugLogHandler_t865810509_CustomAttributesCacheGenerator_DebugLogHandler_Internal_Log_m3491540823P21CustomAttributesCache
$Eh:__ZN15dense_hashtableINSt3__24pairIK10KeyWrapperINS1_IPK10MethodInfoP11Il2CppClassEEEjEES9_17ReflectionMapHashIS8_EN14dense_hash_mapIS9_jSD_NS9_14EqualsComparerINS0_8equal_toIS8_EEEENS0_9allocatorISB_EEE9SelectKeyESI_SK_E12expand_arrayEjN21dense_hash_map_traits17integral_constantIbLb0EEE
XTd:_Array_get_IsFixedSize_m2250877846
vji:_emscripten_glGetIntegerv__wrapper
zTg:_X509Crl_VerifySignature_m25189948
UDe:_BigInteger_op_Inequality_m628223799
Cef:_RuntimeFieldHandle_Equals_m1202966418_AdjustorThunk
_ib:__ZN14SafeBinaryRead21TransferSTLStyleArrayINSt3__26vectorI4PPtrI6ObjectE13stl_allocatorIS5_L18MemLabelIdentifier51ELi16EEEEEEvRT_17TransferMetaFlags
p3h:_GC_generic_malloc
f0c:__ZNK5physx2Sq12BucketPruner7overlapERKNS0_9ShapeDataERNS0_14PrunerCallbackE
iHb:__ZNSt3__26vectorI16MessageForwarder13stl_allocatorIS1_L18MemLabelIdentifier6ELi8EEE6resizeEj
Afa:__ZN13GfxDeviceGLES32CreateDepthRenderSurfacePlatformEP17RenderSurfaceBase17DepthBufferFormat
Cp:__ZN14SafeBinaryRead21TransferSTLStyleArrayI13dynamic_arrayIiLj4EEEEvRT_17TransferMetaFlags
Kwf:_InternalEnumerator_1_MoveNext_m2651026500_AdjustorThunk
A6c:__ZN5physx23PxsBroadPhaseContextSap7destroyEv
v6:__ZL30RegisterFilteredObjectCallbackPP12Il2CppObjectiPv
Dvb:__Z18Transfer_BlittableI19StreamedBinaryWriteILb0EELb1EyEvRK29SerializationCommandArgumentsR31RuntimeSerializationCommandInfo
D5a:__ZN19LightProbeOcclusion8TransferI14SafeBinaryReadEEvRT_
stg:_MatchCollection_TryToGet_m2938913145
M2c:__ZN5physx19PxcGetMaterialShapeEPKNS_12PxsShapeCoreEjRNS_18PxcNpThreadContextEPNS_15PxsMaterialInfoE
Ani:_emscripten_glIsTexture__wrapper
Gjh:_Ray_ToString_m2019179238_AdjustorThunk
pdi:_llvm_bswap_i32
aEd:_KeyedHashAlgorithm_get_Key_m3672929432
afa:__ZN9GfxDevice25ReleaseAsyncCommandHeaderEPN21GfxDeviceAsyncCommand3ArgE
imb:__ZN9TextAsset8TransferI24GenerateTypeTreeTransferEEvRT_
aBf:_InternalEnumerator_1_System_Collections_IEnumerator_Reset_m2116079299_AdjustorThunk
MOe:_MD2Managed_HashCore_m248147901
sG:__ZN13ScreenManager24SetAllowLayeredRenderingEb
umb:__ZN13MonoBehaviour23VirtualRedirectTransferER17RemapPPtrTransfer
Lpa:__ZN21UniformBufferTFMethod20IsBoneCountSupportedEi
Dxh:__ZL25UnresolvedVirtualCall_121P12Il2CppObjectiS0_S0_S0_PK10MethodInfo
kue:_MemoryStream__ctor_m4073175573
HIc:__ZN5physx22NpParticleBaseTemplateINS_15PxParticleFluidENS_15NpParticleFluidEE18setDynamicFrictionEf
Xhb:__ZN14PlayerSettings10SmartResetEv
htd:__ZNSt3__26__treeINS_12__value_typeI9ShapePair16TriggerStayStateEENS_19__map_value_compareIS2_S4_NS_4lessIS2_EELb1EEENS_9allocatorIS4_EEE7destroyEPNS_11__tree_nodeIS4_PvEE
S$:__ZN6Shader27MarkShaderStateNotSupportedEPKS_
vac:__Z13raycast_planeRKN5physx10PxGeometryERKNS_11PxTransformERKNS_6PxVec3ES8_fNS_7PxFlagsINS_9PxHitFlag4EnumEtEEjPNS_12PxRaycastHitEbPFbRSD_PvESG_
iRd:_EncoderExceptionFallbackBuffer_get_Remaining_m3206510944
Lw:__ZN10ObjectPoolIN4FMOD6ReverbENS0_7ReverbIEE7SetSizeEi
fyf:_InternalEnumerator_1_System_Collections_IEnumerator_get_Current_m3600601141_AdjustorThunk
YPa:__ZN10GameObject21EnsureUniqueTransformEbb
jpa:__ZN25TransformFeedbackSkinning8SkinMeshERK18VertexStreamSourceP9GfxBufferP17GPUSkinPoseBufferS4_ii17ShaderChannelMaskb
N0h:_GC_never_stop_func
xKe:_X509Certificate_get_ValidFrom_m941763238
vSh:__ZN15dense_hashtableINSt3__24pairIK10KeyWrapperIP14Il2CppIUnknownEjEES5_N6il2cpp5utils11PointerHashIS3_EEN14dense_hash_mapIS5_jSB_NS5_14EqualsComparerINS0_8equal_toIS4_EEEENS0_9allocatorIS7_EEE9SelectKeyESG_SI_E12resize_deltaEjj
cwd:__ZN5physx9NpFactory14createInstanceEv
Qde:_Delegate_CreateDelegate_m2101460062
gXd:_Boolean_CompareTo_m3691698947
sJf:_DefaultComparer_Equals_m3262686272_gshared
adc:__ZN5physx2Cm12RenderBufferD2Ev
Zhc:__ZL32GeomOverlapCallback_PlaneCapsuleRKN5physx10PxGeometryERKNS_11PxTransformES2_S5_PNS_2Gu12TriggerCacheE
BHc:__ZN5physx2Sc9ClothCore13setGlobalPoseERKNS_11PxTransformE
Ove:_StreamReader_ReadToEnd_m3871366821
qwc:__ZN5physx2Sc9ShapeCore13setRestOffsetEf
Drd:__ZN8Collider14FinalizeCreateERN5physx10PxGeometryEPK9Rigidbody
or:__Z17CalculateGlobalSM23TransformAccessReadOnlyRKN4math7_float4E
CA:__ZN23CloudWebServicesManager23VirtualRedirectTransferER18StreamedBinaryReadILb0EE
BWh:__ZN30dense_hashtable_const_iteratorINSt3__24pairIK10KeyWrapperIP12Il2CppObjectEN6il2cpp2gc9CachedCCWEEES5_NS7_5utils11PointerHashIS3_EEN14dense_hash_mapIS5_S9_SD_NS5_14EqualsComparerINS0_8equal_toIS4_EEEENS0_9allocatorISA_EEE9SelectKeyESI_SK_E30advance_past_empty_and_deletedEv
