qc:_glClearStencil
ROf:_Array_InternalArray__ICollection_Add_TisMark_t2724874473_m1613484179_gshared
N6b:__ZN5physx2Gu19gjkLocalPenetrationINS0_8CapsuleVENS0_17ShrunkConvexHullVEEEjRKT_RKT0_RKNS_6shdfnd3aos6FloatVERNSB_5Vec3VESG_SG_RSC_PhSI_Rhb
Tef:_RuntimeTypeHandle_GetObjectData_m3567098501
xZh:__ZN6il2cpp2vm5Array13GetByteLengthEP11Il2CppArray
x$f:_UInt64_System_IConvertible_ToDecimal_m4205696037
Pla:__Z21SourceMipLevelForBlitiiii
AZc:__ZNK5physx2Sc5Scene24getContactModifyCallbackEv
ar:__ZN11UnityEngine9Animation28GenericAnimationBindingCacheD2Ev
G0c:__ZN5physx2Sq10AABBPruner10addObjectsEPjPKNS_9PxBounds3EPKNS0_13PrunerPayloadEj
DHg:_List_1_System_Collections_IList_IndexOf_m39706221_gshared
B6d:_Decimal_op_Implicit_m2971610317
Bb:invoke_viiiifiiiiif
BPa:__Z18RestoreRenderStateR20CameraRenderOldStateR17ShaderPassContext
O$d:_SynchronizedArrayListWrapper_get_Item_m3309425850
Rwb:__Z18Transfer_BlittableI18StreamedBinaryReadILb1EELb1E5RectTIfEEvRK29SerializationCommandArgumentsR31RuntimeSerializationCommandInfo
Btb:__Z18Transfer_BlittableI24GenerateTypeTreeTransferLb0E11ColorRGBA32EvRK29SerializationCommandArgumentsR31RuntimeSerializationCommandInfo
CP:__Z25scripting_class_from_name17ScriptingImagePtrPKcS1_
gJh:__ZN14dense_hash_mapI10KeyWrapperINSt3__24pairIPK12PropertyInfoP11Il2CppClassEEEj17ReflectionMapHashIS8_ENS9_14EqualsComparerINS1_8equal_toIS8_EEEENS1_9allocatorINS2_IKS9_jEEEEE15set_deleted_keyERSH_
qnb:__Z29scripting_class_enum_basetype17ScriptingClassPtr
Tfc:__ZN5physx6shdfnd8PoolBaseINS_2Sc10NPhaseCore16ClothListElementENS0_19ReflectionAllocatorIS4_EEE17releaseEmptySlabsEv
Cji:_emscripten_glDeleteBuffers__wrapper
Djd:__ZN5physx2Sc14ConstraintCore10breakApartEv
Cnf:_GenericTypeParameterBuilder_GetHashCode_m867619899
Uod:__ZN5physx2Gu15EdgeListBuilderC2Ev
hKf:_EqualityComparer_1__cctor_m3397254040_gshared
bH:__ZNK20LocalFileSystemPosix6ParentERK13FileEntryDataRN4core12basic_stringIcNS3_20StringStorageDefaultIcEEEE
rqd:__ZN5physx7Cooking20loadTriangleMeshDescERKNS_18PxTriangleMeshDescERNS_19TriangleMeshBuilderE
Wic:__ZN5physx9NpFactory21releaseConnectorArrayEPNS_16NpConnectorArrayE
Huc:__ZNK5physx14NpShapeManager9getShapesEPPNS_7PxShapeEjj
mba:__ZN17PersistentManager22CheckInstanceIDsLoadedEPii
Hja:__ZN7ApiGLES17CopyBufferSubDataEjjlll
tOg:_U3CCreateWhereIteratorU3Ec__Iterator1D_1_Reset_m1773515612_gshared
tHa:__ZN25CameraStackRenderingState20GetOrCreateBuiltinRTE24BuiltinRenderTextureTypeii17DepthBufferFormat19RenderTextureFormatj22RenderTextureReadWrite14VRTextureUsagei
vz:__ZN11AudioModule26SetDefaultMicrophoneDriverEPv
Skh:_AesManaged_CreateEncryptor_m1729287824
VLa:__ZN17PrePassRenderLoop14RenderBasePassEP13RenderTextureRK14LightingLayersR13dynamic_arrayI16RenderObjectDataLj4EERbR10MinMaxAABB
YYd:_Char_System_IConvertible_ToInt16_m2741348777_AdjustorThunk
i0a:__ZN21ArchiveStorageCreator10InitializeERKN4core12basic_stringIcNS0_20StringStorageDefaultIcEEEEb
EMg:_ReadOnlyCollection_1_System_Collections_Generic_IListU3CTU3E_set_Item_m1547026160_gshared
J5f:__ZL61MarshalAsAttribute_t2900773360_CustomAttributesCacheGeneratorP21CustomAttributesCache
oY:__ZN7Texture13SetFilterModeEi
W_h:__ZN6il2cpp8metadata13GenericMethod9GetMethodEPK19Il2CppGenericMethod
aq:__ZNSt3__26vectorIN4core12basic_stringIcNS1_20StringStorageDefaultIcEEEENS_9allocatorIS5_EEE7reserveEj
V8d:_Convert_ToUInt16_m2130758075
M2e:_X509BasicConstraintsExtension_Encode_m3505127076
tea:__ZN13GfxDeviceGLES11SetViewportERK5RectTIiE
Mce:_Decimal_System_IConvertible_ToInt64_m2504363272
sb:invoke_vifiiii
fUd:_Array_GetValue_m3182152438
Jd:_emscripten_glDepthRange
Tgf:_DESTransform_CipherFunct_m3559419566
L1b:__ZN5physx2Gu24contactConvexHeightfieldERKNS0_13GeometryUnionES3_RKNS_11PxTransformES6_RKfRNS0_5CacheERNS0_13ContactBufferE
xkc:__ZN5physx6shdfnd5ArrayIPvNS0_19ReflectionAllocatorINS_2Cm5BlockIS2_Lj8EEEEEE15growAndPushBackERKS2_
Z3d:_Enumerator_get_Key_m2908810861
aCb:__Z14resize_trimmedINSt3__26vectorIN9ShaderLab20SerializedSubProgram12UAVParameterENS0_9allocatorIS4_EEEEEvRT_j
U9e:_SerializationInfo_AddValue_m1781549036
ISe:_TlsServerKeyExchange_verifySignature_m3641534563
nla:__ZN4crndL20crnd_default_reallocEPvjPjbS0_
YMf:_Array_BinarySearch_TisInt32_t2071877448_m51233948_gshared
Rbi:__ZNSt3__212basic_stringIcNS_11char_traitsIcEENS_9allocatorIcEEEC2ERKS5_
J8c:__ZN5physx24PxsComputeAABBLocalSpaceERKNS_18PxcAABBDataDynamicERNS_9PxBounds3E
fTa:__ZNSt3__26vectorINS_4pairIN4core12basic_stringIcNS2_20StringStorageDefaultIcEEEEPK17MessageIdentifierEENS_9allocatorISA_EEE12__move_rangeEPSA_SE_SE_
gTd:_UTF32Encoding_GetPreamble_m767706727
WFa:__ZN23ScriptableRenderContextC2Ev
l6d:_DateTime_AbsoluteDays_m3061694073
lxb:__Z18Transfer_BlittableI18StreamedBinaryReadILb1EELb1EdEvRK29SerializationCommandArgumentsR31RuntimeSerializationCommandInfo
yFf:_Enumerator_System_Collections_IEnumerator_get_Current_m229223308_gshared
i1c:__ZN5physx6shdfnd8internal8HashBaseINS0_4PairIKNS_2Sq13PrunerPayloadEjEES5_NS0_4HashIS5_EENS1_11HashMapBaseIS5_jS9_NS0_9AllocatorEE6GetKeyESB_Lb1EE5eraseERS6_
Cnb:__Z26BuildSerializationCacheFor17ScriptingClassPtrRb
ald:__ZN5physx13GuMeshFactory16createConvexMeshERNS_13PxInputStreamE
Vtd:__ZN5physx6shdfnd8internal8HashBaseINS0_4PairIKPKcjEES5_NS0_4HashIS5_EENS1_11HashMapBaseIS5_jS9_NS_7profile26WrapperReflectionAllocatorIjEEE6GetKeyESD_Lb1EE6createERS6_Rb
S3b:__ZN5physx2Gu3Box6createERKNS0_7CapsuleE
X_a:__ZN10FileSystem12MountHandlerEP17FileSystemHandler
x$d:_FixedSizeArrayListWrapper_AddRange_m2071800418
qW:__Z9InitInputv
tub:__Z29Transfer_Blittable_ArrayFieldI24GenerateTypeTreeTransfer11ColorRGBA32EvRT_R9ArrayInfoRK23StaticTransferFieldInfo
_kd:__ZNK5physx13GuMeshFactory15getConvexMeshesEPPNS_12PxConvexMeshEjj
HEh:__ZN6il2cpp2gc19AppendOnlyGCHashMapINSt3__24pairIPK10MethodInfoP11Il2CppClassEEP22Il2CppReflectionMethod17ReflectionMapHashIS9_ENS2_8equal_toIS9_EEE3AddERKS9_SB_
_Va:__ZN16MemoryFileSystem6DeleteER13FileEntryDatab
k9:__ZL21BlitScaleStbImageImplRK14ImageReferenceRS_NS_10ColorSpaceE
Azc:__ZN5physx10NpMaterial17setStaticFrictionEf
nZe:_TlsStream_set_Position_m378064217
ZTc:__ZNK5physx7NpScene19getFilterShaderDataEv
iqb:__Z29Transfer_Blittable_ArrayFieldI14SafeBinaryReadyEvRT_R9ArrayInfoRK23StaticTransferFieldInfo
sae:_DateTime_System_IConvertible_ToUInt32_m1363211018
Cuc:__ZN5physx2Sc19ShapeInstancePairLL26onPoseChangedWhileSleepingEv
VKd:_Evidence_Equals_m2325859915
R2c:__ZN5physx22PxcSweepCapsuleCapsuleERKNS_11PxsCCDShapeES2_PKNS_12PxsRigidBodyES5_RKNS_11PxTransformES8_S8_S8_fRNS_6PxVec3ESA_RNS_10PxcNpCacheERNS_18PxcNpThreadContextEf
yjf:_Default__ctor_m172834064
Ckb:__ZN20ArchiveStorageReader17MakeStorageUnusedEv
Pvg:_Regex_IsMatch_m2159202025
Obc:__ZNK5physx3Cct17CapsuleController21getHalfHeightInternalEv
Cua:__ZNK25MultiBlocksMemoryFileData5CloneEv
kNg:_ReadOnlyCollection_1_System_Collections_IList_IndexOf_m3466286536_gshared
C3h:_GC_add_ext_descriptor
jbf:_RemotingServices_GetMethodBaseFromName_m3271095947
R3g:__Z71RuntimeInvoker_TimeSpan_t3430258949_Double_t4078015681_Int64_t909078037PK10MethodInfoPvPS2_
cic:__ZL30GeomOverlapCallback_CapsuleBoxRKN5physx10PxGeometryERKNS_11PxTransformES2_S5_PNS_2Gu12TriggerCacheE
Udi:dynCall_iiiiiiiiiiii
mQd:_ASCIIEncoding_GetBytes_m3617160053
ORe:_CipherSuiteCollection_System_Collections_IList_RemoveAt_m143866082
TCg:_Context_get_HasGlobalDynamicSinks_m3205328884
u4:__ZN6prcoreL17RemapGenericFloatI16TexFormatRGFloat17TexFormatRGBAHalfEEvPKNS_9InnerInfoE
Gs:__ZN12AudioManager22CreateFMODSoundFromWWWEP10IWWWStream15FMOD_SOUND_TYPE17FMOD_SOUND_FORMATjjbbP10SampleClip
eLb:__ZNK32RendererMaterialAnimationBinding15GenerateBindingERKN4core12basic_stringIcNS0_20StringStorageDefaultIcEEEEbRN11UnityEngine9Animation14GenericBindingE
SO:__ZN8Remapper23GetOrGenerateInstanceIDERK26SerializedObjectIdentifier
awe:_StreamWriter_Flush_m3426120024
Gte:_MemoryStream__ctor_m1489366847
pLd:_SecurityElement_IsValidTag_m64902195
BFf:_Enumerator_System_Collections_IEnumerator_get_Current_m229223308_AdjustorThunk
Atf:_PropertyInfo_SetValue_m2961483868
vQg:_UnityEvent_3_FindMethod_Impl_m1889846153_gshared
Wjf:_ConstructorInfo_Invoke_m2144827141
Kcb:__ZN6Sprite8TransferI24GenerateTypeTreeTransferEEvRT_
Mcb:__ZN7SubMesh8TransferI24GenerateTypeTreeTransferEEvRT_
FHh:__ZN14dense_hash_mapI10KeyWrapperIPK14Il2CppAssemblyEPK16MonoAssemblyNameN6il2cpp5utils11PointerHashIS2_EENS4_14EqualsComparerINSt3__28equal_toIS3_EEEENSD_9allocatorINSD_4pairIKS4_S7_EEEEE13set_empty_keyERSJ_
L0b:__ZN5physx3Cct10Controller6setPosERKNS_14PxExtendedVec3E
S2b:__ZN5physx2GuL14testFaceNormalERKNS0_13PolygonalDataES3_PNS0_12SupportLocalES5_RKNS_6shdfnd3aos15PsMatTransformVESA_RKNS7_6FloatVERSB_RjRNS7_5Vec3VENS0_13FeatureStatusERSI_
i8g:__Z112RuntimeInvoker_Int32_t2071877448_Il2CppObject_Int32_t2071877448_Int32_t2071877448_Int32_t2071877448_Il2CppObjectPK10MethodInfoPvPS2_
Vai:_poll
rte:_Stream_BeginRead_m1985960185
pJb:__ZN13ProduceHelperI14Texture2DArrayLb0EE7ProduceE18MemLabelIdentifier18ObjectCreationMode
dPe:_MD4Managed_GG_m1462438360
E9e:_SerializationInfoEnumerator_get_Value_m3437991400
iic:__ZL32GeomOverlapCallback_ConvexConvexRKN5physx10PxGeometryERKNS_11PxTransformES2_S5_PNS_2Gu12TriggerCacheE
ROe:_MD4_Create_m2582504069
pTh:__ZN6il2cpp8metadata15GenericMetadata15GetGenericClassEiPK17Il2CppGenericInst
KWd:_Boolean_System_IConvertible_ToInt16_m977801621
bpb:__Z18Transfer_BlittableI14SafeBinaryReadLb0E10Matrix4x4fEvRK29SerializationCommandArgumentsR31RuntimeSerializationCommandInfo
lya:__Z24GetFixedBehaviourManagerv
tEa:__ZN12FlareManager9UpdateJobEP25FlareManagerUpdateJobData
bzh:__ZN6il2cpp2vm10ThreadPool4WaitEP17Il2CppAsyncResultPPv
k9h:_vfprintf
Qeh:_Debug_get_logger_m4173808038
iFa:__ZN20DynamicPropertySheetD0Ev
OTa:__ZN14SafeBinaryRead17RegisterConverterEPKcS1_PFbPvRS_E
yJ:__ZN35RegisterRuntimeInitializeAndCleanup8RegisterEPFvPvES2_iS0_
V2c:__ZN5physx25PxcSweepConvexHeightfieldERKNS_11PxsCCDShapeES2_PKNS_12PxsRigidBodyES5_RKNS_11PxTransformES8_S8_S8_fRNS_6PxVec3ESA_RNS_10PxcNpCacheERNS_18PxcNpThreadContextEf
mGe:_DSAManaged_NormalizeArray_m2287089393
pya:__ZN8Material26ResetAllCachedMaterialDataEP6Shader
aa:invoke_diddi
p7d:_Double_TryParseStringConstant_m2585405703
Bob:__Z18Transfer_BlittableI14SafeBinaryReadLb0EiEvRK29SerializationCommandArgumentsR31RuntimeSerializationCommandInfo
dvh:__ZN6il2cpp2vm13MetadataCache30GetPropertyDefinitionFromIndexEi
iuf:_ResourceEnumerator__ctor_m1679839941
wFd:_RijndaelTransform_Clear_m1652144089
GMc:__ZN5physx14NpRigidDynamic7releaseEv
Vre:_MonoIO_GetException_m2577367044
LBd:__ZN22BaseUnityConnectClient17InitializeSessionERKN4core12basic_stringIcNS0_20StringStorageDefaultIcEEEES6_N19CloudServiceHandler13InitModeFlagsE
EAe:_NumberFormatter_get_IsZero_m1325357749
j$c:__ZN5physx6shdfnd8PoolBaseINS_21PxsBodyTransformVault13PxsBody2WorldENS0_19ReflectionAllocatorIS3_EEE15disposeElementsEv
zge:_Enum_ToObject_m322320225
NTb:__ZN13MonoBehaviour34StopCoroutineFromEnumeratorManagedE18ScriptingObjectPtr
qJd:_X509Certificate__ctor_m3860837120
Rch:_Camera_RaycastTry2D_m755036866
U8b:__ZN5physx2Gu30computeCapsule_TriangleMeshMTDERKNS_22PxTriangleMeshGeometryERKNS_11PxTransformERNS0_8CapsuleVEffbRNS_10PxSweepHitE
ekb:__ZN30RuntimeInitializeOnLoadManager8TransferI18StreamedBinaryReadILb0EEEEvRT_
dlb:__ZN21ArchiveStorageCreator14StoreDirectoryEv
GQb:__ZL34GetComponentsImplementationRecurseILb1ELi0ELi2EEbR10GameObjectbRK17CompareParametersRK39GetComponentsImplementation_ReturnValue
w6h:__ZN6il2cpp6icalls8mscorlib6System9Threading5Mutex20CreateMutex_internalEbP12Il2CppStringPb
f$d:_ArrayListWrapper_Remove_m1105489978
uEa:__ZNK6Camera18WorldToScreenPointERK8Vector3fPb
$8c:__ZN5physx2Cm12DelegateTaskINS_10PxsContextEXadL_ZNS2_28mergeCMDiscreteUpdateResultsEPNS_10PxBaseTaskEEEE11runInternalEv
hXd:_Boolean_CompareTo_m3691698947_AdjustorThunk
Opd:__ZN5physx19TriangleMeshBuilder10importMeshERKNS_18PxTriangleMeshDescERKNS_15PxCookingParamsEb
R2d:_HashKeys_CopyTo_m3566668422
eZd:_Convert_ToSByte_m2665932200
fO:__ZNSt3__227__insertion_sort_incompleteIRPFbRKN18AwakeFromLoadQueue4ItemES4_EPS2_EEbT0_S9_T_
plf:_ILGenerator_label_fixup_m1325994348
Gai:_strrchr
HFc:__ZN5physx6shdfnd5ArrayINS_18PxClothFabricPhaseENS0_19ReflectionAllocatorIS2_EEE8recreateEj
S9a:__ZN26EnlightenSystemInformation8TransferI14SafeBinaryReadEEvRT_
uSf:_Array_InternalArray__get_Item_TisLink_t2723257478_m2281261655_gshared
iVc:__ZN5physx2Sq17SceneQueryManager11shiftOriginERKNS_6PxVec3E
Wfb:__ZN12MeshRendererD0Ev
Y6b:__ZN5physx2Gu16sweepBoxTriangleERKNS_10PxTriangleERKNS_9PxBounds3ERKNS_6PxVec3ES9_RS7_SA_Rf
U1d:_Hashtable__ctor_m2702360557
th:_utime
yqd:__ZN5physx10writeChunkEaaaaRNS_14PxOutputStreamE
Kzh:__ZN6il2cpp6icalls8mscorlib6System8MonoType18IsGenericParameterEPK10Il2CppType
BNh:__ZNSt3__26vectorIN6il2cpp2vm17TypeNameParseInfoENS_9allocatorIS3_EEE8allocateEj
DNe:_PrimalityTest_Invoke_m4058801829
Zaf:_RemotingConfiguration_SetCustomErrorsMode_m1844153208
kn:FUNCTION_TABLE_viiiiii
j8g:__Z84RuntimeInvoker_Int32_t2071877448_Il2CppObject_CustomAttributeNamedArgument_t94157543PK10MethodInfoPvPS2_
twc:__ZN5physx2Sc9RigidCore13onShapeChangeERNS0_9ShapeCoreENS_7PxFlagsINS0_21ShapeChangeNotifyFlag4EnumEjEENS4_INS_11PxShapeFlag4EnumEhEE
pSf:_Array_InternalArray__get_Item_TisChar_t3454481338_m3646615547_gshared
xlh:_ScriptableObject_CreateInstance_m3271154163
eKc:__ZN5physx6shdfnd5ArrayIPvNS0_15InlineAllocatorILj256ENS0_19ReflectionAllocatorINS_2Sc19ParticlePacketShapeEEEEEE15growAndPushBackERKS2_
y5c:__ZN5physx17solveContactBlockEPKNS_23PxcSolverConstraintDescEjRNS_16PxcSolverContextE
Hqd:__ZN5physx6shdfnd10FoundationD2Ev
RNf:_Array_InternalArray__IndexOf_TisResourceCacheItem_t333236149_m761772858_gshared
tbf:_TrackingServices__cctor_m3639412334
Xgf:_DESTransform_ECB_m2629024873
HKd:_StrongNamePublicKeyBlob_Equals_m2407250401
G$c:__ZN5physx2Sc10NPhaseCoreD2Ev
fkc:__ZN5physx2Sc7BodySim18onConstraintDetachEv
aMb:__ZZL23RegisterLightPropertiesR22GenericPropertyBindingEN20Wrapper_LightColorr013SetFloatValueEPvf
Xh:_emscripten_glGetTexParameteriv
dUc:__ZN5physx7NpScene8simulateEfPNS_10PxBaseTaskEPvjb
K1b:__ZN5physx2Gu13GeometryUnion3setERKNS_10PxGeometryE
kpe:_Int32_ToString_m1064459878_AdjustorThunk
$ud:__ZN5physx7profile12MemoryBufferINS0_21WrapperNamedAllocatorEE5writeIyEEvRKT_
iBg:_ChannelData_CopyFrom_m4049054607
WHb:__Z13RegisterClassI4MeshEvv
gNf:_Array_FindLastIndex_TisIl2CppObject_m869210470_gshared
Xt:__ZN12AudioManager8TransferI19StreamedBinaryWriteILb0EEEEvRT_
Zte:_WriteDelegate_Invoke_m2103848735
ayb:__ZN18StreamedBinaryReadILb1EE21TransferSTLStyleArrayI13dynamic_arrayI11ColorRGBA32Lj4EEEEvRT_17TransferMetaFlags
lkh:_Locale_GetText_m512920887
Pyb:__Z18Transfer_BlittableI18StreamedBinaryReadILb0EELb0E8Vector2fEvRK29SerializationCommandArgumentsR31RuntimeSerializationCommandInfo
htc:__ZN5physx18NpArticulationLink10clearForceENS_11PxForceMode4EnumE
Haf:_RemotingConfiguration_get_ProcessId_m3870172209
I3b:__ZN5physx2Gu30distanceSegmentTriangleSquaredERKNS_6PxVec3ES3_S3_S3_S3_PfS4_S4_
Ybi:__ZNSt3__212basic_stringIcNS_11char_traitsIcEENS_9allocatorIcEEE21__grow_by_and_replaceEjjjjjjPKc
$le:_SortKey_ToString_m2406913228
tH:__ZN22LocalFileSystemHandler9MakeLocalER13FileEntryDatab
g0h:__ZN6il2cpp2vm8Profiler10AllocationEP12Il2CppObjectP11Il2CppClass
w6d:_Convert_ToDateTime_m1020507389
Tre:_Path_IsPathRooted_m1347207448
Fcf:_ObjectManager_RegisterObjectInternal_m879109503
oba:__ZNSt3__26__sortIRNS_4lessIiEEPiEEvT0_S5_T_
qIb:__Z13RegisterClassI15QualitySettingsEvv
n$h:__ZN6il2cpp2vm6String21InitializeEmptyStringEP11Il2CppClass
KLa:__ZN25DeferredRenderLoopScratchD0Ev
PBb:__ZN15dense_hashtableINSt3__24pairIKiN4core17string_with_labelILi1EEEEEi18SInt32HashFunctionN14dense_hash_mapIiS5_S7_NS0_8equal_toIiEE13stl_allocatorIS6_L18MemLabelIdentifier1ELi16EEE9SelectKeyESA_SD_E9copy_fromERKSG_j
x_:__ZN6Camera11ResetAspectEv
jZf:_Type_get_IsGenericType_m3396841573
sDa:__ZNSt3__227__insertion_sort_incompleteIRPFbP10GUIElementS2_EPS2_EEbT0_S7_T_
O2e:_X509BasicConstraintsExtension_get_HasPathLengthConstraint_m3788532759
M4a:__ZNK17InstancedPropInfo22FillInstancePropertiesER19ShaderPropertySheetjPK17BatchInstanceDatajRK15RenderNodeQueue
X$:__ZN22CreateGpuProgramOutputD2Ev
Occ:__ZNK5physx3Cct15ObstacleContext14getNbObstaclesEv
ZQh:__ZN6il2cpp6icalls8mscorlib6System2IO6MonoIO9SetLengthE12Il2CppIntPtrxPi
s7h:__ZN6il2cpp8metadata22Il2CppSignatureCompare6EqualsERK13dynamic_arrayIPK10Il2CppTypeLj4EES8_
ynd:__ZN5physx6shdfnd8PoolBaseINS_11NpAggregateENS0_19ReflectionAllocatorIS2_EEE12allocateSlabEv
_Kc:__ZN5physx7NpScene26removeFromParticleBaseListERNS_14PxParticleBaseE
eje:_DateTimeFormatInfo_GetInstance_m3133223810
XMe:_ModulusRing_BarrettReduction_m2802101099
pGc:__ZN5physx2Sc9ClothCore23setSelfCollisionIndicesEPKjj
dva:__ZN12HandlerChain4OpenER13FileEntryData14FilePermission16FileAutoBehavior
LEh:__ZN15dense_hashtableINSt3__24pairIK10KeyWrapperINS1_IPK10MethodInfoP11Il2CppClassEEEjEES9_17ReflectionMapHashIS8_EN14dense_hash_mapIS9_jSD_NS9_14EqualsComparerINS0_8equal_toIS8_EEEENS0_9allocatorISB_EEE9SelectKeyESI_SK_E6insertERKSB_
TQ:__ZN14FileCacherReadD2Ev
taa:__ZN13RendererScene23UpdatePreviousFrameDataEii
kHd:_RSAPKCS1SignatureDeformatter_VerifySignature_m1825067195
RSb:__Z50Register_UnityEngine_CullingGroup_FinalizerFailurev
AGg:_KeyValuePair_2_ToString_m2613351884_gshared
Y2a:__ZN6Camera15ThreadedCleanupEv
YLg:_Collection_1_System_Collections_IList_IndexOf_m1667133881_gshared
VQh:__ZN6il2cpp6icalls8mscorlib6System2IO6MonoIO9GetLengthE12Il2CppIntPtrPi
y2c:__ZN5physx10PxsCCDPair12updateShapesEv
PHd:_SHA256Managed_HashCore_m4111458495
Lie:_CultureInfo_get_CompareInfo_m3085280862
Rzg:_DllImportAttribute__ctor_m1165454237
Gdf:_ObjectManager_RecordDelayedFixup_m1895730844
FUd:_ArrayTypeMismatchException__ctor_m1898555879
Xr:__ZN9AudioClip23VirtualRedirectTransferER18StreamedBinaryReadILb0EE
mTe:_ClientSessionInfo_CheckDisposed_m1394638186
Iff:_SByte_Parse_m2544167007
pZa:__ZN24GenerateTypeTreeTransfer8TransferIN11AssetBundle9AssetInfoEEEvRT_PKc17TransferMetaFlags
PGc:__ZN5physx2Sc9ClothCore22removeCollisionCapsuleEj
BDe:_BigInteger__ctor_m2945783161
YUe:_TlsClientHello_Update_m1723542631
ene:_IndexOutOfRangeException__ctor_m3497760912
nlc:__ZN5physx16PxsIslandManager25setArticulationLinkHandleEjPvRKNS_20PxsIslandManagerHookIjLj4294967295EEE
uj:_glCopyTexSubImage2D
zaf:_RealProxy_InternalGetTransparentProxy_m3415358600
mLb:__ZNK24RendererAnimationBinding13GetFloatValueERKN11UnityEngine9Animation10BoundCurveE
jgc:__ZN5physx2Sc10NPhaseCore39pool_deleteParticleElementRbElementPairEPNS0_35ParticleElementRbElementInteractionEjj
omi:_glActiveTexture__wrapper
ELg:_Collection_1_Insert_m3594407958_gshared
cAa:_UNITY_png_write_zTXt
oG:__ZN18ScreenManagerWebGL13SetShowCursorEb
j0h:__ZN6il2cpp6icalls8mscorlib6System7Convert24InternalFromBase64StringEP12Il2CppStringb
zxa:__ZZ23InitPlayerLoopCallbacksvEN37EarlyUpdateProcessMouseInWindowstruct7ForwardEv
v9h:_frexp
cvc:__ZN5physx6shdfnd5ArrayIPNS_3Scb5ShapeENS0_15InlineAllocatorILj16ENS0_19ReflectionAllocatorIS4_EEEEE15growAndPushBackERKS4_
$ob:__Z18Transfer_BlittableI14SafeBinaryReadLb0E5RectTIfEEvRK29SerializationCommandArgumentsR31RuntimeSerializationCommandInfo
Yga:__ZN9GfxDevice18InsertCustomMarkerEi
p9h:_fmt_u
kje:_DateTimeFormatInfo_GetFormat_m3676195179
eka:__ZN14GfxContextGLES14GetFramebufferEv
Tji:_emscripten_glGenVertexArrays__wrapper
j3:__ZN6prcoreL21CreateRemapAnyBlitterE13TextureFormatS0_
uPb:__ZN17AnimationCurveTplIfE16StripInvalidKeysEv
sOf:_Array_InternalArray__ICollection_Add_TisKeyValuePair_2_t3716250094_m2381539361_gshared
MKe:_X509Extension_WriteLine_m2850991173
rCh:_il2cpp_method_has_attribute
HNb:__Z13RegisterClassI17GlobalGameManagerEvv
DLf:_Array_InternalArray__ICollection_Remove_TisInt64_t909078037_m2653583130_gshared
HUf:_Thread_get_ExecutionContext_m922067206
Vdd:__ZN5physx2Sc8ClothSim16addCollisionMeshEPKNS0_8ShapeSimE
dn:FUNCTION_TABLE_iiiiiiiiiiiiii
Yid:__ZN5physx6shdfnd5ArrayIPKNS_10PxsCCDBodyENS0_19ReflectionAllocatorIS4_EEE8recreateEj
Yuc:__ZN5physx6shdfnd4sortINS_2Cm19PreallocatingRegionENS0_4LessIS3_EENS0_19ReflectionAllocatorIS3_EEEEvPT_jRKT0_RKT1_j
_5a:__ZN11Tetrahedron8TransferI24GenerateTypeTreeTransferEEvRT_
GRa:__ZN16ReflectionProbes8ScheduleEN18ReflectionProbeJob7JobTypeEP15ReflectionProbei
MR:__ZN16MessageForwarder13HandleMessageEPviR11MessageData
JH:__Z18IsDirectoryCreatedRKN4core12basic_stringIcNS_20StringStorageDefaultIcEEEE
Z1e:_X509KeyUsageExtension_ToString_m1992050580
mLc:__ZNK5physx16PxParticleSystem19getConcreteTypeNameEv
TAg:_ConstructionCall__ctor_m1143766850
Rcf:_ObjectReader_ReadArrayOfString_m3752210963
f6c:__ZN5physx18ComputeSortedListsEPNS_2Cm10BitMapBaseINS_6shdfnd9AllocatorEEEjjPKjPPNS_8SapBox1DES7_PjSB_jRKNS_2Gu4AxesESB_RjSB_SG_RbSH_
Wjh:_Rect_Equals_m3806390726
Ich:_Camera_INTERNAL_CALL_ScreenPointToRay_m2752248646
S3g:__Z77RuntimeInvoker_TimeSpan_t3430258949_TimeSpan_t3430258949_TimeSpan_t3430258949PK10MethodInfoPvPS2_
Nte:_FileStream_Seek_m950719389
H6d:_Decimal_stripStyles_m294582157
AUf:_UTF8Decoder_GetChars_m3819660582
Oda:__ZN9GfxDevice20SetMaxBufferedFramesEi
hei:dynCall_vdd
hVa:__Z23ConvertIntegerToTypePtrIsEbPvR14SafeBinaryRead
lqc:__ZNK5physx14NpArticulation17releaseDriveCacheERNS_24PxArticulationDriveCacheE
B$d:_FixedSizeArrayListWrapper_Remove_m1359458911
r3:__ZN6prcoreL29inner_stretch_rgb565_bilinearEPKNS_9InnerInfoE
qGc:__ZNK5physx2Sc9ClothCore25getSelfCollisionStiffnessEv
SKa:__ZNK14RenderSettings19GetFlatAmbientColorEv
CRa:__ZN6prcoreL10inner_flipILj4EEEvPhS1_j
Phb:__ZN18StreamedBinaryReadILb0EE21TransferSTLStyleArrayI10vector_mapIPKN5Unity4TypeE7Hash128NSt3__24lessIS6_EENS8_9allocatorINS8_4pairIS6_S7_EEEEEEEvRT_17TransferMetaFlags
mPd:_String_Concat_m56707527
Adb:__ZN14Texture2DArray17UploadToGfxDeviceEv
Iv:__Z14FMODMemoryFreePvjPKc
a$a:__ZN15dense_hashtableINSt3__24pairIKN4core12basic_stringIcNS2_20StringStorageDefaultIcEEEES6_EES6_20StringHash32FunctionIS6_EN14dense_hash_mapIS6_S6_SA_NS0_8equal_toIS6_EE13stl_allocatorIS8_L18MemLabelIdentifier54ELi16EEE9SelectKeyESD_SG_EC2ERKSJ_j
aYc:__ZN5physx3Scb4Body9syncStateEv
ube:_DateTimeOffset__ctor_m1796624924
vuc:__ZN5physx12PxsRigidBody23updatePoseDependenciesVERNS_10PxsContextE
tLf:_Array_InternalArray__ICollection_Remove_TisKeyValuePair_2_t3716250094_m2566517826_gshared
Cmd:__ZN5physx2Gu12TriangleMesh4loadERNS_13PxInputStreamE
K3h:_GC_is_heap_ptr
EOh:__GLOBAL__sub_I_Assembly_cpp
N5:__Z21PlayerStartFirstSceneb
$l:_emscripten_glIsTexture
i$d:_ArrayListWrapper_CopyTo_m793444109
Gk:_emscripten_glHint
Nae:_DateTime_AddMilliseconds_m1813199744_AdjustorThunk
npf:_TypeBuilder_IsValueTypeImpl_m1499671481
l5e:_X509ChainStatus_t4278378721_marshal_pinvoke
QPe:_RSAManaged__ctor_m1680944437
cm:_SDL_UpperBlit
xLa:__Z35GetTextureDecodeValuesWithIntensity16TextureUsageMode17TextureColorSpace10ColorSpacef
qYd:_Byte_GetHashCode_m2885528842_AdjustorThunk
eCc:__ZNK5physx7NpShape16getContactOffsetEv
a8c:__ZN5physx14PxsAABBManager21processAggregatePairsEPKNS_19AggregateSortedDataE
$wd:_PxCreateCooking
Umb:__ZN14SafeBinaryRead20OverrideRootTypeNameEPKc
XQ:__ZN14FileCacherRead16UnlockCacheBlockEj
k0f:_UIntPtr_get_Size_m537421489
QJe:_X509Certificate_GetUnsignedBigInteger_m3491353542
_Na:__ZN6Camera6RenderER11CullResultsR17ShaderPassContextPK21CameraRenderingParamsNS_10RenderFlagE
Cc:_emscripten_glUniform1f
Hc:_emscripten_glUniform1i
Lmb:__ZN13MonoBehaviour9CallAwakeEv
Ghd:__ZN5physx2Sc19ShapeInstancePairLL23postIslandGenSecondPassEv
ccc:__ZN5physx3Cct26CharacterControllerManager16createControllerERKNS_16PxControllerDescE
jDb:__ZN9ShaderLab16SerializedTagMapaSERKS0_
tZg:__Z75RuntimeInvoker_Void_t1841601450_Il2CppObject_Int32_t2071877448_Il2CppObjectPK10MethodInfoPvPS2_
oB:__ZN11UnityEngine15CloudWebService16SessionContainer20RestoreSessionHeaderERKN4core12basic_stringIcNS2_20StringStorageDefaultIcEEEES8_RNS0_13SessionHeaderE
p1c:__ZN5physx2Sq16BucketPrunerCore12updateObjectERKNS_9PxBounds3ERKNS0_13PrunerPayloadE
unf:_GenericTypeParameterBuilder_GetGenericArguments_m277381309
Djb:__ZN14SafeBinaryRead21TransferSTLStyleArrayINSt3__26vectorIN30RuntimeInitializeOnLoadManager9ClassInfoE13stl_allocatorIS4_L18MemLabelIdentifier12ELi16EEEEEEvRT_17TransferMetaFlags
v$f:_UInt64_System_IConvertible_ToDateTime_m2412118561
qP:__ZN14MessageHandler3GetEv
Vc:_emscripten_glAttachShader
Nda:__ZN9GfxDevice13SetActiveTierE12GraphicsTier
wgb:__ZNSt3__26vectorIN4core12basic_stringIcNS1_20StringStorageDefaultIcEEEENS_9allocatorIS5_EEE6assignIPS5_EENS_9enable_ifIXaasr21__is_forward_iteratorIT_EE5valuesr16is_constructibleIS5_NS_15iterator_traitsISC_E9referenceEEE5valueEvE4typeESC_SC_
GGe:_KeyPairPersistence_get_UserPath_m3433052783
tac:__ZN5physx2Gu19GetRaycastFuncTableEv
V2f:__ZL58Decimal_t724701077_CustomAttributesCacheGenerator_MinusOneP21CustomAttributesCache
Nob:__Z18Transfer_BlittableI14SafeBinaryReadLb0E11QuaternionfEvRK29SerializationCommandArgumentsR31RuntimeSerializationCommandInfo
EE:__ZNK13EmscriptenWWW6GetUrlEv
yhd:__ZN5physx17EdgeChangeManager23cleanupBrokenEdgeEventsEPKNS_4EdgeE
mzb:__Z18Transfer_BlittableI18StreamedBinaryReadILb0EELb1E12PropertyNameEvRK29SerializationCommandArgumentsR31RuntimeSerializationCommandInfo
BF:_tlsf_walk_heap
oJe:_PKCS12_Decode_m731190390
tzh:__ZN6il2cpp2vm7Runtime6InvokeEPK10MethodInfoPvPS5_PP15Il2CppException
GBf:_InternalEnumerator_1_get_Current_m1550231132_gshared
eb:invoke_vif
fb:invoke_vid
gci:__ZNSt3__212basic_stringIcNS_11char_traitsIcEENS_9allocatorIcEEE6insertEjPKc
gb:invoke_vii
sWc:__ZN5physx13NpVolumeCacheD2Ev
fXa:__ZN12TLSAllocatorI14StackAllocatorE16ThreadInitializeEP13BaseAllocator
H_d:_ArrayList_Sort_m2778059513
ted:__ZThn8_N5physx2Sc35ParticleElementRbElementInteraction12onDeactivateEj
HOe:_MD2_Create_m539024737
k4c:__ZN5physx16PxsThreadContextC2EPNS_10PxsContextE
Sua:__ZN25SingleBlockMemoryFileDataD0Ev
hZa:__ZNSt3__26vectorI14ConstantStringNS_9allocatorIS1_EEE6assignINS_11__wrap_iterIPS1_EEEENS_9enable_ifIXaasr21__is_forward_iteratorIT_EE5valuesr16is_constructibleIS1_NS_15iterator_traitsISA_E9referenceEEE5valueEvE4typeESA_SA_
M0b:__ZN5physx3Cct10Controller4moveERNS0_11SweptVolumeERKNS_6PxVec3EffRKNS_19PxControllerFiltersEPKNS_17PxObstacleContextEb
jB:__ZN11UnityEngine15CloudWebService16SessionContainer21ConvertFromFolderTimeERKN4core12basic_stringIcNS2_20StringStorageDefaultIcEEEEPjPt
LNc:__ZN5physx14NpRigidDynamic17setAngularDampingEf
aqb:__ZNSt3__26vectorI8GUIStyle13stl_allocatorIS1_L18MemLabelIdentifier1ELi16EEE7reserveEj
AOh:__ZN6il2cpp6icalls8mscorlib6System9Threading6Thread27GetSerializedCurrentCultureEP12Il2CppThread
_Nf:_Array_InternalArray__IndexOf_TisUInt32_t2149682021_m3231515987_gshared
iJb:__Z31CalculateHierarchyTransformType23TransformAccessReadOnly
wsh:__ZN15dense_hashtableINSt3__24pairIK10KeyWrapperI13dynamic_arrayIPK10Il2CppTypeLj4EEEPFvvEEES8_N6il2cpp8metadata19Il2CppSignatureHashEN14dense_hash_mapIS8_SB_SF_NS8_14EqualsComparerINSE_22Il2CppSignatureCompareEEENS0_9allocatorISC_EEE9SelectKeyESJ_SL_E12resize_deltaEjj
jIb:__Z13RegisterClassI11TimeManagerEvv
yv:__ZN4FMOD8ChannelI11setPositionEjj
$dh:_Component_SendMessage_m913946877
F1h:_GC_set_fl_marks
Vmc:__ZN5physx6shdfnd8PoolBaseINS_2Sc12SimStateDataENS0_19ReflectionAllocatorIS3_EEE17releaseEmptySlabsEv
mV:__ZN17BaseObjectManager13StaticDestroyEPv
Xbe:_DBNull_System_IConvertible_ToChar_m3344298044
B4b:__ZN5physx2Gu22closestPtPointTriangleEPNS_6shdfnd3aos5Vec3VES4_S4_Rj
BKe:_X509Certificate_GetObjectData_m3888130484
fjb:__ZNSt3__26vectorIN15ResourceManager10DependencyE13stl_allocatorIS2_L18MemLabelIdentifier51ELi16EEEC2INS_11__wrap_iterIPS2_EEEET_SB_RKS5_PNS_9enable_ifIXaasr21__is_forward_iteratorISB_EE5valuesr16is_constructibleIS2_NS_15iterator_traitsISB_E9referenceEEE5valueEvE4typeE
Qwc:__ZN5physx2Cm8PtrTableC2Ev
o8e:_LinkStack_Push_m2660199875
su:__ZN4FMOD6Reverb13setPropertiesEPK22FMOD_REVERB_PROPERTIES
QFa:__ZN9DepthPass13PrepareSubsetEjRK10RenderNodeifRK17ShaderReplaceData
u7c:__ZN5physx16PxsBroadPhaseMBP6updateEjjRKNS_23PxcBroadPhaseUpdateDataEPNS_10PxBaseTaskE
FAc:__ZN5physx9NpPhysics18createRigidDynamicERKNS_11PxTransformE
Khc:__ZN5physx6shdfnd5ArrayIPvNS0_19ReflectionAllocatorINS_2Sc18TriggerInteractionEEEE15growAndPushBackERKS2_
sRg:_X509CertificateCollection_Add_m4008705157
DPb:__Z18ExtractTagThrowingR11ICallString
Gxa:__ZZ23InitPlayerLoopCallbacksvEN40EarlyUpdatePlayerCleanupCachedDatastruct7ForwardEv
V7b:__ZN5physx2Gu17intersectRayAABB2ERKNS_6shdfnd3aos5Vec3VES5_S5_S5_RKNS2_6FloatVERS6_S9_
Vp:__ZN4core20StringStorageDefaultIcE6assignEPKcj
NBc:__ZNK5physx7NpShape17getSphereGeometryERNS_16PxSphereGeometryE
X9b:__ZL18intersectAnyVsMeshILi1EEbPKN5physx2Gu6SphereEPKNS1_7CapsuleEPKNS1_3BoxERKNS1_13RTreeMidphaseERKNS0_11PxTransformERKNS0_11PxMeshScaleEP14LimitedResults
MWh:__ZN15dense_hashtableINSt3__24pairIK10KeyWrapperIP12Il2CppObjectEN6il2cpp2gc9CachedCCWEEES5_NS7_5utils11PointerHashIS3_EEN14dense_hash_mapIS5_S9_SD_NS5_14EqualsComparerINS0_8equal_toIS4_EEEENS0_9allocatorISA_EEE9SelectKeyESI_SK_E3endEv
Gjb:__Z14resize_trimmedINSt3__26vectorIi13stl_allocatorIiL18MemLabelIdentifier12ELi16EEEEEvRT_j
TJh:__ZN15dense_hashtableINSt3__24pairIK10KeyWrapperINS1_IP11Il2CppClassjEEES4_EES6_N6il2cpp8metadata14ArrayClassHashEN14dense_hash_mapIS6_S4_SB_NS6_14EqualsComparerINSA_17ArrayClassCompareEEENS0_9allocatorIS8_EEE9SelectKeyESF_SH_E9copy_fromERKSK_j
blc:__ZN5physx6shdfnd5ArrayIPvNS0_15InlineAllocatorILj256ENS0_19ReflectionAllocatorINS_2Cm5BlockIhLj128EEEEEEEE15growAndPushBackERKS2_
G$d:_ReadOnlyArrayListWrapper_set_Item_m2199017141
pPa:__ZN6Camera6SetFarEf
nRg:_DeriveBytes_DeriveIV_m3343375195
IJd:_X509Certificate_ToString_m1582581274
mGd:_RNGCryptoServiceProvider_GetBytes_m167497991
Y3:__ZN6prcoreL12RemapGenericI17TexFormatABGR888817TexFormatARGB8888EEvPKNS_9InnerInfoE
X0a:__ZN11GameManager17MainThreadCleanupEv
tAh:__ZN6il2cpp6icalls8mscorlib6System18CollectTypeMethodsINS_5utils10functional6FilterINSt3__212basic_stringIcNS7_11char_traitsIcEENS7_9allocatorIcEEEENS4_11StringUtils23CaseInsensitiveComparerEEEEEvP11Il2CppClassPKSH_jRKT_RNS7_6vectorIPK10MethodInfoNSB_ISR_EEEERA65535_b
vlf:_TypeBuilder_get_Assembly_m492491492
pEc:__ZNK5physx7NpCloth24getParticleAccelerationsEPNS_6PxVec4E
ZDd:_HMACSHA512__cctor_m1167457383
AAb:__Z25scripting_array_class_get17ScriptingClassPtrj
pXb:__ZL22Transfer_ManagedObjectI9JSONWriteLb1EEvRK29SerializationCommandArgumentsR31RuntimeSerializationCommandInfo
hfa:__ZN9GfxDevice20DestroyRenderSurfaceER12ObjectHandleI17RenderSurface_TagP17RenderSurfaceBaseE
Gsa:__ZN9GfxDevice22UpdateComputeResourcesEjPK9TextureIDPK16TextureDimensionPKijPKjjPK15ComputeBufferIDS7_PK20ComputeBufferCounterjSC_S2_S5_S9_SF_
gXa:__ZN12TLSAllocatorI14StackAllocatorE13ThreadCleanupEv
H$h:__ZThn4_N6il2cpp2vm13ComObjectBase16MarshalInterfaceEP13Il2CppIStreamRK10Il2CppGuidPvjS7_j
veb:__ZN4Mesh27SwizzleVertexColorsIfNeededEb
OXa:__Z27FindActiveTransformWithPathPKc
eSc:__ZN5physx16PxsIslandManager14setEdgeRigidCMERKNS_20PxsIslandManagerHookIjLj4294967295EEEPNS_17PxsContactManagerE
VY:__ZN7Texture5ResetEv
M3g:__Z56RuntimeInvoker_TimeSpan_t3430258949_TimeSpan_t3430258949PK10MethodInfoPvPS2_
iza:_UNITY_png_write_info
Vld:__ZN5physx2Gu11HeightField7releaseEv
UHa:__ZNK6Camera7GetNearEv
Oja:__ZN7ApiGLES11UnmapBufferEjN2gl12BufferTargetE
BXh:__ZN6il2cpp5utilsL24Utf32CharToSurrogatePairEjRA2_Ds
K8a:__Z25GetNextAllowedTextureSizeib13TextureFormat
qH:__ZN20LocalFileSystemWebGL4CopyER13FileEntryDataS1_
jD:__ZN19CloudServiceHandler6RetainEv
wLd:_StrongName_Equals_m67226644
h2a:__ZN12BaseRenderer20FlattenToRenderQueueER15RenderNodeQueueRK20DeprecatedSourceData
Wdd:__ZN5physx2Sc8ClothSim23addCollisionHeightfieldEPKNS0_8ShapeSimE
xxe:_UnmanagedMemoryStream_get_Length_m587008850
D6:__Z34scripting_liveness_calculation_endPv
VZh:__ZN6il2cpp2os6ThreadC2Ev
nMd:_SecurityFrame_InitFromRuntimeFrame_m45195821
a4e:_X509Chain_IsSignedWith_m292245392
yLf:_Array_InternalArray__ICollection_Remove_TisDateTime_t693205669_m1275668216_gshared
JYb:__Z18Transfer_BlittableI8JSONReadLb0E8Vector3fEvRK29SerializationCommandArgumentsR31RuntimeSerializationCommandInfo
mBg:_ChannelServices__cctor_m3534779830
nMh:__ZN6il2cpp2vm6Thread6DetachEP12Il2CppThread
z7d:_Convert_ToInt16_m416789348
wLg:_Collection_1_System_Collections_IList_set_Item_m3488446830_gshared
vYh:__ZN6il2cpp2os10ThreadImpl5SleepEjb
I6c:__ZN5physx14SapPairManager12shrinkMemoryEv
Wkb:__ZN15FileSystemEntry4MoveERS_23FileSystemCopyMoveFlags
sji:_glBindSampler__wrapper
yPg:_UnityAction_1_Invoke_m3523417209_gshared
Cf:_emscripten_set_mouseup_callback
yBb:__Z14resize_trimmedINSt3__26vectorIN9ShaderLab14SerializedPassENS0_9allocatorIS3_EEEEEvRT_j
SUc:__ZN5physx7NpScene22removeBroadPhaseRegionEj
bic:__ZL34GeomOverlapCallback_CapsuleCapsuleRKN5physx10PxGeometryERKNS_11PxTransformES2_S5_PNS_2Gu12TriggerCacheE
zG:__ZNK18ScreenManagerWebGL8GetWidthEv
_Tc:__ZNK5physx7NpScene23getFilterShaderDataSizeEv
Cr:__ZN10SampleClipD2Ev
TDg:_SynchronizationAttribute_EnterContext_m2984912761
Xie:_CultureInfo_construct_internal_locale_from_name_m971766383
oge:_Enum_ToObject_m2460371738
yEe:_PrimalityTests_Test_m1088386156
Jai:_readlink
vvg:_ExpressionAssertion__ctor_m2408911632
Xxf:_InternalEnumerator_1_System_Collections_IEnumerator_get_Current_m4259662004_AdjustorThunk
YSf:_Array_InternalArray__get_Item_TisKeyframe_t1449471340_m1003508933_gshared
iJe:_StrongName_get_PublicKeyToken_m1968460885
uBa:__ZNK19RenderEventsContext21CleanupCommandBuffersEv
V6g:__Z87RuntimeInvoker_Boolean_t3825574718_Ray_t2469606224_Single_t2076509932_Int32_t2071877448PK10MethodInfoPvPS2_
oia:__ZN11ContextGLES6CreateEi
v9b:__ZN5physx6shdfnd5ArrayINS_10PxTriangleENS0_19ReflectionAllocatorIS2_EEE15growAndPushBackERKS2_
bre:_BinaryReader_Dispose_m4249456877
Esh:__ZN15dense_hashtableINSt3__24pairIK10KeyWrapperI13dynamic_arrayIPK10Il2CppTypeLj4EEEPFvvEEES8_N6il2cpp8metadata19Il2CppSignatureHashEN14dense_hash_mapIS8_SB_SF_NS8_14EqualsComparerINSE_22Il2CppSignatureCompareEEENS0_9allocatorISC_EEE9SelectKeyESJ_SL_E12maybe_shrinkEv
E6d:_Double_ToString_m1085043609
_zb:__Z19TransferField_ArrayI18StreamedBinaryReadILb0EE27Converter_SimpleNativeClassI17AnimationCurveTplIfEEEvRK23StaticTransferFieldInfoR31RuntimeSerializationCommandInfoRT0_
jRe:_CipherSuite_createEncryptionCipher_m1926075645
TWa:__ZN14StackAllocator16FrameMaintenanceEb
N4b:__ZL11SweepBoxBoxPKN5physx3Cct9SweepTestEPKNS0_11SweptVolumeEPKNS0_11TouchedGeomERKNS_14PxExtendedVec3ERKNS_6PxVec3ERNS0_12SweptContactE
C_a:__Z18ReadStringFromFilePN4core17string_with_labelILi1EEERKNS_12basic_stringIcNS_20StringStorageDefaultIcEEEE
BM:__ZNK10GameObject20QueryComponentByTypeEPKN5Unity4TypeE
Jof:_OpCode_GetHashCode_m2974727122
kRe:_CipherSuite_createDecryptionCipher_m1118350455
aug:_PatternCompiler_EmitReference_m1381860071
efe:_Double_System_IConvertible_ToInt16_m4200640326
DK:__ZL30InitializeCoreScriptingClassesv
xg:_glBlitFramebuffer
XZc:__ZNK5physx2Sc5Scene17prefetchForRemoveERKNS0_10StaticCoreE
GEe:_BigInteger_GeneratePseudoPrime_m2606361440
Arb:__Z35Transfer_Blittable_SingleValueFieldI14SafeBinaryReadhEvRT_R17GeneralMonoObjectRK23StaticTransferFieldInfo
YCd:__ZN22BaseUnityConnectClientC2ERN11UnityEngine7Connect20BasePersistentValuesE
WZg:__Z129RuntimeInvoker_Int32_t2071877448_Il2CppObject_Int32_t2071877448_Int32_t2071877448_Il2CppObject_Int32_t2071877448_SByte_t454417549PK10MethodInfoPvPS2_
U8e:_RemotingServices_GetRealProxy_m620317996
qGa:__ZN13dynamic_arrayI11CulledLightLj4EE6insertEPS0_PKS0_S4_
Prh:__ZNK15dense_hashtableI10KeyWrapperIPK19Il2CppGenericMethodES4_N6il2cpp8metadata23Il2CppGenericMethodHashEN14dense_hash_setIS4_S7_NS4_14EqualsComparerINS6_26Il2CppGenericMethodCompareEEENSt3__29allocatorIS4_EEE8IdentityESB_SE_E3endEv
e6a:__ZN11Tetrahedron8TransferI18StreamedBinaryReadILb0EEEEvRT_
zn:FUNCTION_TABLE_vif
An:FUNCTION_TABLE_vid
Bn:FUNCTION_TABLE_vii
P6:__Z40scripting_liveness_calculation_from_root18ScriptingObjectPtrPv
$ya:_UNITY_png_create_write_struct
UYg:__Z149RuntimeInvoker_Boolean_t3825574718_Int32_t2071877448_Il2CppObject_Int32_t2071877448_Int32_t2071877448_Il2CppObject_Int32_t2071877448_SByte_t454417549PK10MethodInfoPvPS2_
d$:__ZN7Texture23VirtualRedirectTransferER24GenerateTypeTreeTransfer
DTh:__ZN6il2cpp8metadata15GenericMetadata20RegisterGenericClassEP18Il2CppGenericClass
Zii:_glDeleteFramebuffers__wrapper
KMe:_BigInteger_ModInverse_m1881894572
rzh:__ZN6il2cpp2vm7Runtime17GetDelegateInvokeEP11Il2CppClass
U9a:__ZN28EnlightenRendererInformation8TransferI14SafeBinaryReadEEvRT_
pag:__ZL69DefaultDependencyAttribute_t3858269114_CustomAttributesCacheGeneratorP21CustomAttributesCache
uxc:__ZN5physx12NpBatchQuery13getUserMemoryEv
yta:__ZNK15Lz4Decompressor16DecompressMemoryEPKvPjPvS2_
Fjh:_Ray_ToString_m2019179238
d2:__Z35UnityPropertySheet_MakeSortedColorsRKNSt3__23mapIN9ShaderLab16FastPropertyNameE10ColorRGBAfNS_4lessIS2_EENS_9allocatorINS_4pairIKS2_S3_EEEEEER10vector_mapIS2_S3_S5_NS6_INS7_IS2_S3_EEEEE
wce:_Decimal_System_IConvertible_ToType_m3828527724_AdjustorThunk
Pbd:__ZN5physx2GuL34fullContactsGenerationSphereConvexERKNS0_8CapsuleVERKNS0_11ConvexHullVERKNS_6shdfnd3aos12PsTransformVESB_PNS0_17PersistentContactERjRNS0_13ContactBufferEbRNS0_25PersistentContactManifoldERNS8_5Vec3VERKNS8_6FloatVEb
zOe:_HMAC_get_Key_m2528863640
Rkc:__ZN5physx6shdfnd8PoolBaseINS_2Sc19ConstraintGroupNodeENS0_19ReflectionAllocatorIS3_EEE17releaseEmptySlabsEv
brb:__Z29Transfer_Blittable_ArrayFieldI14SafeBinaryRead8Vector4fEvRT_R9ArrayInfoRK23StaticTransferFieldInfo
XBg:_ConfigHandler_CheckPath_m2296459741
Lgi:_glClientWaitSync__wrapper
Ice:_Decimal_System_IConvertible_ToInt16_m3159038792
kjc:__ZN5physx3Scb5Scene20addArticulationJointERNS0_17ArticulationJointE
Zcc:__ZN5physx3Cct9SweepTest15onObstacleAddedEjPKNS_17PxObstacleContextERKNS_6PxVec3ES7_f
Wrf:_MonoMethodInfo_GetReturnType_m2864247130
dMa:__ZN13RenderManager29SetCurrentCameraAndStackStateEP6CameraP25CameraStackRenderingState
gLh:__ZN15dense_hashtableINSt3__24pairIK10KeyWrapperINS1_IP11Il2CppClassjEEES4_EES6_N6il2cpp8metadata14ArrayClassHashEN14dense_hash_mapIS6_S4_SB_NS6_14EqualsComparerINSA_17ArrayClassCompareEEENS0_9allocatorIS8_EEE9SelectKeyESF_SH_E12resize_deltaEjj
Mh:_JS_WebRequest_Release
ose:_DirectoryNotFoundException__ctor_m2242202556
ljh:_Physics_Raycast_m2308457076
JB:__ZN11UnityEngine15CloudWebService14DataErrorEventD0Ev
XPd:_String_CreateString_m2448464375
F5e:_X509SubjectKeyIdentifierExtension__ctor_m2959112706
Lpf:_FieldInfo_get_IsNotSerialized_m2322769148
BUc:__ZNK5physx7NpScene18getStaticStructureEv
n2c:__ZN5physx13PxsCCDContext12postCCDSweepEPNS_10PxBaseTaskE
zTh:__ZN6il2cpp8metadata15GenericMetadata7InflateEPK19Il2CppGenericMethodPK20Il2CppGenericContext
hCa:__ZN19ShaderPropertySheet16SetArrayPropertyEN9ShaderLab16FastPropertyNameENS_12PropertyTypeEPKvj
Prf:_MonoGenericCMethod_get_ReflectedType_m2689239043
Pqd:__ZN5physx6shdfnd10Foundation19AlignCheckAllocator28deregisterAllocationListenerERNS_20PxAllocationListenerE
KAf:_InternalEnumerator_1_get_Current_m4083613828_gshared
RSd:_UnicodeEncoding_GetString_m542738941
Pre:_Path_InsecureGetFullPath_m2635272425
B4c:__ZN5physx33solveContactCoulombBlockWriteBackEPKNS_23PxcSolverConstraintDescEjRNS_16PxcSolverContextEPNS_25PxcThresholdStreamElementEjPi
Eef:_RuntimeMethodHandle__ctor_m1162528746
ocd:__ZN5physx9PxTaskMgr17submitUnnamedTaskERNS_6PxTaskENS_10PxTaskType4EnumE
$ka:__ZN7Texture21GetMasterTextureLimitEv
FQa:__Z12CanAddScriptR10GameObject17ScriptingClassPtrPS1_S2_
CJh:__ZN6il2cpp2vm10Reflection12HasAttributeEP12Il2CppObjectP11Il2CppClass
xAa:_UNITY_png_write_sRGB
O_b:__ZN8JSONRead21TransferSTLStyleArrayI13dynamic_arrayI4AABBLj4EEEEvRT_18MemLabelIdentifier17TransferMetaFlags
LM:__ZN9ShaderLabL25StaticInitializeShaderLabEPv
kIf:_Dictionary_2_ContainsKeyValuePair_m3818021458_gshared
g0c:__ZNK5physx2Sq12BucketPruner5sweepERKNS0_9ShapeDataERKNS_6PxVec3ERfRNS0_14PrunerCallbackE
U:Math_max
zBh:_il2cpp_class_get_methods
Sre:_Path_CanonicalizePath_m383914732
M_d:_ArrayList_Synchronized_m2395071980
$Zh:__ZN6il2cpp2os6Thread16GetCurrentThreadEv
KNb:__ZN10GameObject13ComponentPair15SetComponentPtrEPN5Unity9ComponentE
dxd:__ZN5physx6shdfnd8internal8HashBaseINS0_4PairIKPKNS0_14NamedAllocatorEPKcEES6_NS0_4HashIS6_EENS1_11HashMapBaseIS6_S9_SC_NS0_20NonTrackingAllocatorEE6GetKeyESE_Lb1EE15reserveInternalEj
rxe:_UnexceptionalStreamWriter_Write_m3206913035
XHb:__Z13RegisterClassI10MeshFilterEvv
V1a:__ZN10TagManager8TransferI19StreamedBinaryWriteILb0EEEEvRT_
Wnb:__ZN11PreloadData23VirtualRedirectTransferER18StreamedBinaryReadILb0EE
Wgf:_DESTransform_ProcessBlock_m2826669227
A5g:__Z115RuntimeInvoker_Void_t1841601450_Il2CppObject_Int32_t2071877448_Int32_t2071877448_SByte_t454417549_Int32_t2071877448PK10MethodInfoPvPS2_
Lne:_Int16_CompareTo_m3493496879
qcb:__ZN6Sprite17MainThreadCleanupEv
Qw:__ZN10AudioMixer14UpdateMuteSoloEv
Ndh:_Component_GetComponents_m637589504
Zzc:__ZN5physx6shdfnd5ArrayINS_3Scb13MaterialEventENS0_19ReflectionAllocatorIS3_EEE15growAndPushBackERKS3_
R$:__ZN9ShaderLab10SubProgram7CompileEv
cka:__ZN7ApiGLES16SetPatchVerticesEi
Gmc:__ZN5physx2Sc5Scene11onBodySleepEPNS0_7BodySimE
gua:__ZN10MemoryFileC2E18MemLabelIdentifierP14MemoryFileData14FilePermission
aaf:_TrackingServices_NotifyUnmarshaledObject_m1794048369
Snh:__ZN6il2cpp2vm5Class20FromGenericParameterEPK22Il2CppGenericParameter
v1b:__ZL28GeomMTDCallback_PlaneCapsuleRN5physx6PxVec3ERfRKNS_10PxGeometryERKNS_11PxTransformES5_S8_
MU:__ZN15GlobalCallbacksC2Ev
TYa:__ZN11AssetBundle8TransferI14SafeBinaryReadEEvRT_
_Qf:_Array_InternalArray__set_Item_TisLabelFixup_t4090909514_m565370771_gshared
Txa:__ZZ23InitPlayerLoopCallbacksvEN43PostLateUpdatePlayerSendFrameCompletestruct7ForwardEv
nLd:__Z15CastclassSealedP12Il2CppObjectP11Il2CppClass
Aqe:_IntPtr_System_Runtime_Serialization_ISerializable_GetObjectData_m21554269_AdjustorThunk
uAc:__ZN5physx9NpPhysics16createConvexMeshERNS_13PxInputStreamE
MOa:__ZN16ReflectionProbes40UpdateRealtimeReflectionProbesTimeslicedEv
Tlc:__ZN5physx2Sq17SceneQueryManager8addShapeERKNS_7NpShapeERKNS_12PxRigidActorEbPNS_9PxBounds3E
KKb:__ZN16ReflectionProbes15InitializeClassEv
y5h:__ZN6il2cpp5utils5MatchENSt3__212basic_stringIcNS1_11char_traitsIcEENS1_9allocatorIcEEEEjRKS7_j
Etg:_MRUList_Evict_m2430323183
_Th:__ZN6il2cpp2vm5Image9GetCorlibEv
JVh:__ZN6il2cpp2vm11MethodStack17GetStackFramesRawEv
pWe:_RecordProtocol_ProcessChangeCipherSpec_m3233959862
xdh:_Component_GetComponent_m4225719715
i4c:__ZNK5physx2Gu29EPASupportMapPairRelativeImplINS0_8CapsuleVES2_E9doSupportERKNS_6shdfnd3aos5Vec3VERS6_S9_S9_
_pd:__ZN5physx10SubSortSAH5sort4EPjjRNS_6shdfnd5ArrayINS_11RTreeNodeNQENS2_19ReflectionAllocatorIS4_EEEERjjPS4_
$we:_TextWriter_Write_m576684782
Jj:_glIsVertexArray
Zjb:__ZNSt3__26vectorIN4core12basic_stringIcNS1_20StringStorageDefaultIcEEEE13stl_allocatorIS5_L18MemLabelIdentifier12ELi16EEEC2INS_11__wrap_iterIPS5_EEEET_SE_RKS8_PNS_9enable_ifIXaasr21__is_forward_iteratorISE_EE5valuesr16is_constructibleIS5_NS_15iterator_traitsISE_E9referenceEEE5valueEvE4typeE
fua:__ZN25SingleBlockMemoryFileDataC2E18MemLabelIdentifierPvjb
fa:invoke_fff
lgi:b14
GVe:_TlsServerHello_Update_m1740270635
mwd:__ZN5physx2Sc7PhysicsC2ERKNS_17PxTolerancesScaleERKNS_14PxvOffsetTableE
Jph:__ZN13Il2CppHashMapIPK19Il2CppGenericMethodPK26Il2CppGenericMethodIndicesN6il2cpp8metadata23Il2CppGenericMethodHashENS7_26Il2CppGenericMethodCompareENSt3__29allocatorINSA_4pairIK10KeyWrapperIS2_ES5_EEEEEC2EjRKS8_RKS9_
ttg:_MatchCollection_get_Item_m2609281578
Vqa:__ZN7ApiGLES13CreateProgramEv
P3a:__ZN11HaloManager7AddHaloEv
ZTf:_UTF8Encoding__ctor_m100325490
mla:__ZN4crnd12crn_unpackerD2Ev
Wj:_emscripten_glTexImage2D
hGg:_ObjRefSurrogate_SetObjectData_m1873902916
vK:__ZN18ScriptingArguments9AddStringEPKc
O2h:_setup_header
hdi:runPostSets
h4c:__ZNK5physx2Gu29EPASupportMapPairRelativeImplINS0_8CapsuleVES2_E18doWarmStartSupportEiiRNS_6shdfnd3aos5Vec3VES7_S7_
p9:__ZL23stbir__resize_arbitraryPvPKviiiS_iiiffffPfiij14stbir_datatype12stbir_filterS4_10stbir_edgeS5_16stbir_colorspace
wtb:__Z18Transfer_BlittableI24GenerateTypeTreeTransferLb1E8Vector4fEvRK29SerializationCommandArgumentsR31RuntimeSerializationCommandInfo
joe:_Int16_ToString_m3971652088_AdjustorThunk
fk:_pthread_detach
nyh:__ZN6il2cpp2vm19SocketPollingThread7RunLoopEv
z5e:_X509ExtensionEnumerator_Reset_m3200687545
CFg:_MethodDictionary_AllocInternalProperties_m3261295876
T2g:__Z197RuntimeInvoker_Boolean_t3825574718_Il2CppObject_Il2CppObject_Il2CppObject_Int32_t2071877448_DateTimeU26_t3448131235_SByte_t454417549_BooleanU26_t3168250738_SByte_t454417549_ExceptionU26_t1467204777PK10MethodInfoPvPS2_
q$c:__ZN5physx11EdgeManager6resizeEj
$ba:__ZNSt3__213__stable_sortIRN10vector_mapI17ScriptingClassPtrPKN5Unity4TypeENS_4lessIS2_EENS_9allocatorINS_4pairIS2_S6_EEEEE13value_compareENS_11__wrap_iterIPSB_EEEEvT0_SJ_T_NS_15iterator_traitsISJ_E15difference_typeEPNSM_10value_typeEi
WDb:__ZN9ShaderLab25SerializedTextureProperty8TransferI24GenerateTypeTreeTransferEEvRT_
TZa:__ZN15dense_hashtableINSt3__24pairIKN4core12basic_stringIcNS2_20StringStorageDefaultIcEEEEP11AssetBundleEES6_20StringHash32FunctionIS6_EN14dense_hash_mapIS6_S9_SC_NS0_8equal_toIS6_EENS0_9allocatorISA_EEE9SelectKeyESF_SH_E12resize_deltaEjj
Eni:_emscripten_glIsShader__wrapper
uHh:__ZN6il2cpp2gc19AppendOnlyGCHashMapINSt3__24pairIPK14Il2CppAssemblyP11Il2CppClassEEP24Il2CppReflectionAssembly17ReflectionMapHashIS9_ENS2_8equal_toIS9_EEEC2Ev
iOc:__ZN5physx2Sc5Scene12removeStaticERNS0_10StaticCoreERNS_6shdfnd11InlineArrayIPKNS0_9ShapeCoreELj64ENS4_19ReflectionAllocatorIS8_EEEEb
Ldf:_DelegatePInvokeWrapper_CallbackHandler_t362827733
uZb:__Z18Transfer_BlittableI8JSONReadLb1EyEvRK29SerializationCommandArgumentsR31RuntimeSerializationCommandInfo
Ck:_emscripten_glMatrixMode
cte:_NotSupportedException__ctor_m836173213
rRc:__ZN5physx2Sc10NPhaseCore25createShapeInstancePairLLERNS0_8ShapeSimES3_NS_7PxFlagsINS_10PxPairFlag4EnumEtEE
TFg:_MethodReturnDictionary__ctor_m756139344
dB:__ZN11UnityEngine15CloudWebService14DataDispatcher16PrepareDataBlockERNS0_16SessionContainerE
kra:__ZN18GfxFramebufferGLES5ClearE13GfxClearFlagsRK10ColorRGBAffib
wSc:__ZThn8_N5physx2Sc19ShapeInstancePairLL12onDeactivateEj
rzb:__ZL26Transfer_SimpleNativeClassI18StreamedBinaryReadILb0EE10RectOffsetLb0EEvRK29SerializationCommandArgumentsR31RuntimeSerializationCommandInfo
BFa:__ZL12DepthPassJobPN21GfxDeviceAsyncCommand10ArgScratchEPKNS_3ArgE
zCb:__ZNSt3__26vectorIN9ShaderLab20SerializedSubProgram16TextureParameterENS_9allocatorIS3_EEE6assignINS_11__wrap_iterIPS3_EEEENS_9enable_ifIXaasr21__is_forward_iteratorIT_EE5valuesr16is_constructibleIS3_NS_15iterator_traitsISC_E9referenceEEE5valueEvE4typeESC_SC_
Cqe:_IntPtr_Equals_m1214967011_AdjustorThunk
Ard:__ZN9Rigidbody16ApplyConstraintsEv
uIb:__Z13RegisterClassI19LowerResBlitTextureEvv
Gm:FUNCTION_TABLE_iiiiiiiiiiii
_Jc:__ZN5physx2Sc17ParticleSystemSim8setFlagsEj
q3a:__ZN16GraphicsSettingsD0Ev
DNa:__ZN15LODGroupManager21CalculateLODDataArrayERK13LODParametersPK6Cameraf
n:cttz_i8
Sod:__ZN5physx2Gu15EdgeListBuilder18CreateEdgesToFacesEjPKjPKt
g9b:__ZN5physx11PxMeshQuery5sweepERKNS_6PxVec3EfRKNS_10PxGeometryERKNS_11PxTransformEjPKNS_10PxTriangleERNS_10PxSweepHitENS_7PxFlagsINS_9PxHitFlag4EnumEtEEPKjfb
Btg:_MRUList__ctor_m2726533367
Nke:_DateTimeFormatInfo_get_FullDateTimePattern_m2607507656
eWe:_HttpsClientStream_RaiseServerCertificateValidation_m3356770426
iee:_DelegateSerializationHolder__ctor_m3915060553
akb:__ZN15SerializeTraitsINSt3__26vectorIN30RuntimeInitializeOnLoadManager9ClassInfoE13stl_allocatorIS3_L18MemLabelIdentifier12ELi16EEEEE8TransferI24GenerateTypeTreeTransferEEvRS7_RT_
yl:_emscripten_glViewport
_$h:__ZN6il2cpp6icalls8mscorlib6System15MonoCustomAttrs17IsDefinedInternalEP12Il2CppObjectP20Il2CppReflectionType
feb:__ZN4Mesh21UnswizzleVertexColorsEb
lbe:_DateTime_ToString_m2276663647_AdjustorThunk
Tsd:__ZThn28_N14PhysicsManagerD0Ev
Icd:__ZN5physx2Sc27ConstraintProjectionManagerC2Ev
uac:__Z14raycast_sphereRKN5physx10PxGeometryERKNS_11PxTransformERKNS_6PxVec3ES8_fNS_7PxFlagsINS_9PxHitFlag4EnumEtEEjPNS_12PxRaycastHitEbPFbRSD_PvESG_
Yq:__GLOBAL__sub_I_runtime_animation2_lump_cpp
_hb:__ZN14PlayerSettings23VirtualRedirectTransferER18StreamedBinaryReadILb0EE
f8h:__ZN6il2cpp2os5Event5ResetEv
aLa:__Z26CombineDepthNormalsTextureRK17RenderLoopContextR13dynamic_arrayI16RenderObjectDataLj4EE
Mkh:_AesManaged__ctor_m2322442838
lTh:__ZN6il2cpp8metadata15GenericMetadata17InflateParametersEPK13ParameterInfohPK20Il2CppGenericContextb
Npe:_Int64_System_IConvertible_ToUInt32_m850395426_AdjustorThunk
r2a:__ZN6Camera13AwakeFromLoadE17AwakeFromLoadMode
WDd:_HMACSHA512__ctor_m2390736870
fmf:_TypeBuilder_GetInterfaces_m1818658502
Vje:_NumberFormatter_AppendIntegerString_m868842252
PW:__Z25SetNeedToPerformRenderingb
isf:_MonoMethod_GetPseudoCustomAttributes_m466965107
pJa:__ZNSt3__227__insertion_sort_incompleteIR23CompareReflectionProbesP31RuntimeReflectionProbeBlendInfoEEbT0_S5_T_
PFa:__ZN14qsort_internal30FindAndMovePivotToLastPositionIP15RODataDepthPassi17ROSorterDepthPassEEvT_S4_T0_T1_
d7f:__ZL53SortedList_t3004938869_CustomAttributesCacheGeneratorP21CustomAttributesCache
lFf:_Enumerator_System_Collections_IDictionaryEnumerator_get_Value_m3005608231_gshared
k3c:__ZN5physxL27PxcSweepAnyShapeHeightfieldERKNS_11PxsCCDShapeES2_PKNS_12PxsRigidBodyES5_RKNS_11PxTransformES8_fRNS_6PxVec3ESA_RNS_10PxcNpCacheERNS_18PxcNpThreadContextE
KNa:__ZN12CullingGroup10SendEventsEPK17CullingGroupEventj
gGe:_DSAManaged_GenerateKeyPair_m2711647034
pTa:__ZN13sorted_vectorINSt3__24pairIN4core12basic_stringIcNS2_20StringStorageDefaultIcEEEES6_EEN10vector_mapIS6_S6_27compare_tstring_insensitiveIS6_E13stl_allocatorIS7_L18MemLabelIdentifier37ELi16EEE13value_compareESD_E9erase_oneIS6_EEjRKT_
Mab:__ZThn32_NK8Renderer8GetLayerEv
LOf:_Array_InternalArray__ICollection_Add_TisResourceCacheItem_t333236149_m1151081240_gshared
q_c:__ZN5physx3Scb5SceneD2Ev
xbf:_SoapServices_GetXmlTypeForInteropType_m3821579913
Dli:_emscripten_glTexParameterfv__wrapper
Nwg:_CaptureAssertion_IsComplex_m1433259302
pCh:_il2cpp_method_get_param_count
fHb:__ZN10systeminfo19ISOToSystemLanguageERN4core12basic_stringIcNS0_20StringStorageDefaultIcEEEE
nGh:__ZNK15dense_hashtableINSt3__24pairIK10KeyWrapperINS1_IPK12PropertyInfoP11Il2CppClassEEEjEES9_17ReflectionMapHashIS8_EN14dense_hash_mapIS9_jSD_NS9_14EqualsComparerINS0_8equal_toIS8_EEEENS0_9allocatorISB_EEE9SelectKeyESI_SK_E3endEv
Jrd:__Z16GetDynamicsScenev
BKd:_String_IndexOfUnchecked_m3356721554
z9a:__ZN16LightmapSettings8TransferI14SafeBinaryReadEEvRT_
yma:__ZN17BufferManagerGLES13ReleaseBufferEP14DataBufferGLES
Zic:__ZN5physx6shdfnd5ArrayIPvNS0_19ReflectionAllocatorINS_16NpConnectorArrayEEEE15growAndPushBackERKS2_
zQc:__ZN5physx2Sc5Scene15prepareSimulateEv
sZb:__Z18Transfer_BlittableI8JSONReadLb1EjEvRK29SerializationCommandArgumentsR31RuntimeSerializationCommandInfo
Dkc:__ZN5physx6shdfnd5ArrayIPNS_2Sc11InteractionENS0_19ReflectionAllocatorIS4_EEE8recreateEj
hRg:_PKCS12_Decrypt_m1557069392
d1e:_WebHeaderCollection_ToString_m1246460752
Jyf:_InternalEnumerator_1_System_Collections_IEnumerator_get_Current_m2842514953_AdjustorThunk
Mo:stackSave
jTh:__ZNK15dense_hashtableI10KeyWrapperIP18Il2CppGenericClassES3_N6il2cpp8metadata22Il2CppGenericClassHashEN14dense_hash_setIS3_S6_NS3_14EqualsComparerINS5_25Il2CppGenericClassCompareEEENSt3__29allocatorIS3_EEE8IdentityESA_SD_E12test_deletedERK30dense_hashtable_const_iteratorIS3_S3_S6_SF_SA_SD_E
VFd:_RIPEMD160Managed_JJ_m2933451431
czd:__Z63Register_UnityEngine_Physics_INTERNAL_CALL_Internal_RaycastTestv
xEd:_MACTripleDES_Initialize_m1318099802
lPe:_MD5SHA1_VerifySignature_m507888141
FXd:_Byte_System_IConvertible_ToChar_m4188836679
vke:_NumberFormatter_InitDecHexDigits_m2036076025
QFf:_Enumerator_get_CurrentKey_m3839846791_AdjustorThunk
d_b:__ZN8JSONRead21TransferSTLStyleArrayI13dynamic_arrayIaLj1EEEEvRT_18MemLabelIdentifier17TransferMetaFlags
vPa:__ZN6Camera9SetAspectEf
LMe:_Kernel_modInverse_m3230829577
fza:_UNITY_png_set_write_fn
n_f:_UInt32_TryParse_m3987111861
Wmi:_emscripten_glBindVertexArray__wrapper
YHf:_Dictionary_2_InitArrays_m435313205_gshared
rQa:__ZN9Transform37InitializeTransformHierarchyRecursiveER18TransformHierarchyRii
hJb:__Z34DefaultPrepareDispatchBoundsUpdateR13RendererScene18MemLabelIdentifier
vEe:_ModulusRing_Pow_m1137250399
o3e:_X509Chain_Build_m2341271288
LBa:__ZN17MeshRenderingData4InitEP4MeshS1_iP15SharedGfxBufferS3_
b2d:_Hashtable__cctor_m2952659675
o5e:_X509ChainStatus__ctor_m3628359961_AdjustorThunk
Cib:__ZN10VRSettings8TransferI19StreamedBinaryWriteILb0EEEEvRT_
EPc:__ZN5physx2Sc9StaticSim21postActor2WorldChangeEv
SKd:_Evidence_get_HostEvidenceList_m2095478124
nSe:_Context_Clear_m4000337070
fha:__ZN13GfxDeviceGLES26SetRandomWriteTargetBufferEi15ComputeBufferID
yaa:__ZN18BlockRangeInternal16PopLastNodeIndexEP10BlockRangeji
Evc:__ZN5physx6shdfnd4sortIPvNS0_4LessIS2_EENS0_19ReflectionAllocatorINS_2Cm5BlockIhLj256EEEEEEEvPT_jRKT0_RKT1_j
QZa:__ZN18AssetBundleManager19RegisterAssetBundleEP11AssetBundle
Fmd:__ZN5physx20InternalTriangleMesh7releaseEv
R1c:__ZN5physx6shdfnd5ArrayINS_16PxsCCDBlockArrayINS_13PxsCCDOverlapELi128EE9BlockInfoENS0_19ReflectionAllocatorIS5_EEE15growAndPushBackERKS5_
Slc:__ZNK5physx7NpShape8getFlagsEv
FPb:__ZNK11ICallString6ToUTF8Ev
Lwg:_CaptureAssertion_get_Alternate_m2729005740
T0h:_GC_number_stack_black_listed
Fjf:_Default_SelectMethod_m3081239996
rFc:__ZNK5physx7NpCloth16getContactOffsetEv
fR:__ZN12FileAccessor4ReadEyyPvPy
O$:__ZN13dynamic_arrayI16ShaderKeywordSetLj4EE6insertEPS0_PKS0_S4_
DFg:_MethodDictionary_IsOverridenKey_m3922224650
m3d:_SyncHashtable_Contains_m3042906549
KPb:__Z21GetSceneHierarchyPathPK6Object
E5e:_X509KeyUsageExtension_CopyFrom_m931530012
WOa:__ZN13RenderTexture9SetHeightEi
RQh:__ZN6il2cpp6icalls8mscorlib6System2IO6MonoIO17GetFileAttributesEP12Il2CppStringPi
mkf:_CustomAttributeTypedArgument_GetHashCode_m999147081
RK:__Z24scripting_class_get_name17ScriptingClassPtr
_S:__ZN13RuntimeStaticI15GUIEventManagerLb0EE13StaticDestroyEPv
ooa:__ZN7ApiGLES14TextureSamplerEjj17TextureFilterMode15TextureWrapModeifb18ShadowSamplingModeN2gl17TextureSrgbDecodeE
lqb:__Z29Transfer_Blittable_ArrayFieldI14SafeBinaryReadjEvRT_R9ArrayInfoRK23StaticTransferFieldInfo
Och:_Camera_FireOnPostRender_m94860165
_d:_emscripten_set_keydown_callback
M2d:_Enumerator_get_Value_m3684748062
W1a:__ZN19StreamedBinaryWriteILb0EE21TransferSTLStyleArrayINSt3__26vectorI17SortingLayerEntryNS2_9allocatorIS4_EEEEEEvRT_17TransferMetaFlags
j_f:_UInt32_Parse_m3371984903
nR:__ZN12FileAccessorC2Ev
jQa:__ZN9Transform35SetLocalPositionWithoutNotificationERKN4math7_float3E
vqc:__ZN5physx2Sc15ArticulationSim12applyImpulseERNS0_8BodyCoreERKNS_9PxcFsDataERKNS_6PxVec3ES9_
wug:_PatternLinkStack_GetCurrent_m2994645935
nzh:__ZN6il2cpp2vm7Runtime12GetConfigDirEv
FFg:_MethodDictionary_set_Item_m3475146889
Qpc:__ZNK5physx14NpArticulation26getInternalDriveIterationsEv
Enb:__Z39WriteQueueForTransferSignatureIntoCacheRK31TransferFunctionScriptingTraitsRK24TransferRequestSignature17ScriptingClassPtrR23CachedSerializationDataRb
N7:__ZN13RenderManager18UpdateAllRenderersEv
yzd:__ZN22BaseUnityConnectClient30OnEnteringStatePausedOrStoppedEv
Zsh:__ZN13dynamic_arrayIPK10Il2CppTypeLj4EE6assignEPKS2_S5_
YFh:__ZN15dense_hashtableINSt3__24pairIK10KeyWrapperINS1_IPK12PropertyInfoP11Il2CppClassEEEjEES9_17ReflectionMapHashIS8_EN14dense_hash_mapIS9_jSD_NS9_14EqualsComparerINS0_8equal_toIS8_EEEENS0_9allocatorISB_EEE9SelectKeyESI_SK_E12resize_deltaEjj
_Pa:__Z24MergeTransformComponentsR9TransformS0_b
vlc:__ZThn24_N5physx2Sc20ArticulationJointSimD0Ev
tch:_DelegatePInvokeWrapper_AudioConfigurationChangeHandler_t3743753033
Oue:_MonoIO_get_PathSeparator_m2635828107
Pze:_MonoType_get_Name_m865859211
yie:_CultureInfo__cctor_m2290268677
xOd:_String_Trim_m3982520224
Bfc:__ZN5physx14PxsAABBManager12createBPElemEv
Faf:_RemotingConfiguration__cctor_m2129988840
rCc:__ZThn12_N5physx7NpShape14onRefCountZeroEv
I1b:__ZL26GeomMTDCallback_ConvexMeshRN5physx6PxVec3ERfRKNS_10PxGeometryERKNS_11PxTransformES5_S8_
w$h:__ZN6il2cpp2vm13ComObjectBase19GetRuntimeClassNameEPP15Il2CppHString__
Hj:_emscripten_glVertexAttribPointer
T5:__ZN14PreloadManager26UpdatePreloadingSingleStepENS_21UpdatePreloadingFlagsEi
mId:_SHA512Managed_Initialize_m891287980
Uhd:__ZN18ScBeforeSolverTask11runInternalEv
Z5a:__ZN26ProbeSetTetrahedralization8TransferI24GenerateTypeTreeTransferEEvRT_
eLd:_SecurityException__ctor_m1484114982
rTg:_X509Crl_GetHashName_m183504634
tUd:_Array_GetValue_m1507415734
jje:_Object_MemberwiseClone_m2655589444
dic:__ZL33GeomOverlapCallback_CapsuleConvexRKN5physx10PxGeometryERKNS_11PxTransformES2_S5_PNS_2Gu12TriggerCacheE
pNg:_ReadOnlyCollection_1_System_Collections_IList_get_Item_m375043207_gshared
q3:__ZN6prcoreL25inner_stretch_i8_bilinearEPKNS_9InnerInfoE
BC:__ZN11UnityEngine15CloudWebService13WWWRestClient17GetResponseStatusEv
jdh:_Collision_get_transform_m4132935520
rsf:_MonoMethod_get_IsGenericMethod_m4276550811
zB:__ZN11UnityEngine15CloudWebService16SessionContainer24GetSessionHeaderJsonDataERKN4core12basic_stringIcNS2_20StringStorageDefaultIcEEEERNS2_13StringBuilderE
R6d:_Decimal_op_Implicit_m2149927308
NS:__ZN13RuntimeStaticI21AssetReferenceStorageLb0EE13StaticDestroyEPv
Mmd:__ZN5physx20InternalTriangleMesh9loadRTreeERNS_13PxInputStreamEj
yJg:_List_1_set_Capacity_m895816763_gshared
PXh:__ZN6il2cpp6icalls8mscorlib6System9AppDomain22InternalGetProcessGuidEP12Il2CppString
GKc:__ZN5physx2Sc18ParticleSystemCore16releaseParticlesEv
EGe:_KeyPairPersistence_get_UseMachineKeyStore_m560802076
iac:__ZN5physx2Gu20intersectTriangleBoxERKNS_6shdfnd3aos5Vec3VES5_S5_S5_S5_
Qtb:__Z18Transfer_BlittableI24GenerateTypeTreeTransferLb1EjEvRK29SerializationCommandArgumentsR31RuntimeSerializationCommandInfo
KOe:_MD2Managed_Padding_m410163267
Wnh:__ZN6il2cpp2os12FastAutoLockD2Ev
C4a:__ZN11ColorRGBA328TransferI14SafeBinaryReadEEvRT_
Jvd:__ZN5physx6shdfnd5ArrayIPvNS0_19ReflectionAllocatorINS_24NpPtrTableStorageManager8PtrBlockILi4EEEEEE15growAndPushBackERKS2_
l9:__Z11IsHDRFormat13TextureFormat
Ef:_emscripten_glClearDepth
Ubb:__ZN14SafeBinaryRead21TransferSTLStyleArrayINSt3__26vectorIN15QualitySettings14QualitySettingENS1_9allocatorIS4_EEEEEEvRT_17TransferMetaFlags
Cse:_File_OpenText_m4058508963
udh:_Collision_get_frictionForceSum_m3438602686
Xia:__ZN7ApiGLES13CreateTextureEjN2gl9TexFormatEiiiii
G5g:__Z54RuntimeInvoker_Double_t4078015681_Interval_t2354235237PK10MethodInfoPvPS2_
Lhb:__ZNSt3__26vectorINS_4pairIPKN5Unity4TypeE7Hash128EENS_9allocatorIS7_EEE8__appendEj
Jbf:_WellKnownClientTypeEntry__ctor_m670594074
pKh:__ZN15dense_hashtableINSt3__24pairIK10KeyWrapperIP11Il2CppClassES4_EES5_N6il2cpp8metadata16SZArrayClassHashEN14dense_hash_mapIS5_S4_SA_NS5_14EqualsComparerINS9_19SZArrayClassCompareEEENS0_9allocatorIS7_EEE9SelectKeyESE_SG_EC2ERKSJ_j
hae:_DateTime_System_IConvertible_ToSingle_m3927769066_AdjustorThunk
mWe:_RecordProtocol_SendRecord_m2977889250
tRb:__Z13IsPathCreatedRKN4core12basic_stringIcNS_20StringStorageDefaultIcEEEE
F5c:__ZN5physx35solveContactPreBlock_ConcludeStaticEPKNS_23PxcSolverConstraintDescEjRNS_16PxcSolverContextE
v9:__ZL22stbir__encode_scanlineP11stbir__infoiPvPfiii
hzd:__ZN20QuadTreeNodeRenderer13StaticDestroyEPv
VLf:_Array_InternalArray__ICollection_Remove_TisUInt32_t2149682021_m4198326168_gshared
VIb:__ZN9Transform12CleanupClassEv
r4h:__ZN6il2cpp6icalls8mscorlib6System9Threading16NativeEventCalls19CloseEvent_internalE12Il2CppIntPtr
lSe:_ClientContext_set_ClientHelloProtocol_m2246603449
rkc:__ZN5physx6shdfnd5ArrayIPvNS0_15InlineAllocatorILj256ENS0_19ReflectionAllocatorINS_2Cm5BlockIS2_Lj32EEEEEEEE15growAndPushBackERKS2_
Ugd:__ZN5physx18PxsSolverStartTask13setupDescTaskEv
roh:__ZN6il2cpp2vmL21SetupPropertiesLockedEP11Il2CppClassRKNS_2os12FastAutoLockE
lDb:__ZNSt3__26vectorIN9ShaderLab19SerializedSubShaderENS_9allocatorIS2_EEE26__swap_out_circular_bufferERNS_14__split_bufferIS2_RS4_EE
i0b:__ZN5physx3Cct13BoxController6resizeEf
Nff:_SByte_ToString_m4105923225_AdjustorThunk
x0a:_LZ4_compress_generic
Ndf:_StreamingContext_t1417235061_marshal_pinvoke_cleanup
Cie:_CultureInfo_ConstructCurrentUICulture_m3363349599
Hcb:__ZN13dynamic_arrayI7SubMeshLj4EE18resize_initializedEjRKS0_12ResizePolicy
mze:_MonoType_GetEvent_m4160342003
yid:__ZN5physx6shdfnd5ArrayINS_2Cm12DelegateTaskINS_2Sc5SceneEXadL_ZNS5_19updateCCDSinglePassEPNS_10PxBaseTaskEEEEENS0_19ReflectionAllocatorIS8_EEE8recreateEj
J4a:__Z30ProcessDynamicBatchGeometryJobP25DynamicVBOGeometryJobDataj
xGa:__ZNSt3__27__sort4IRNS_6__lessI11CulledLightS2_EEPS2_EEjT0_S6_S6_S6_T_
YMh:__ZN6il2cpp2vm14TypeNameParser26ParseArrayModifierOptionalEv
RBe:_MSCompatUnicodeTable_Level3_m260824928
gK:__Z26scripting_object_get_class18ScriptingObjectPtr
swc:__ZN5physx34NpShapeGetScRigidObjectFromScbSLOWERKNS_3Scb5ShapeE
doe:_Int32_FindExponent_m3187554672
QGe:_KeyPairPersistence_Load_m1355205585
fpe:_Int32_ToString_m2960866144_AdjustorThunk
joc:__ZNK5physx21PxsBodyTransformVault12getTransformERKNS_11PxsBodyCoreE
HZh:__ZN6il2cpp6icalls8mscorlib6System11Environment15internalGetHomeEv
Y9c:__ZN5physx2Gu33MultiplePersistentContactManifold10fromBufferEPh
d2b:__ZN44ConvexVsHeightfieldContactGenerationCallback7onEventEjPj
MAa:_UNITY_png_set_error_fn
In:FUNCTION_TABLE_diiii
c$b:__ZN8JSONRead21TransferSTLStyleArrayI13dynamic_arrayIfLj4EEEEvRT_18MemLabelIdentifier17TransferMetaFlags
L3c:__ZN5physx2Gu19_gjkRelativeRayCastINS0_9TriangleVENS0_8CapsuleVEEEbRT_RT0_RKNS_6shdfnd3aos15PsMatTransformVERKNS9_6FloatVERKNS9_5Vec3VESI_RSD_RSG_SK_f
CBe:_ContractionComparer_Compare_m314873025
Uoc:__ZN5physx6shdfnd5ArrayIPvNS0_15InlineAllocatorILj256ENS0_19ReflectionAllocatorINS_11NpAggregateEEEEEE15growAndPushBackERKS2_
wpe:_Int64_System_IConvertible_ToDouble_m638786774
ONc:__ZNK5physx14NpRigidDynamic21getMaxAngularVelocityEv
Yv:__ZN4FMOD6System7releaseEv
L$c:__ZN5physx6shdfnd8PoolBaseINS_2Sc18TriggerInteractionENS0_19ReflectionAllocatorIS3_EEE15disposeElementsEv
RQ:__Z18PathToAbsolutePathRKN4core12basic_stringIcNS_20StringStorageDefaultIcEEEE
MGg:_Enumerator_MoveNext_m3078170540_AdjustorThunk
Owd:__ZN5physx28PxcContactCapsuleHeightFieldERKNS_2Gu13GeometryUnionES3_RKNS_11PxTransformES6_RKfRNS_10PxcNpCacheERNS0_13ContactBufferE
_1b:__ZL31PointInConvexPolygon2D_OutCodesPKfjffffRh
nqa:__ZN16GeometryJobTasks20ScheduleGeometryJobsER9GfxDevicePFvP15GeometryJobDataEPK22GeometryJobInstructionjb
Zt:__ZN12AudioManager29ShutdownReinitializeAndReloadEv
TQg:_NetscapeCertTypeExtension_Decode_m2210025005
Ijd:__ZN5physx2Cm12DelegateTaskINS_2Sc5SceneEXadL_ZNS3_15postNarrowPhaseEPNS_10PxBaseTaskEEEE11runInternalEv
Kxd:__Z20ConvertContactToMonoP9Collision
Sbf:_BaseFixupRecord_DoFixup_m1821597450
Vnh:__ZN15dense_hashtableINSt3__24pairIK10KeyWrapperIPK22Il2CppGenericParameterEP11Il2CppClassEES6_N6il2cpp5utils11PointerHashIS4_EEN14dense_hash_mapIS6_S9_SE_NS6_14EqualsComparerINS0_8equal_toIS5_EEEENS0_9allocatorISA_EEE9SelectKeyESJ_SL_E6insertERKSA_
Gse:_FileLoadException__ctor_m1356374414
Gja:__ZN14DataBufferGLES16RecreateWithDataEjPKv
jRb:__Z29GetGlobalAllowNameConversionsv
Z1b:__ZL17transformVerticesRfS_S_S_PfjPKN5physx6PxVec3EPKhRKNS1_7PxMat33E
Twd:__ZNK5physx2Gu15HeightFieldUtil31getFaceIndexAtShapePointNoTest2Ejff
eSa:__ZN8Material8SetColorEN9ShaderLab16FastPropertyNameERK10ColorRGBAf
Bqf:_Module_GetCustomAttributes_m3581287913
M0c:__ZNK5physx2Sq10AABBPruner5sweepERKNS0_9ShapeDataERKNS_6PxVec3ERfRNS0_14PrunerCallbackE
VK:__ZL41AssemblyNameMatchesWithOrWithoutExtensionPKcS0_
KXc:__ZN5physx2Sc5Scene21fireCallBacksPostSyncEv
Xna:__ZN14GfxContextGLES43AddRenderSurfaceToDeferredFBOInvalidateListEPK17RenderSurfaceGLES
q2c:__ZN5physx17PxsCCDAdvanceTask11runInternalEv
Y_:__ZN11NamedObject23VirtualRedirectTransferER14SafeBinaryRead
d6:__ZN23PreloadManagerOperation6IsDoneEv
vKe:_X509Certificate_get_RawData_m3000055075
wOb:__Z33GetHasChangedDeprecatedSystemMaskv
fXh:__ZN6il2cpp5utils11StringUtils11Utf16ToUtf8ERKNSt3__212basic_stringIDsNS2_11char_traitsIDsEENS2_9allocatorIDsEEEE
fSf:_BaseInvokableCall_ThrowOnInvalidArg_TisIl2CppObject_m1349548392_gshared
qcc:__ZN5physx3Cct26CharacterControllerManagerD2Ev
XEf:_Enumerator_VerifyState_m1165543189_AdjustorThunk
Pae:_DateTime_AddSeconds_m722082155_AdjustorThunk
g0d:_SynchronizedArrayListWrapper_CopyTo_m956887031
raa:__ZN21LightProbeProxyVolume18HasHardwareSupportEv
l3:__ZN6prcoreL31inner_stretch_argb8888_bilinearEPKNS_9InnerInfoE
Xwb:__Z18Transfer_BlittableI18StreamedBinaryReadILb1EELb1E8BitFieldEvRK29SerializationCommandArgumentsR31RuntimeSerializationCommandInfo
xUe:_TlsClientCertificate_get_ClientCertificate_m3062440489
JKd:_StrongNamePublicKeyBlob_ToString_m3721281223
$xf:_InternalEnumerator_1_get_Current_m198513457_AdjustorThunk
T1c:__ZN5physx6shdfnd8internal8HashBaseINS0_4PairIKNS3_IPKNS_12PxsRigidCoreEPKNS_12PxsShapeCoreEEEPNS_11PxsCCDShapeEEESA_NS0_4HashISA_EENS1_11HashMapBaseISA_SD_SG_NS0_9AllocatorEE6GetKeyESI_Lb1EE15reserveInternalEj
jEa:__Z20scripting_object_new17ScriptingClassPtr
pC:__ZN11UnityEngine15CloudWebService10RestClientINS0_16WWWRestHeaderMapEED2Ev
JUb:__Z58Register_UnityEngine_Object_Internal_CloneSingleWithParentv
$F:__ZN14UnityWebStream7ReleaseEv
jme:_TextInfo_ToUpper_m299550697
AYc:__ZN5physx2Sc5Scene21setDominanceGroupPairEhhRKNS_20PxDominanceGroupPairE
O8d:_Convert_ToUInt16_m3265369225
P:Math_exp
Tye:_MonoEnumInfo_get_Cache_m3551569711
po:FUNCTION_TABLE_iiifi
YXh:__ZN6il2cpp2os5posix13PosixAutoLockD2Ev
Fca:__ZNSt3__26vectorINS_4pairIyP17VertexDeclarationEENS_9allocatorIS4_EEE6insertENS_11__wrap_iterIPKS4_EERS9_
vQa:__ZN13MonoBehaviour9SetScriptERK4PPtrI10MonoScriptE18ScriptingObjectPtr
_Pc:__ZN5physx7NpScene12loadFromDescERKNS_11PxSceneDescE
hde:_Decimal_IsZero_m3557909184_AdjustorThunk
RZd:_Char_ToString_m1401375624
GEd:_MD5CryptoServiceProvider__cctor_m3309191799
WH:__ZNK10FileSystem16LastErrorMessageEv
g4h:__ZNK6il2cpp8metadata14Il2CppTypeLessclEPK10Il2CppTypeS4_
bCg:_ConfigHandler_ReadCustomProviderData_m784203316
mPb:__ZN11TimeManager16HasFixedTimeStepEv
tDd:__ZN22UnityWebRequestManager10InitializeEv
TMe:_Kernel_DwordDivMod_m3728402123
mmb:__ZN13MonoBehaviour13AwakeFromLoadE17AwakeFromLoadMode
osb:__ZL26Transfer_SimpleNativeClassI17RemapPPtrTransfer8GradientLb1EEvRK29SerializationCommandArgumentsR31RuntimeSerializationCommandInfo
KOb:__ZN12CachedWriter9InitWriteER15CacheWriterBase
XNb:__Z21UnsignedInt64ToStringy
STf:_UTF7Decoder__ctor_m549434986
yYc:__ZN5physx14PxsAABBManager15createAggregateEPvb
CTb:__Z36MonoBehaviour_CUSTOM_InvokeRepeatingP12Il2CppObjectP12Il2CppStringff
aKg:_List_1_IndexOf_m1434084853_gshared
Xa:invoke_iiiiifiiiif
ATg:_X509Crl_VerifySignature_m1390212587
o6e:_Group__ctor_m4103922028
aBa:__ZN6Camera26ClearIntermediateRenderersEj
nAa:_UNITY_png_write_pCAL
Fmi:_glLinkProgram__wrapper
S3:__ZN6prcoreL12RemapGenericI17TexFormatARGB888815TexFormatBGR888EEvPKNS_9InnerInfoE
MEd:_MD5CryptoServiceProvider_ProcessFinalBlock_m1052610785
v0d:_BitArray_Set_m2878881714
mCc:__ZN5physx7NpShape8requiresERNS_23PxProcessPxBaseCallbackE
vQh:__ZN6il2cpp6icalls8mscorlib6System13Globalization11CultureInfo35construct_internal_locale_from_nameEP17Il2CppCultureInfoP12Il2CppString
ZVg:__Z58RuntimeInvoker_Il2CppObject_Int32_t2071877448_Il2CppObjectPK10MethodInfoPvPS2_
aub:__ZL22Transfer_ManagedObjectI24GenerateTypeTreeTransferLb1EEvRK29SerializationCommandArgumentsR31RuntimeSerializationCommandInfo
vDg:_ContextAttribute_Equals_m53324298
Qj:_emscripten_set_main_loop_timing
C1f:_WeakReference_AllocateHandle_m1783929473
P8c:__ZNK5physx20SingleAABBUpdateTask7getNameEv
yRa:__ZN14ImageReference10FlipImageYEv
wr:__ZN4FMOD3DSP9setBypassEb
xWa:__Z19NormalizeWheelInputf
d$b:__Z29Transfer_Blittable_ArrayFieldI8JSONReadhEvRT_R9ArrayInfoRK23StaticTransferFieldInfo
IPb:__ZN11MonoManager25GetImageFromAssemblyIndexEi
NGc:__ZN5physx2Sc9ClothCore17addCollisionPlaneERKNS_21PxClothCollisionPlaneE
zBa:__ZN22RenderingCommandBuffer20CleanupCommandBufferEv
JWb:__Z18Transfer_BlittableI9JSONWriteLb1EtEvRK29SerializationCommandArgumentsR31RuntimeSerializationCommandInfo
Hse:_FileLoadException__ctor_m918124939
hk:___syscall85
Zld:__ZNK5physx13PxHeightField8isKindOfEPKc
pDa:__ZNSt3__26__sortIRPFbP10GUIElementS2_EPS2_EEvT0_S7_T_
ANe:_SequentialSearchPrimeGeneratorBase_GenerateSearchBase_m2930465198
k_h:__ZN6il2cpp2os6Thread19DetachCurrentThreadEv
ooh:__ZN6il2cpp2vmL21SetupInterfacesLockedEP11Il2CppClassRKNS_2os12FastAutoLockE
gob:__ZN11MonoManager23VirtualRedirectTransferER24GenerateTypeTreeTransfer
p6a:__ZN19StreamedBinaryWriteILb0EE8TransferI13dynamic_arrayI8Vector3fLj4EEEEvRT_PKc17TransferMetaFlags
R5e:_Capture__ctor_m885749277
Ni:_emscripten_glUniformMatrix4fv
Xac:__ZN16ControllerFilter9preFilterERKN5physx12PxFilterDataEPKNS0_7PxShapeEPKNS0_12PxRigidActorERNS0_7PxFlagsINS0_9PxHitFlag4EnumEtEE
vB:__ZN11UnityEngine15CloudWebService14DataDispatcher15SetupWebRequestEv
O0g:__Z94RuntimeInvoker_Int32_t2071877448_Il2CppObject_Int32_t2071877448_Il2CppObject_Int32_t2071877448PK10MethodInfoPvPS2_
Swe:_TextWriter__cctor_m4047845042
wAd:__ZN11UnityEngine15PlatformWrapper13GetShaderCapsEv
L7c:__ZN16MBPOS_TmpBuffers16allocateSleepingEjj
oHe:_SmallXmlParser_ReadCharacters_m1966365555
sYe:_InternalAsyncResult_get_CompletedWithError_m3993955322
ANb:__ZN21FixedBehaviourManager6UpdateEv
JAa:_UNITY_png_free_data
INg:_ReadOnlyCollection_1_System_Collections_IList_Add_m527174473_gshared
lM:__ZN19ShaderPropertySheet8SetFloatEN9ShaderLab16FastPropertyNameEfNS_8SetFlagsE
p7:__ZN19RuntimeSceneManager24BeginIntegrateMainThreadEP10UnityScene
Rpc:__ZN5physx14NpArticulation26setExternalDriveIterationsEj
B2b:__ZN16RayRTreeCallbackILi0ELb0EED0Ev
m4g:__Z80RuntimeInvoker_Void_t1841601450_Il2CppObject_Int32_t2071877448_Int16_t4041245914PK10MethodInfoPvPS2_
hdd:__ZN5physx20PxsParticleSystemSim23scheduleCollisionUpdateERNS_10PxBaseTaskE
qZh:__ZNSt3__2plIcNS_11char_traitsIcEENS_9allocatorIcEEEENS_12basic_stringIT_T0_T1_EERKS9_S6_
Jxe:_LocalDataStoreSlot__cctor_m1192669356
TCb:__ZN9ShaderLab20SerializedSubProgramaSERKS0_
ZPd:_String_CreateString_m2556700934
U1a:__ZN18StreamedBinaryReadILb0EE21TransferSTLStyleArrayINSt3__26vectorI17SortingLayerEntryNS2_9allocatorIS4_EEEEEEvRT_17TransferMetaFlags
poh:__ZN6il2cpp2vmL24SetupTypeHierarchyLockedEP11Il2CppClassRKNS_2os12FastAutoLockE
$Ia:__Z20CalculateLightMatrixRK15SharedLightDataP10Matrix4x4f
Xii:_glBlendEquationSeparate__wrapper
a5h:__ZN6il2cpp6icalls8mscorlib6System8Security12Cryptography24RNGCryptoServiceProvider13RngInitializeEP11Il2CppArray
W$e:_IPAddress__cctor_m3624830012
jcc:__ZN5physx3Cct26CharacterControllerManager21createObstacleContextEv
O1e:_AsnEncodedData_EnhancedKeyUsageExtension_m1452131166
Sxb:__Z19TransferField_ArrayI18StreamedBinaryReadILb1EE27Converter_SimpleNativeClassI17AnimationCurveTplIfEEEvRK23StaticTransferFieldInfoR31RuntimeSerializationCommandInfoRT0_
jka:__ZN18GfxFramebufferGLES22MakeCurrentFramebufferENS_7BuiltinE
V6e:_Interpreter_Close_m1500459069
kSc:__ZN5physx6shdfnd5ArrayIPNS_2Sc19ShapeInstancePairLLENS0_19ReflectionAllocatorIS4_EEE15growAndPushBackERKS4_
P9:__ZN12CachedReader4ReadEPvj
Dfc:__ZN5physx14PxsAABBManager19createAggregateElemEv
duc:__ZN5physx2Sc8BodyCore24clearSpatialAccelerationEbb
dyf:_InternalEnumerator_1_System_Collections_IEnumerator_get_Current_m3600601141_gshared
CHd:_SHA1Internal_HashFinal_m3188468925
rIa:__Z24CalculateLightShadowFadeRK6CamerafffR8Vector4f
FN:__ZN19RuntimeSceneManagerD2Ev
hBg:_ChannelData_get_CustomProperties_m1470957369
k3:__ZN6prcore17GetIntegerBlitterE13TextureFormatS0_N14ImageReference8BlitModeE
dSc:__ZN5physx10PxsContext20createContactManagerERKNS_24PxvManagerDescRigidRigidEPNS_18PxsMaterialManagerE
lFh:__ZN6il2cpp2gc19AppendOnlyGCHashMapINSt3__24pairIPK11Il2CppImageP11Il2CppClassEEP22Il2CppReflectionModule17ReflectionMapHashIS9_ENS2_8equal_toIS9_EEE11TryGetValueERKS9_PSB_
uFf:_Enumerator_VerifyState_m3173176371_AdjustorThunk
_jc:__ZN5physx2Sc5Scene31removeActiveBreakableConstraintEPNS0_13ConstraintSimE
__e:_TypeConverterAttribute__cctor_m506796812
JSf:_Array_InternalArray__get_Item_TisILTokenInfo_t149559338_m2004750537_gshared
jEf:_Comparer_1_System_Collections_IComparer_Compare_m1790257529_gshared
BWc:__ZN5physx6shdfnd5ArrayINS_12PxActorShapeENS0_19ReflectionAllocatorIS2_EEE15growAndPushBackERKS2_
Dua:__ZN25MultiBlocksMemoryFileData17AdjustBlocksCountEj
WOh:__ZNSt3__214__split_bufferIN6il2cpp2vm22EmbeddedResourceRecordERNS_9allocatorIS3_EEED2Ev
sSe:_TlsClientHello__ctor_m1699671541
QCg:_Context_NotifyGlobalDynamicSinks_m2916447645
OSb:__Z27CullingGroup_CUSTOM_DisposeP12Il2CppObject
VBa:__ZN13ComputeShader15SetTextureParamEjRKN9ShaderLab16FastPropertyNameE9TextureID16TextureDimension
Oyc:__ZN5physx2Sc14ConstraintCore8setFlagsENS_7PxFlagsINS_16PxConstraintFlag4EnumEtEE
yDf:_InternalEnumerator_1_get_Current_m1715820327_gshared
rm:_glStencilMask
xYh:__ZN6il2cpp2os10ThreadImpl16GetCurrentThreadEv
Tkd:__ZNK5physx2Sc15ClothFabricCore20getNbParticleIndicesEv
Z1d:_Hashtable__ctor_m2337481811
$Ef:_Enumerator_System_Collections_IEnumerator_get_Current_m2010873149_gshared
maf:_RealProxy__ctor_m2505535530
e2h:_GC_push_conditional_with_exclusions
V_f:_UInt32_System_IConvertible_ToUInt16_m2798641702_AdjustorThunk
ncf:_BinaryFormatter_get_DefaultSurrogateSelector_m219714691
YOe:_MD4Managed_Encode_m2097839378
Wsf:_MonoProperty_GetOptionalCustomModifiers_m3827844355
pTf:_Component_GetComponents_TisIl2CppObject_m1073237913_gshared
qjc:__ZN5physx2Sc7BodySim6wakeUpEv
xCe:_SimpleCollator_GetSortKey_m2188419329
VRc:__ZN5physx6shdfnd8PoolBaseINS_2Gu30LargePersistentContactManifoldENS0_19ReflectionAllocatorIS3_EEE17releaseEmptySlabsEv
Njc:__ZN5physx2Sc21ConstraintInteraction7destroyEv
c7a:__ZN14RenderSettings27UpdateIndirectSpecularColorEv
uib:__ZN14PlayerSettings8TransferI18StreamedBinaryReadILb0EEEEvRT_
sAh:__ZN6il2cpp6icalls8mscorlib6System8MonoType16GetMethodsByNameEP20Il2CppReflectionTypeP12Il2CppStringibS5_
zTc:__ZNK5physx7NpScene16getNbConstraintsEv
wFc:__ZN5physx7NpCloth14setWakeCounterEf
KL:__ZN17DirectorFrameTime10SampleTimeEfff
Kca:__ZNSt3__27__sort3IRNS_4lessIN22BuiltinResourceManager8ResourceEEEPS3_EEjT0_S7_S7_T_
SDf:_DefaultComparer_Compare_m3472472212_gshared
fte:_MonoIO_GetLength_m2812344043
iOf:_MonoProperty_GetterAdapterFrame_TisIl2CppObject_TisIl2CppObject_m3902286252_gshared
sfb:__ZN10BlendShape8TransferI19StreamedBinaryWriteILb0EEEEvRT_
dgh:_PlayableHandle_INTERNAL_CALL_IsValidInternal_m2792360706
zqe:__Z21il2cpp_codegen_sizeofP11Il2CppClass
mX:__Z19GetTimeSinceStartupv
CMd:_SecurityFrame_get_Assembly_m2816566490
Spf:_FieldInfo_GetPseudoCustomAttributes_m2500972355
_ec:__ZN5physx3Scb5Scene10getPxSceneEv
Kmh:_NetFxCoreExtensions_CreateDelegate_m2492743074
KUg:__Z51RuntimeInvoker_Boolean_t3825574718_Int64_t909078037PK10MethodInfoPvPS2_
UUd:_Array_Sort_m2994254654
Jjf:_Default_CompareCloserType_m1367126249
PGa:__ZN29RenderNodeQueuePrepareContextC2Ev
sy:__ZN10SampleClipC2E18MemLabelIdentifier18ObjectCreationMode
RDb:__ZN9ShaderLab20SerializedSubProgram16TextureParameter8TransferI24GenerateTypeTreeTransferEEvRT_
A6h:__ZN6il2cpp2os11MutexHandle4WaitEj
vQb:__ZL34GetComponentsImplementationRecurseILb1ELi1ELi1EEbR10GameObjectbRK17CompareParametersRK39GetComponentsImplementation_ReturnValue
z6h:__ZN6il2cpp2os11MutexHandle4WaitEv
k_d:_ArrayList_set_Capacity_m592558035
$4:__ZN6prcoreL17RemapGenericFloatI15TexFormatRGHalf18TexFormatARGBFloatEEvPKNS_9InnerInfoE
vpe:_Int64_System_IConvertible_ToDecimal_m3390697048_AdjustorThunk
SAa:__ZN13RenderManager23AddRemoveCamerasDelayedEv
pAa:_UNITY_png_write_pHYs
KLf:_Array_InternalArray__ICollection_Remove_TisILTokenInfo_t149559338_m1523907845_gshared
Ixd:__ZNK5Unity5Joint16GetCurrentForcesER8Vector3fS2_
p2d:_Hashtable_Rehash_m2877670513
VOa:__ZN13RenderTexture8SetWidthEi
LPd:_Encoding_get_ISOLatin1_m151504502
GOf:_Array_InternalArray__ICollection_Add_TisCustomAttributeTypedArgument_t1498197914_m3260005285_gshared
VIa:__Z25SetupObjectBakedOcclusionbRK15SharedLightDataRK26SharedLightmapSettingsDataRK15LightmapIndicesR17ShaderPassContext
c3d:_SyncHashtable_GetObjectData_m3774367030
Qme:_Guid_GetHashCode_m1401300871
vBc:__ZNK5physx9NpFactory11getNbShapesEv
OL:__ZN9ShaderLab16FastPropertyName4InitEPKc
R5h:__GLOBAL__sub_I_Il2CppCodeRegistration_cpp
VBe:_MSCompatUnicodeTable_ToWidthCompat_m2299599532
$m:FUNCTION_TABLE_iiiii
DAe:_NumberFormatter_get_IsFloatingSource_m2830957202
Qcb:__ZN10VertexData8TransferI17RemapPPtrTransferEEvRT_
OY:__ZN13RenderTexture9SetMipMapEb
vdd:__ZN5physx2Sc10ClothShape21updateBoundsInAABBMgrEv
kBe:_OperatingSystem_GetObjectData_m2276196875
r1a:__ZNK10TagManager26GetTypeInfoVirtualInternalEv
blb:__ZN21ArchiveStorageCreator13AppendRawNodeERKN4core12basic_stringIcNS0_20StringStorageDefaultIcEEEEN20ArchiveStorageHeader9NodeFlagsEyy
aFh:__ZNK15dense_hashtableINSt3__24pairIK10KeyWrapperINS1_IPK10MethodInfoP11Il2CppClassEEEjEES9_17ReflectionMapHashIS8_EN14dense_hash_mapIS9_jSD_NS9_14EqualsComparerINS0_8equal_toIS8_EEEENS0_9allocatorISB_EEE9SelectKeyESI_SK_E5beginEv
xma:__ZN7ApiGLES19UploadBufferSubDataEjN2gl12BufferTargetEllPKv
C1c:__ZN5physx2Sc5Scene17createClothSolverEv
XNd:_String_System_IConvertible_ToInt32_m1927223638
wud:__ZThn116_N5physx7profile8ZoneImplINS_28PxProfileNameProviderForwardEE12removeClientERNS_19PxProfileZoneClientE
_6c:__ZN15MBP_PairManager17removeMarkedPairsEPK10MBP_ObjectPN5physx16PxsBroadPhaseMBPERK8BitArrayS8_
TPd:_ASCIIEncoding__ctor_m4127831672
Tpb:__Z19TransferField_ArrayI14SafeBinaryRead27Converter_SimpleNativeClassI8GUIStyleEEvRK23StaticTransferFieldInfoR31RuntimeSerializationCommandInfoRT0_
bmb:__ZN9TextAsset23VirtualRedirectTransferER19StreamedBinaryWriteILb0EE
$Tf:_UTF8Encoding__ctor_m3336862259
g5h:__ZN6il2cpp5utils10MemoryPoolC2Ej
c5h:__ZN6il2cpp5utils10MemoryPoolC2Ev
E6a:__ZN14RenderSettings5ResetEv
UAc:__ZN5physx9NpPhysics33unregisterDeletionListenerObjectsERNS_18PxDeletionListenerEPKPKNS_6PxBaseEj
uHc:__ZNK5physx2Sc9ClothCore22getAngularInertiaScaleEv
NYg:__Z117RuntimeInvoker_Int32_t2071877448_Il2CppObject_Il2CppObject_Int32_t2071877448_Int32_t2071877448_BooleanU26_t3168250738PK10MethodInfoPvPS2_
Csc:__ZN5physx20NpRigidActorTemplateINS_18PxArticulationLinkEE12setActorFlagENS_11PxActorFlag4EnumEb
URf:_Dictionary_2_Do_ICollectionCopyTo_TisKeyValuePair_2_t3716250094_m1740410536_gshared
hYh:__ZN6il2cpp2os10ThreadImplD2Ev
uIe:_RSAManaged_Dispose_m3018788098
zVb:__ZN8Gradient8TransferI9JSONWriteEEvRT_
d6d:_DateTime_ToUniversalTime_m1815024752
cXa:__ZNK12TLSAllocatorI14StackAllocatorE22GetAllocatedMemorySizeEv
k9f:__ZL54AssemblyName_t894705941_CustomAttributesCacheGeneratorP21CustomAttributesCache
$8d:_Convert_ToUInt32_m3394039268
LPb:__Z32GetSceneHierarchyPathDescriptivePK6Object
sva:__ZN12HandlerChain4NameEv
Bm:FUNCTION_TABLE_fiiiiiifiiiiiif
Wgb:__ZNSt3__26vectorI9InputAxisNS_9allocatorIS1_EEE10deallocateEv
ngd:__ZN5physx37setupFinalizeSolverConstraintsCoulombERNS_13PxcNpWorkUnitERKNS_2Gu13ContactBufferERKNS_27PxcCorrelationBufferCoulombERKNS_11PxTransformESB_bPhRKNS_13PxcSolverBodyESF_RKNS_17PxcSolverBodyDataESI_ffjffff
One:_Int16_Equals_m3925135434_AdjustorThunk
c7f:__ZL60IHashCodeProvider_t1980576455_CustomAttributesCacheGeneratorP21CustomAttributesCache
FRe:_CipherSuiteCollection_get_Item_m280627160
zob:__Z44InitializeTransferFunctionScriptingTraitsForI17RemapPPtrTransferEvR31TransferFunctionScriptingTraits
F9e:_SerializationInfoEnumerator_MoveNext_m1876990879
xSa:__ZN14UnityWebStream24UpdateAllUnityWebStreamsEv
H5f:__ZL60ObsoleteAttribute_t3878847927_CustomAttributesCacheGeneratorP21CustomAttributesCache
IB:__ZN11UnityEngine15CloudWebService14DataErrorEventD2Ev
$5c:__ZN5physx31ComputeCreatedDeletedPairsListsEPKjS1_jRPNS_17PxcBroadPhasePairERjS5_S4_S5_S5_RNS_14SapPairManagerE
n7:__ZN18LoadSceneOperation21MustCompleteNextFrameEv
Bw:__ZNK12AudioManager16GetAudioListenerEv
ing:__ZL48Camera_t189460977_CustomAttributesCacheGeneratorP21CustomAttributesCache
pOa:__ZNSt3__26vectorI11CameraStackNS_9allocatorIS1_EEE8__appendEj
bbd:__ZN5physx2Gu16pcmContactBoxBoxERKNS0_13GeometryUnionES3_RKNS_11PxTransformES6_RKfRNS0_5CacheERNS0_13ContactBufferE
S_f:_UInt32_System_IConvertible_ToType_m747769316
kji:_glDeleteVertexArrays__wrapper
KH:__Z13GetFileSystemv
AMb:__ZZL23RegisterLightPropertiesR22GenericPropertyBindingEN29Wrapper_LightColorTemperature13SetFloatValueEPvf
eS:__ZNK5Unity4Type21FindAllDerivedClassesER13dynamic_arrayIPKS0_Lj4EENS0_17TypeFilterOptionsE
ZS:__ZN13RuntimeStaticI15GUIEventManagerLb0EE16StaticInitializeEPv
ele:_DaylightTime_get_Delta_m2316831491
Btd:__ZN15RaycastCallback14processTouchesEPKN5physx12PxRaycastHitEj
HWf:_WaitHandle_WaitOne_m370363697
j6e:_FactoryCache_Lookup_m1681894361
hbe:_DateTime_Subtract_m698282245_AdjustorThunk
vnd:__ZN5physx2Gu5RTree15exportExtraDataERNS_22PxSerializationContextE
gCa:__ZN19ShaderPropertySheet9SetMatrixEN9ShaderLab16FastPropertyNameERK10Matrix4x4fNS_8SetFlagsE
KFd:_RIPEMD160Managed_Initialize_m3365407578
P8a:__Z29GetTextureSizeAllowedMultiple13TextureFormat
V$e:_IPAddress_HostToNetworkOrder_m1092199707
L0c:__ZNK5physx2Sq10AABBPruner7overlapERKNS0_9ShapeDataERNS0_14PrunerCallbackE
nKd:_SecurityAttribute__ctor_m3425755778
oBh:_il2cpp_array_element_size
WRc:__ZN5physx6shdfnd5ArrayIPvNS0_19ReflectionAllocatorINS_2Gu30LargePersistentContactManifoldEEEE4copyINS0_15InlineAllocatorILj256ES6_EEEEvRKNS1_IS2_T_EE
Rf:_glCheckFramebufferStatus
pDf:_InternalEnumerator_1_System_Collections_IEnumerator_get_Current_m790514740_AdjustorThunk
Nid:__ZN5physx2Cm12DelegateTaskINS_2Sc5SceneEXadL_ZNS3_19updateCCDSinglePassEPNS_10PxBaseTaskEEEE11runInternalEv
$dc:__ZN5physx6string9sprintf_sEPcjPKcz
pqd:__ZThn8_N5physx19TriangleMeshBuilderD1Ev
NPd:__Z37il2cpp_codegen_get_executing_assemblyPK10MethodInfo
e7b:__ZN5physx2Gu16intersectRayAABBERKNS_6PxVec3ES3_S3_S3_RfS4_
MGb:__ZN9Transform23VirtualRedirectTransferER17RemapPPtrTransfer
uNf:_Array_InternalArray__IndexOf_TisByte_t3683104436_m3605266236_gshared
lMb:__ZZL23RegisterLightPropertiesR22GenericPropertyBindingEN22Wrapper_LightIntensity13GetFloatValueEPv
rMd:_UnicodeEncoding__ctor_m72484327
vgd:__ZN5physx30setupFinalizeSolverConstraintsERNS_13PxcNpWorkUnitERKNS_2Gu13ContactBufferERKNS_20PxcCorrelationBufferERKNS_11PxTransformESB_bPhRKNS_13PxcSolverBodyESF_RKNS_17PxcSolverBodyDataESI_ffffff
_Rh:__ZN14dense_hash_mapI10KeyWrapperIP14Il2CppIUnknownEjN6il2cpp5utils11PointerHashIS1_EENS3_14EqualsComparerINSt3__28equal_toIS2_EEEENS9_9allocatorINS9_4pairIKS3_jEEEEE15set_deleted_keyERSF_
Ixc:__ZN5physx7NpScene17releaseBatchQueryEPNS_12PxBatchQueryE
Ofd:__ZN5physx26solveVBlockDefaultFrictionEPNS_13PxsSolverCoreEfjjPNS_13PxcSolverBodyEPNS_17PxcSolverBodyDataEjjPNS_25PxcArticulationSolverDescEjPNS_23PxcSolverConstraintDescEjS9_jRNS_6shdfnd5ArrayINS_24PxsConstraintBatchHeaderENSA_19ReflectionAllocatorISC_EEEESG_PNS_2Cm13SpatialVectorEPNS_25PxcThresholdStreamElementEjRj
xTe:_ClientSessionInfo_SetContext_m2649357891
Foe:_Int32_System_IConvertible_ToInt64_m3790029067_AdjustorThunk
KYe:_SslStreamBase_InternalReadCallback_m2524917586
HR:__ZN8Remapper6RemoveEi
eKg:_List_1_CheckCollection_m2608305187_gshared
W4c:__ZN5physx11writeBack1DERKNS_23PxcSolverConstraintDescERNS_16PxcSolverContextERNS_17PxcSolverBodyDataES6_
G2b:__ZThn4_N16RayRTreeCallbackILi0ELb0EED0Ev
ROa:__ZN15ReflectionProbe17UseRendererResultEP13ProbeRenderer
AUd:_Array_BinarySearch_m3270245097
tse:_MonoIO_DeleteFile_m3273821223
FDe:_BigInteger_GenerateRandom_m2507308768
Z9d:_DateTime_System_IConvertible_ToDouble_m1431748426_AdjustorThunk
eLf:_Array_InternalArray__ICollection_Contains_TisUInt16_t986882611_m510319131_gshared
xde:_Decimal_ToString_m541380585
FBh:_il2cpp_class_is_valuetype
cDd:__ZZN18UnityConnectClient23RegisterGlobalCallbacksEvEN41EarlyUpdateUnityConnectClientUpdatestruct7ForwardEv
MNh:__ZN6il2cpp2vm4Type7GetTypeEPK10Il2CppType
R$c:__ZN5physx2Gu17GetGeomSweepFuncsEv
Flc:__ZN5physx6shdfnd8PoolBaseINS_15PxsArticulationENS0_16AlignedAllocatorILj64ENS0_9AllocatorEEEE17releaseEmptySlabsEv
Age:_Enum_ToObject_m2601523252
KIf:_Dictionary_2_CopyToCheck_m2147716750_gshared
xFa:__Z20RenderSceneDepthPassRK19SharedRendererSceneRK17ShaderReplaceDatabR17ShaderPassContext
jNa:__Z40ProcessCameraIndexListIsNodeVisibleInOutRK22SceneCullingParametersPK9SceneNodePK4AABBR9IndexList
q4a:__ZN16GraphicsSettings8TransferI17RemapPPtrTransferEEvRT_
Bve:_StreamReader__ctor_m2654332332
Khi:_glGetShaderInfoLog__wrapper
IIg:_List_1_CheckCollection_m3968030679_gshared
BCc:__ZN5physx2Gu5Debug9visualizeERKNS_13PxBoxGeometryERNS_2Cm12RenderOutputERKNS5_8Matrix34ERKNS_9PxBounds3Eyfj
vSd:_StringBuilder_ToString_m617673931
b1b:__ZN5physx6shdfnd5ArrayIPKvNS0_19ReflectionAllocatorIS3_EEE6resizeEjRKS3_
UAd:__ZN11UnityEngine7Connect13ConfigHandler12GetListenersERKN4core12basic_stringIcNS2_20StringStorageDefaultIcEEEE
xfa:__ZN9GfxDevice18AllocRenderSurfaceEb
Bgd:__ZN5physx31setupFinalizeSolverConstraints4EPNS_21PxcSolverContact4DescERNS_18PxcNpThreadContextEPhffRKNS_6shdfnd3aos5Vec4VES9_S9_S9_
iUc:__ZN5physx7NpScene5flushEb
kwg:_AnchorInfo_get_IsComplete_m1247624133
EK:__ZL27CleanupCoreScriptingClassesv
fsh:__ZNSt3__27__sort3IRN6il2cpp5utils11collections13ArrayValueMapIPK10Il2CppType17Il2CppInteropData26InteropDataToTypeConverterNS1_8metadata14Il2CppTypeLessENSA_26Il2CppTypeEqualityComparerEE12SortComparerEPS8_EEjT0_SH_SH_T_
CPg:_UnityAction_1_Invoke_m2563101999_gshared
wTb:__Z26AnimationCurve_CUSTOM_InitP12Il2CppObjectP11Il2CppArray
jli:_glUniform1uiv__wrapper
oHh:__ZN6il2cpp2vm10Reflection7IsEventEP12Il2CppObject
oO:__ZN17PersistentManager26GetStreamNameSpaceInternalEi
ZJa:__ZN14qsort_internal5QSortIP21ForwardRenderPassDataiN23ForwardShaderRenderLoop18RenderObjectSorterILb0EEEEEvT_S6_T0_T1_
tih:_Object_Destroy_m4145850038
aOh:__ZN6il2cpp2vm4Type14IsSystemDBNullEPK10Il2CppType
Qud:__ZThn128_N5physx7profile8ZoneImplINS_28PxProfileNameProviderForwardEED1Ev
IM:__ZN9ShaderLab19CommonPropertyNames13StaticCleanupEPv
wP:__Z31scripting_method_get_returntype18ScriptingMethodPtr
f1c:__ZN5physx2Sq17AABBTreeUpdateMap10invalidateEjjRNS0_8AABBTreeE
Y9a:__ZN15SerializeTraitsI12LightmapDataE8TransferI24GenerateTypeTreeTransferEEvRS0_RT_
Xza:_unity_z_zcfree
Qfd:__ZN5physx28solveParallelDefaultFrictionERNS_18PxsDynamicsContextEjjPNS_13PxcSolverBodyEPNS_17PxcSolverBodyDataEjjPNS_25PxcArticulationSolverDescEjPNS_23PxcSolverConstraintDescEjS9_jPiSA_SA_SA_SA_SA_PNS_25PxcThresholdStreamElementEjSA_PNS_2Cm13SpatialVectorEPKPNS_11PxsBodyCoreERNSD_10BitMapBaseINS_6shdfnd9AllocatorEEEPKPNS_15PxsArticulationEjPViRNSL_5ArrayINS_24PxsConstraintBatchHeaderENSL_19ReflectionAllocatorISW_EEEES10_RNSV_IjNSX_IjEEEES13_PPNS_12PxsRigidBodyEj
Qhi:_glStencilOpSeparate__wrapper
Q7:__ZN7Texture13SetAnisoLimitENS_20AnisotropicFilteringE
f8:__ZN28LightProbeProxyVolumeManager25UpdateSHCoeffsTextureDataER21LightProbeProxyVolume
uta:__Z18CreateDecompressor15CompressionType18MemLabelIdentifier
dz:__ZN11AudioModule16SetListenerPauseEb
Jh:_emscripten_glCompressedTexSubImage2D
Nna:__ZN13GfxDeviceGLES22MemoryBarrierImmediateEyN2gl17MemoryBarrierTypeE
Fl:_abort
kRh:__ZN6il2cpp6icalls8mscorlib6System4Type18internal_from_nameEP12Il2CppStringbb
o5:__ZN6prcoreL26RemapGenericFloatToIntegerI18TexFormatARGBFloat17TexFormatARGB8888EEvPKNS_9InnerInfoE
P$h:__ZN6il2cpp6icalls8mscorlib6System10Reflection9MonoField16GetValueInternalEP21Il2CppReflectionFieldP12Il2CppObject
S1e:_AsnEncodedData_NetscapeCertType_m2899239452
uqd:__ZN5physx15writeWordBufferEPKtjbRNS_14PxOutputStreamE
I0h:_GC_write
Vtg:_PatternCompiler_EmitPosition_m3013268572
I5e:_X509SubjectKeyIdentifierExtension__ctor_m1109455121
R_b:__Z29Transfer_Blittable_ArrayFieldI8JSONRead10ColorRGBAfEvRT_R9ArrayInfoRK23StaticTransferFieldInfo
eYh:__GLOBAL__sub_I_ThreadImpl_cpp
rwb:__Z18Transfer_BlittableI18StreamedBinaryReadILb1EELb1EiEvRK29SerializationCommandArgumentsR31RuntimeSerializationCommandInfo
fJd:_TripleDES_IsWeakKey_m483013953
Z2e:_X509Certificate2_get_PrivateKey_m2662162956
dGh:__ZN15dense_hashtableINSt3__24pairIK10KeyWrapperINS1_IPK12PropertyInfoP11Il2CppClassEEEjEES9_17ReflectionMapHashIS8_EN14dense_hash_mapIS9_jSD_NS9_14EqualsComparerINS0_8equal_toIS8_EEEENS0_9allocatorISB_EEE9SelectKeyESI_SK_E12maybe_shrinkEv
sjc:__ZN5physx2Sc7BodySim37checkSleepReadinessBesidesWakeCounterEv
Jwb:__Z18Transfer_BlittableI18StreamedBinaryReadILb1EELb1EsEvRK29SerializationCommandArgumentsR31RuntimeSerializationCommandInfo
eNd:_Single_System_IConvertible_ToSByte_m3757385387
tte:_StreamAsyncResult_SetComplete_m2141125667
V7:__ZL21SetAnisoLimitEnumImplN7Texture20AnisotropicFilteringEb
vzd:__ZN22BaseUnityConnectClient17OnEnterStateReadyEv
sRc:__ZN5physx2Sc10NPhaseCore24createTriggerInteractionERNS0_8ShapeSimES3_NS_7PxFlagsINS_10PxPairFlag4EnumEtEE
HI:__GLOBAL__sub_I_platformdependent_webgl_source_lump_cpp
T1b:__ZN5physx2Gu9ContainerD2Ev
BPe:_EncryptedPrivateKeyInfo_get_EncryptedData_m598672214
J3b:__ZN5physx2Gu12selectNormalEhff
SAh:__ZN6il2cpp6icalls8mscorlib6System8MonoType16InternalGetEventEP20Il2CppReflectionTypeP12Il2CppStringi
aVf:_Interlocked_CompareExchange_m3339239614
AYh:__ZN6il2cpp2osL23CleanupThreadIfCanceledEPv
HKc:__ZN5physx3Scb14ParticleSystem16releaseParticlesEjRKNS_16PxStrideIteratorIKjEE
hM:__ZN19ShaderPropertySheet11ComputeHashEv
Rrh:__ZN30dense_hashtable_const_iteratorI10KeyWrapperIPK19Il2CppGenericMethodES4_N6il2cpp8metadata23Il2CppGenericMethodHashEN14dense_hash_setIS4_S7_NS4_14EqualsComparerINS6_26Il2CppGenericMethodCompareEEENSt3__29allocatorIS4_EEE8IdentityESB_SE_EppEv
sXc:__ZN5physx2Sc5Scene21processLostTouchPairsEv
Ei:_llvm_fabs_f32
ZB:__ZN11UnityEngine15CloudWebService16SessionContainer16GetJsonDataBlockEjRKN4core12basic_stringIcNS2_20StringStorageDefaultIcEEEERS6_PjSA_
J9c:__ZN5physx22PxcContactConvexConvexERKNS_2Gu13GeometryUnionES3_RKNS_11PxTransformES6_RKfRNS_10PxcNpCacheERNS0_13ContactBufferE
$2b:__ZNK5physx2Gu11ConvexHullV12HillClimbingERKNS_6shdfnd3aos5Vec3VE
fCe:_SimpleCollator__cctor_m2693747668
qde:_Decimal_CompareTo_m2454501434_AdjustorThunk
DO:__ZN14SafeBinaryReadD2Ev
DZf:_UInt16_System_IConvertible_ToChar_m4055364664
vKc:__ZN5physx2Sc18ParticleSystemCore10setDampingEf
lIb:__Z13RegisterClassI7TextureEvv
Qxb:__ZN8Gradient8TransferI18StreamedBinaryReadILb1EEEEvRT_
cgc:__ZN5physx2Sc10NPhaseCore16deleteFilterPairEPNS0_10FilterPairE
i$f:_UInt32_ToString_m554020223_AdjustorThunk
twd:_PxCreateBasePhysics
dj:_SDL_PauseAudio
KBh:_il2cpp_class_from_type
gVd:_Array_Sort_m2323017822
sLh:__ZN6il2cpp2os4File11GetStdErrorEv
ckc:__ZN5physx2Sc5Scene28addActiveBreakableConstraintEPNS0_13ConstraintSimE
HM:__ZN9ShaderLab19CommonPropertyNames16StaticInitializeEPv
bzc:__ZN5physx6shdfnd8PoolBaseINS_16NpParticleSystemENS0_19ReflectionAllocatorIS2_EEE15disposeElementsEv
_xe:_MissingMemberException__ctor_m3710131950
kvd:__ZN5physx7profile11EventBufferINS_24PxDefaultContextProviderENS_6shdfnd6MutexTINS0_26WrapperReflectionAllocatorIhEEEENS0_14ScopedLockImplIS7_EENS_24PxProfileNullEventFilterEE10eventValueEtyx
xgf:_CspParameters__ctor_m2546931874
a7b:__ZN5physx2Gu11getBoxEdgesEv
rdb:__ZN14Texture2DArray23VirtualRedirectTransferER14SafeBinaryRead
mIa:__ZNK6Camera21CalculateCanDoShadowsEv
SVc:__ZNK5physx2Sc5Scene17getBroadPhaseCapsERNS_16PxBroadPhaseCapsE
Qvc:__ZN5physx9NpFactory14onActorReleaseEPNS_7PxActorE
d_h:__ZN6il2cpp2os6Thread12SetStackSizeEj
t3e:_X509ChainElementEnumerator_get_Current_m2232618221
emc:__ZN5physx2Sc5Actor15onElementAttachERNS0_7ElementE
Akb:__ZNK20ArchiveStorageReader15HasStreamBlocksEv
iI:__Z13VFormatBufferPciPKcz
gKc:__ZN5physx2Sc18ParticleSystemCore23setSimulationFilterDataERKNS_12PxFilterDataE
Iyb:__Z18Transfer_BlittableI18StreamedBinaryReadILb0EELb1EhEvRK29SerializationCommandArgumentsR31RuntimeSerializationCommandInfo
sOg:_U3CCreateWhereIteratorU3Ec__Iterator1D_1_Dispose_m1879652802_gshared
s_f:_UInt16_ToString_m3280699191
s5:__ZN6prcoreL27StretchGenericFloatBilinearI15TexFormatRFloatEEvPKNS_9InnerInfoE
$$c:__ZN5physx6shdfnd8internal8HashBaseINS0_4PairIKNS_2Sq13PrunerPayloadEjEES5_NS0_4HashIS5_EENS1_11HashMapBaseIS5_jS9_NS0_9AllocatorEE6GetKeyESB_Lb1EE15reserveInternalEj
OVg:__Z130RuntimeInvoker_Int32_t2071877448_Il2CppObject_Int32_t2071877448_Int32_t2071877448_Il2CppObject_Int32_t2071877448_Int32_t2071877448PK10MethodInfoPvPS2_
Q_g:__Z102RuntimeInvoker_Il2CppObject_Int32_t2071877448_Int32_t2071877448_Il2CppObject_Il2CppObject_Il2CppObjectPK10MethodInfoPvPS2_
nNf:_Array_IndexOf_TisCustomAttributeNamedArgument_t94157543_m745056346_gshared
Yla:__Z14PadImageBorderR14ImageReferenceii
IEh:__ZN15dense_hashtableINSt3__24pairIK10KeyWrapperINS1_IPK10MethodInfoP11Il2CppClassEEEjEES9_17ReflectionMapHashIS8_EN14dense_hash_mapIS9_jSD_NS9_14EqualsComparerINS0_8equal_toIS8_EEEENS0_9allocatorISB_EEE9SelectKeyESI_SK_E4findERSA_
$uh:__ZN6il2cpp2vm13MetadataCache28GetFieldDefaultValueForFieldEPK9FieldInfo
tvf:_ArrayReadOnlyList_1_ReadOnlyError_m2289309720_gshared
dzh:__ZN6il2cpp2vm8basepathEPKc
M3c:__ZN5physx2Gu22gjkRelativePenetrationINS0_9TriangleVENS0_8CapsuleVEEEjRKT_RKT0_RKNS_6shdfnd3aos15PsMatTransformVERKNSB_6FloatVERNSB_5Vec3VESJ_SJ_RSF_PhSL_Rh
Lrd:__ZN9Rigidbody14SetIsKinematicEb
hu:__ZN12AudioManager39HandlePendingAudioConfigurationCallbackEv
oLg:_Collection_1_System_Collections_IList_Contains_m323652826_gshared
ak:_emscripten_glIsFramebuffer
Moa:__ZNK13TranslateGLES9GetFormatE13TextureFormat17TextureColorSpace
j8d:_Convert_ToInt64_m954367741
ek:_JS_Sound_SetLoopPoints
c_d:_ArrayList__ctor_m1467563650
_x:__ZN12AudioManager17ShouldSourcePauseEb
u5h:__ZN6il2cpp2vm26MetadataAllocGenericMethodEv
oqa:__ZN19ConstantBuffersGLES12RecordRenderEv
D$c:__ZN5physx13ActorAABBTaskD2Ev
faa:__ZN18AsyncUploadManager22UploadStreamingTextureEP28FileTextureUploadInstruction
BXb:__ZN9JSONWrite8TransferI10RectOffsetEEvRT_PKc17TransferMetaFlags
Ela:__ZN4crnd12symbol_codec11decode_bitsEj
$5a:__ZN10Matrix3x4f8TransferI24GenerateTypeTreeTransferEEvRT_
mu:__ZN4FMOD6System12createReverbEPPNS_6ReverbE
B6:__Z16MarkDependenciesR27GarbageCollectorThreadStatej
k5e:_X509ChainElementEnumerator_Reset_m3832280427
gAe:_MulticastDelegate_RemoveImpl_m2024746777
aAe:_MulticastDelegate_Equals_m3064081489
qLe:_Activator_CreateInstance_m1465989661
CM:__ZNK9Transform11GetPositionEv
VCa:__ZN23SharedMeshRenderingData18UnloadVertexStreamEi
Vcc:__ZN5physx3Cct13HandleManager3AddEPv
TRg:_PKCS12_Encrypt_m2154408631
CMb:__ZN19RenderEventsContextC2Ei
gA:__Z6simd4fRKf
Hk:_emscripten_glEnable
KWh:__ZN6il2cpp2gc16GarbageCollector29RegisterFinalizerForNewObjectEP12Il2CppObject
x1a:__ZN10TagManager23VirtualRedirectTransferER14SafeBinaryRead
Ukd:__ZNK5physx2Sc15ClothFabricCore9getNbSetsEv
cLa:__Z15InitLightMeshesv
Kgg:__ZL97WaitHandle_t677569169_CustomAttributesCacheGenerator_WaitHandle_t677569169____Handle_PropertyInfoP21CustomAttributesCache
ZUc:__ZNK5physx7NpScene26getNbContactDataBlocksUsedEv
on:FUNCTION_TABLE_iifiii
F8b:__ZN5physx2Gu29computeCapsule_HeightFieldMTDERKNS_21PxHeightFieldGeometryERKNS_11PxTransformERNS0_8CapsuleVEffbjRNS_10PxSweepHitE
lmd:__ZN5physx2Gu11HeightField15exportExtraDataERNS_22PxSerializationContextE
GBa:__ZN22RenderingCommandBuffer36AcquireAndRegisterSharedMaterialDataEP8Material
Vub:__Z18Transfer_BlittableI19StreamedBinaryWriteILb0EELb1E8Vector2fEvRK29SerializationCommandArgumentsR31RuntimeSerializationCommandInfo
Aag:__ZL65ClassInterfaceAttribute_t910653559_CustomAttributesCacheGeneratorP21CustomAttributesCache
UF:__Z15CleanLogHandler7LogTypePKcz
sEb:__ZN9ShaderLab19SerializedSubShader8TransferI19StreamedBinaryWriteILb0EEEEvRT_
cBc:__ZN5physx10NpMaterialC2ERKNS_2Sc12MaterialCoreE
Ecd:__ZN5physx9PxTaskMgr10resolveRowEjb
Imb:__ZN6Camera17RemoveImageFilterERK11ImageFilter
nna:__ZNSt3__218__insertion_sort_3IR25ValueParameterArraySorterPN20GpuProgramParameters14ValueParameterEEEvT0_S6_T_
O0d:_CaseInsensitiveHashCodeProvider_AreEqual_m2456617355
W0e:_WebHeaderCollection__ctor_m4088938710
CCa:__ZNSt3__214__split_bufferI20ComputeShaderVariantRNS_9allocatorIS1_EEED2Ev
VTe:_Context_set_WriteSequenceNumber_m3356252710
Ome:_Guid_Equals_m2389236871
XM:__Z27LogRepeatingStringWithFlagsRKN4core12basic_stringIcNS_20StringStorageDefaultIcEEEE15LogMessageFlagsi
W5b:__ZN5physx2Gu16_gjkLocalRayCastINS0_9TriangleVENS0_11ConvexHullVEEEbRT_RT0_RKNS_6shdfnd3aos6FloatVERKNS9_5Vec3VESF_RSA_RSD_SH_f
nkc:__ZN5physx6shdfnd8PoolBaseINS_2Cm5BlockIPvLj32EEENS0_19ReflectionAllocatorIS5_EEE17releaseEmptySlabsEv
R5c:__ZN5physx23PxsBroadPhaseContextSap21batchUpdateFewUpdatesEjRPNS_17PxcBroadPhasePairERjS4_
k9b:__ZN5physx3Cct17getSceneTimestampEPKNS0_30InternalCBData_FindTouchedGeomE
Gib:__ZN15ResourceManagerD0Ev
pTb:__Z41Register_UnityEngine_Input_GetMouseButtonv
Uih:_Physics_Raycast_m2874007225
DBd:__ZN18UnityConnectClient33OnPlayerSessionStateChangedStaticEPS_jyy
I6f:__ZL74CaseInsensitiveHashCodeProvider_t2307530285_CustomAttributesCacheGeneratorP21CustomAttributesCache
wwf:_InternalEnumerator_1_get_Current_m1943362081_gshared
Pia:__ZN7ApiGLES4LoadE16GfxDeviceLevelGL
jab:__ZN18StreamedBinaryReadILb0EE21TransferSTLStyleArrayI13dynamic_arrayI31EnlightenSystemAtlasInformationLj8EEEEvRT_17TransferMetaFlags
lAc:__ZN5physx9NpPhysics15createAggregateEjb
xla:__ZN4crnd12crn_unpacker22decode_color_endpointsEv
uTh:__ZN15dense_hashtableI10KeyWrapperIP18Il2CppGenericClassES3_N6il2cpp8metadata22Il2CppGenericClassHashEN14dense_hash_setIS3_S6_NS3_14EqualsComparerINS5_25Il2CppGenericClassCompareEEENSt3__29allocatorIS3_EEE8IdentityESA_SD_E15insert_noresizeERKS3_
JNg:_ReadOnlyCollection_1_System_Collections_IList_Clear_m3006875897_gshared
_Kb:__ZZL31RegisterOtherRendererPropertiesR22GenericPropertyBindingEN30Wrapper_RendererReceiveShadows13GetFloatValueEPv
bjh:_Physics_Raycast_m2994111303
IX:__ZN8Material11SetPassFastEPN9ShaderLab4PassER17ShaderPassContextP6Shaderib
BBd:__ZN11UnityEngine7Connect20BasePersistentValues10SaveValuesER9JSONWrite
vcd:__ZN5physx9PxTaskMgr12addReferenceEj
I4e:_X509CertificateEnumerator_System_Collections_IEnumerator_MoveNext_m3708362145
bFa:__Z12SetupLODFadeR9GfxDeviceR17ShaderPassContextf
dSg:_X501_ToString_m3328169518
RKa:__ZL24CollectForwardObjectsJobP27CollectForwardObjectsHeader
Nje:_NumberFormatter_FormatCustom_m3288822873
iOa:__ZNK25CameraStackRenderingState24ResolveTempToEyeTexturesEv
JMa:__Z13IsNodeVisibleRK9SceneNodeRK4AABBRK22SceneCullingParameters
Wbf:_DelayedFixupRecord_FixupImpl_m4249966635
hni:_emscripten_glStencilMask__wrapper
Hrh:__ZN15dense_hashtableI10KeyWrapperIPK19Il2CppGenericMethodES4_N6il2cpp8metadata23Il2CppGenericMethodHashEN14dense_hash_setIS4_S7_NS4_14EqualsComparerINS6_26Il2CppGenericMethodCompareEEENSt3__29allocatorIS4_EEE8IdentityESB_SE_EC2ERKSH_j
KP:__ZN11TypeManager19ClassNameToTypeInfoEPKcb
RDe:_BigInteger_ToString_m3837784224
BBa:__ZN15RenderNodeQueue7CleanupEv
lec:__ZN16NovodexAllocator8allocateEjPKcS1_i
qKa:__Z17PrepareShadowMapsRK11CullResultsRK11ActiveLightRK10MinMaxAABB
OUf:_NativeEventCalls_CreateEvent_internal_m1605829321
BAf:_InternalEnumerator_1_System_Collections_IEnumerator_get_Current_m3239681450_AdjustorThunk
OKa:__ZN9ShaderLab10GrabPassesD2Ev
Ohh:_MonoBehaviour_set_useGUILayout_m2666356651
Cdb:__ZN14Texture2DArray13UploadTextureEv
q7:__ZN18AwakeFromLoadQueue25RegisterObjectInstanceIDsEv
xXd:_Buffer_BlockCopy_m1586717258
zdg:__ZL93X509Certificate_t283079845_CustomAttributesCacheGenerator_X509Certificate_GetName_m2354987368P21CustomAttributesCache
KVc:__ZN5physx2Sc5Scene22removeBroadPhaseRegionEj
My:__ZN13ProduceHelperI13AudioListenerLb0EE7ProduceE18MemLabelIdentifier18ObjectCreationMode
ldc:__ZN5physx2Cm12RenderBuffer5clearEv
jie:_CompareInfo_GetSortKey_m3691382873
wHc:__ZNK5physx2Sc9ClothCore21getStiffnessFrequencyEv
kce:_DBNull_ToString_m3228904745
H3g:__Z80RuntimeInvoker_Void_t1841601450_Int32_t2071877448_Int32_t2071877448_Il2CppObjectPK10MethodInfoPvPS2_
a2c:__ZN5physx13PxsCCDContext14postCCDAdvanceEPNS_10PxBaseTaskE
NPe:_RC4_get_IV_m506011366
mTg:_X509Crl__ctor_m2469408229
O5e:_X509SubjectKeyIdentifierExtension_CopyFrom_m136762226
cHg:_Enumerator_System_Collections_IEnumerator_Reset_m610822832_AdjustorThunk
bRh:__ZN6il2cpp6icalls8mscorlib6System2IO6MonoIO20GetFileSystemEntriesEP12Il2CppStringS6_iiPi
TTb:__Z41MonoBehaviour_Set_Custom_PropUseGUILayoutP12Il2CppObjecth
cji:_glGenRenderbuffers__wrapper
MEe:_BigInteger_op_Division_m1581119694
hdf:_CallbackHandler_Invoke_m1498072969
chf:_DSACryptoServiceProvider__ctor_m701823690
q8c:__ZNK5physx10BPWorkTask7getNameEv
akf:_CustomAttributeData_GetCustomAttributes_m2421330738
wwc:__ZN5physx2Sc8ShapeSim16onResetFilteringEv
CUh:__ZN30dense_hashtable_const_iteratorINSt3__24pairIK10KeyWrapperINS1_IPKcS4_EEEiEES6_24NamespaceAndNamePairHashN14dense_hash_mapIS6_iS9_NS6_14EqualsComparerI26NamespaceAndNamePairEqualsEENS0_9allocatorIS8_EEE9SelectKeyESD_SF_EppEv
nYf:_Type_get_IsEnum_m313908919
FSb:__Z44Register_UnityEngine_Component_get_transformv
nta:__ZN17ArchiveFileSystem12MountArchiveEPKcS1_
LWb:__Z18Transfer_BlittableI9JSONWriteLb1E8Vector4fEvRK29SerializationCommandArgumentsR31RuntimeSerializationCommandInfo
IK:__Z11RequireTypePKcS0_S0_
GEf:_Enumerator_System_Collections_IEnumerator_Reset_m70453843_gshared
Pab:__ZThn32_NK8Renderer14GetSubsetIndexEi
OJb:__ZN13ProduceHelperI15ResourceManagerLb0EE7ProduceE18MemLabelIdentifier18ObjectCreationMode
mga:__ZN9GfxDevice15ImmediateVertexEfff
VHb:__Z13RegisterClassI8MaterialEvv
vNc:__ZN5physx14NpRigidDynamic10clearForceENS_11PxForceMode4EnumE
phe:_FieldAccessException__ctor_m3893881490
$da:__ZN13GfxDeviceGLES15SetStencilStateEPK18DeviceStencilStatei
yd:_emscripten_glUniform1iv
VNd:_String_System_IConvertible_ToDouble_m3860911722
xVa:__ZN16MemoryFileSystemD2Ev
wDb:__ZN9ShaderLab18SerializedPropertyD2Ev
xwf:_InternalEnumerator_1_System_Collections_IEnumerator_get_Current_m1931522460_AdjustorThunk
jKd:_SecurityPermission_IsEmpty_m1869313067
B4e:_X509CertificateCollection__ctor_m3709509050
cTc:__ZN5physx7NpSceneD2Ev
ZHe:_EncryptedPrivateKeyInfo_get_Salt_m2734354394
iTh:__ZNK15dense_hashtableI10KeyWrapperIP18Il2CppGenericClassES3_N6il2cpp8metadata22Il2CppGenericClassHashEN14dense_hash_setIS3_S6_NS3_14EqualsComparerINS5_25Il2CppGenericClassCompareEEENSt3__29allocatorIS3_EEE8IdentityESA_SD_E10test_emptyERK30dense_hashtable_const_iteratorIS3_S3_S6_SF_SA_SD_E
XXh:__ZN6il2cpp2os5posix15PosixWaitObject4WaitEjb
x7c:__ZNK5physx16PxsBroadPhaseMBP18getNumDeletedPairsEv
mud:__ZN5physx7profile8ZoneImplINS_28PxProfileNameProviderForwardEE10startEventEty
yV:__ZN15dense_hashtableINSt3__24pairIKPKcPK4RTTIEES3_N11TypeManager23ConstCharPtrHashFunctorEN14dense_hash_mapIS3_S7_SA_NS9_19ConstCharPtrEqualToE13stl_allocatorIS8_L18MemLabelIdentifier6ELi16EEE9SelectKeyESC_SF_E12resize_deltaEjj
u2c:__ZN5physx10PxsCCDPair17sweepAdvanceToToiEfb
iVa:__Z23ConvertIntegerToTypePtrItEbPvR14SafeBinaryRead
Pd:_emscripten_glStencilFunc
b$g:__Z101RuntimeInvoker_Void_t1841601450_Il2CppObject_Il2CppObject_Il2CppObject_Il2CppObject_Int32_t2071877448PK10MethodInfoPvPS2_
yvc:__ZN5physx6shdfnd8PoolBaseINS_2Cm5BlockIhLj384EEENS0_19ReflectionAllocatorIS4_EEE17releaseEmptySlabsEv
vid:__ZN5physx16PxsIslandManager11freeBuffersEv
osf:_MonoMethod_MakeGenericMethod_impl_m2063853616
hoc:__ZN5physx2Cm12DelegateTaskINS_2Sc17ParticleSystemSimEXadL_ZNS3_21prepareCollisionInputEPNS_10PxBaseTaskEEEE11runInternalEv
kMd:__Z46il2cpp_codegen_get_marshal_directive_exceptionPKc
uFb:__ZN9ShaderLab20SerializedSubProgram14AddMatrixParamEPKcii15ShaderParamTypei
Vd:_glGetActiveUniformBlockName
Wme:_Guid_AppendByte_m2890893073
JYd:_Char_System_IConvertible_ToType_m3106771703_AdjustorThunk
P7e:_Interval_Intersects_m3480157390_AdjustorThunk
Ruh:__ZN6il2cpp2vm13MetadataCache28GetGenericContainerFromIndexEi
$zg:_GCHandle_Alloc_m1063472408
ev:__ZN4FMOD7Channel20set3DConeOrientationEP11FMOD_VECTOR
bn:FUNCTION_TABLE_iiifii
kgf:_CryptoConfig_CreateFromName_m391442950
STh:__ZN6il2cpp2vm12GenericClass11SetupEventsEP11Il2CppClass
_5:__ZN19RuntimeSceneManager18LoadSceneAsyncIntoER10UnitySceneRKN4core12basic_stringIcNS2_20StringStorageDefaultIcEEEENS_11LoadingModeEb
u3d:_SortedList__ctor_m3698381356
BSh:__ZN6il2cpp2vm15ReboxIReferenceEP14Il2CppIUnknownP11Il2CppClass
ewe:_StreamWriter_LowLevelWrite_m4205372900
_mh:__ZN6il2cpp6icalls8mscorlib6System7Decimal14decimalCompareEP19il2cpp_decimal_reprS5_
G4h:__ZThn4_N6il2cpp2vm13CachedCCWBaseINS0_13ManagedObjectEE7ReleaseEv
Gqc:__ZN5physx26PxcFsComputeJointLoadsSimdERKNS_9PxcFsDataEPKNS_12PxcFsInertiaEPNS_6shdfnd3aos6Mat33VEPKfjjNS_21PxcFsScratchAllocatorE
c1d:_CollectionBase_System_Collections_IList_get_Item_m2370387510
nQc:__ZN5physx6shdfnd8SyncImpl7getSizeEv
fki:_glCopyTexImage2D__wrapper
Lch:_Camera_FireOnPreCull_m1679634170
V2:__Z18ClearByDrawingQuad13GfxClearFlagsRK10ColorRGBAffjR17ShaderPassContext
KCg:_DynamicPropertyCollection_FindProperty_m1233265924
Q4:__ZN6prcoreL17RemapGenericFloatI14TexFormatRHalf15TexFormatRFloatEEvPKNS_9InnerInfoE
QEa:__Z16ShouldUseShadowsb
VJ:__ZN15DirectorManager21RebuildStageCallbacksEv
nn:FUNCTION_TABLE_iifff
Q5:__ZN19RuntimeSceneManager9LoadSceneERKN4core12basic_stringIcNS0_20StringStorageDefaultIcEEEES6_S6_RK9UnityGUIDiNS_11LoadingModeE
qma:__ZN7ApiGLES10DrawArraysE16GfxPrimitiveTypejjj
Ns:__ZN10SampleClip13LoadBaseSoundEv
E6b:__ZN5physx2Gu22gjkRelativePenetrationINS0_17ShrunkConvexHullVES2_EEjRKT_RKT0_RKNS_6shdfnd3aos15PsMatTransformVERKNSA_6FloatVERNSA_5Vec3VESI_SI_RSE_PhSK_Rh
BZg:__Z62RuntimeInvoker_Il2CppObject_Int32_t2071877448_SByte_t454417549PK10MethodInfoPvPS2_
YWh:__ZN15dense_hashtableINSt3__24pairIK10KeyWrapperIP12Il2CppObjectEN6il2cpp2gc9CachedCCWEEES5_NS7_5utils11PointerHashIS3_EEN14dense_hash_mapIS5_S9_SD_NS5_14EqualsComparerINS0_8equal_toIS4_EEEENS0_9allocatorISA_EEE9SelectKeyESI_SK_E15insert_noresizeERKSA_
tjd:__ZN5physx2Sc19ParticlePacketShapeC2ERNS0_17ParticleSystemSimEjPNS_16PxvParticleShapeE
U2:__ZN22DeviceMVPMatricesStateC2ER9GfxDevice
Qvg:_Regex_IsMatch_m1286520424
nAc:__ZN5physx9NpPhysics18createTriangleMeshERNS_13PxInputStreamE
qn:FUNCTION_TABLE_iiiiifiiiif
NNd:_String__ctor_m372528291
FEa:__ZNK6Camera32ResolveLastTargetToCurrentTargetEv
$6:__ZNSt3__26__treeIiNS_4lessIiEE13stl_allocatorIiL18MemLabelIdentifier1ELi16EEE7destroyEPNS_11__tree_nodeIiPvEE
ac:invoke_viiifi
Xye:_LongComparer_Compare_m3981323622
Hnd:__ZN5physx6shdfnd5ArrayIPNS_7PxActorENS0_19ReflectionAllocatorIS3_EEE8recreateEj
Hba:__ZNK11AssetBundle14GetPreloadDataEiR13dynamic_arrayIiLj4EE
fJe:_EncryptedData_get_EncryptedContent_m2732115576
cf:_JS_Sound_SetPosition
lvg:_Assertion_set_FalseExpression_m1781616372
K5e:_X509SubjectKeyIdentifierExtension_FromHexChars_m2515150420
Cuh:__ZL13GetSharedInstPK17Il2CppGenericInst
x5f:__ZL51IReflect_t3412036974_CustomAttributesCacheGeneratorP21CustomAttributesCache
ugh:_RenderPipelineManager_CleanupRenderPipeline_m2242901458
Fdh:_Component_GetComponentsInChildren_m908027537
Izd:__ZN22BaseUnityConnectClient17SaveSessionValuesEv
xEg:_CallContextRemotingData_Clone_m2226242476
cO:__Z63ThreadAndSerializationSafeCheckSetMonoBehaviourBeingTransferredP13MonoBehaviour
LDc:__ZNK5physx7NpCloth14getNbParticlesEv
igc:__ZN5physx2Sc10NPhaseCore24releaseShapeInstancePairEPNS0_19ShapeInstancePairLLEjj
UKa:__Z24SetupActiveLightsContextR21ActiveLightingContextRK12ActiveLightsRK11CullResultsP14ShadowMapCacheRK10MinMaxAABB
Oad:__ZN5physx2GuL34fullContactsGenerationConvexConvexERKNS0_11ConvexHullVERS1_RKNS_6shdfnd3aos12PsTransformVES9_bbPNS0_17PersistentContactERjRNS0_13ContactBufferERNS0_25PersistentContactManifoldERNS6_5Vec3VERKNS6_6FloatVEb
gce:_DBNull_System_IConvertible_ToUInt32_m2681284284
pIh:__ZNK15dense_hashtableINSt3__24pairIK10KeyWrapperIPK22Il2CppGenericParameterEPK24MonoGenericParameterInfoEES6_N6il2cpp5utils11PointerHashIS4_EEN14dense_hash_mapIS6_SA_SF_NS6_14EqualsComparerINS0_8equal_toIS5_EEEENS0_9allocatorISB_EEE9SelectKeyESK_SM_E3endEv
G2a:__ZN6Camera8TransferI24GenerateTypeTreeTransferEEvRT_
Ga:invoke_iiiiiiif
Ca:invoke_iiiiiiii
jlb:__ZN24RingBufferMemoryFileData16ConsumeReadBytesEy
d4e:_X509ChainElementCollection_Contains_m3599995067
toi:b120
fwc:__ZN5physx7NpActor18releaseConstraintsERNS_12PxRigidActorE
rdc:__ZN5physx6shdfnd5ArrayINS_11PxDebugLineENS0_19ReflectionAllocatorIS2_EEE8recreateEj
uK:__Z21PostprocessStacktracePKcRN4core12basic_stringIcNS1_20StringStorageDefaultIcEEEE
WXe:_SslClientStream_OnLocalPrivateKeySelection_m3649986106
kY:__ZN19RenderBufferManager13GetTempBufferEii17DepthBufferFormat19RenderTextureFormatj22RenderTextureReadWrite14VRTextureUsagei
yib:__ZN18StreamedBinaryReadILb0EE21TransferSTLStyleArrayI13dynamic_arrayI16SplashScreenLogoLj4EEEEvRT_17TransferMetaFlags
_Nc:__ZNK5physx14NpRigidDynamic25getContactReportThresholdEv
qNd:_Single_CompareTo_m2081476257
QLf:_Array_InternalArray__ICollection_Remove_TisX509ChainStatus_t4278378721_m4127982424_gshared
sSb:__Z47Register_UnityEngine_Camera_get_allCamerasCountv
Lzd:__ZN22BaseUnityConnectClient20StartEventDispatcherEv
_dh:_Component_SendMessage_m2241432133
Tma:__ZL25ProgramUniformMatrix4x3fvPK7ApiGLESjiihPKv
Xed:__Z22updateIslandsToProcessRKN5physx2Cm10BitMapBaseINS_6shdfnd9AllocatorEEEPKjRKNS_11NodeManagerERS4_
WJf:_EqualityComparer_1_System_Collections_IEqualityComparer_Equals_m3376587337_gshared
Cya:__ZN12InputManager13InputEndFrameEv
a3d:_SyncHashtable__ctor_m2029869827
uMh:__ZN6il2cpp2vm6Thread5SetupEP12Il2CppThread
xrd:__ZN8Collider30GetRelativePositionAndRotationERK9TransformR10Matrix4x4f
A2c:__ZN5physx35PxcSweepEstimateAnyShapeHeightfieldERKNS_11PxsCCDShapeES2_PKNS_12PxsRigidBodyES5_RKNS_11PxTransformES8_f
Mdc:__ZN5physx3Cct13BoxControllerC2ERKNS_16PxControllerDescERNS_9PxPhysicsEPNS_7PxSceneE
QLg:_Collection_1_CheckWritable_m2756357359_gshared
Oai:___munmap
X7d:_Convert_ToInt64_m1722087499
Xf:_localtime_r
UBa:__ZN22RenderingCommandBuffer13GetAndCheckRTE24BuiltinRenderTextureTypeRKN9ShaderLab16FastPropertyNameEPKcPP13RenderTexture
Zf:_strftime
ohf:_DSACryptoServiceProvider_OnKeyGenerated_m1573093697
qI:__ZN12FileAccessorD2Ev
neb:__ZN14VertexDataInfoC2Ev
khe:_Exception_GetObjectData_m2653827630
umh:_Vector3_Equals_m2692262876_AdjustorThunk
kzf:_InternalEnumerator_1_get_Current_m2415979394_gshared
nxb:__ZL17Transfer_GUIStyleI18StreamedBinaryReadILb1EELb1EEvRK29SerializationCommandArgumentsR31RuntimeSerializationCommandInfo
IAh:__ZN6il2cpp6icalls8mscorlib6SystemL9IsPrivateEPK12PropertyInfo
G2c:__ZNK5physx18PxcConvexTriangles16getPolygonNormalEj
ckf:_CustomAttributeData_GetCustomAttributes_m3258419955
TM:__ZN9shadertag10InitializeEv
dFa:__ZN13BatchRenderer20RenderSingleWithPassER17ShaderPassContextPK18SharedMaterialDataP6ShaderPN9ShaderLab4PassEiPKNS7_10GrabPassesEjib15BatchBreakCause
Dvd:__ZN5physx24NpPtrTableStorageManager8canReuseEjj
dcb:__ZN15QualitySettings14QualitySetting8TransferI24GenerateTypeTreeTransferEEvRT_
yPf:_Array_InternalArray__ICollection_CopyTo_TisParameterModifier_t1820634920_m4127516211_gshared
uMd:_DecoderReplacementFallback__ctor_m2344783488
QSc:__ZN5physx2Sc27ConstraintProjectionManager33processConstraintForGroupBuildingEPNS0_13ConstraintSimERNS0_20ScratchAllocatorListIS3_Lj64EEE
j4h:__ZN6il2cpp6icalls8mscorlib6System9Threading16NativeEventCalls19ResetEvent_internalE12Il2CppIntPtr
Hmd:__ZN5physx20InternalTriangleMesh17allocateTrianglesEjb
SOb:__ZN22BlockMemoryCacheWriter14LockCacheBlockEjPPhS1_
e_h:__ZN6il2cpp2os6Thread10RunWrapperEPv
VQc:__ZN5physx2Cm29ConstraintImmediateVisualizer19visualizeDoubleConeERKNS_11PxTransformEfb
UZb:__Z22TransferField_NonArrayI8JSONRead27Converter_SimpleNativeClassI8GUIStyleEEvRK23StaticTransferFieldInfoR31RuntimeSerializationCommandInfoRT0_
e1b:__ZN5physx6shdfnd5ArrayINS_13PxExtendedBoxENS0_19ReflectionAllocatorIS2_EEE8recreateEj
i8c:__ZN5physx20ProcessBPResultsTask11runInternalEv
skc:__ZN5physx6shdfnd5ArrayIPvNS0_19ReflectionAllocatorINS_2Cm5BlockIS2_Lj16EEEEEE4copyINS0_15InlineAllocatorILj256ES7_EEEEvRKNS1_IS2_T_EE
Dg:_llvm_eh_typeid_for
FNb:__Z13RegisterClassI10GameObjectEvv
Y6f:__ZL53HashValues_t2390200547_CustomAttributesCacheGeneratorP21CustomAttributesCache
P2e:_X509BasicConstraintsExtension_get_PathLengthConstraint_m3004531343
wTc:__ZN5physx7NpScene19getActiveTransformsERjh
Xgd:__ZN5physx6shdfnd5ArrayIPKNS_24PxsIndexedContactManagerENS0_19ReflectionAllocatorIS4_EEE8recreateEj
eye:_MissingMemberException__ctor_m4277447068
sC:__Z7ToUpperIN4core12basic_stringIcNS0_20StringStorageDefaultIcEEEEET_RKS5_
Etf:_StrongNameKeyPair_System_Runtime_Serialization_ISerializable_GetObjectData_m1693082120
czb:__Z18Transfer_BlittableI18StreamedBinaryReadILb0EELb1E8Vector4fEvRK29SerializationCommandArgumentsR31RuntimeSerializationCommandInfo
eZh:__ZN6il2cpp2vm6Method8GetParamEPK10MethodInfoj
Qpe:_Int64_CompareTo_m1953686218
gSf:_BaseInvokableCall_ThrowOnInvalidArg_TisSingle_t2076509932_m3470174535_gshared
YQh:__ZN6il2cpp6icalls8mscorlib6System2IO6MonoIO4ReadE12Il2CppIntPtrP11Il2CppArrayiiPi
Jmi:_glBindVertexArray__wrapper
dqd:__ZN5physx6shdfnd5ArrayINS_11RTreeNodeNQENS0_19ReflectionAllocatorIS2_EEE19resizeUninitializedEj
ehc:__ZNK5physx2Sc16InteractionScene18getLLIslandManagerEv
_gf:_DSA_Create_m3450041777
K0:__ZN8Material8TransferI14SafeBinaryReadEEvRT_
d2c:__ZN5physx17PxcNpMemBlockPool34acquireExceptionalConstraintMemoryEj
L7a:__ZN12CubemapArray17UploadToGfxDeviceEv
b5:__ZN6prcoreL17RemapGenericFloatI15TexFormatRGHalf17TexFormatRGBAHalfEEvPKNS_9InnerInfoE
MS:__ZN13RuntimeStaticI21AssetReferenceStorageLb0EE16StaticInitializeEPv
p3c:__ZN5physxL23PxcSweepConvexTrianglesERKNS_11PxsCCDShapeES2_RKNS_11PxTransformES5_S5_S5_fRNS_6PxVec3ES7_RNS_10PxcNpCacheERNS_18PxcNpThreadContextERKNS_2Cm23FastVertex2ShapeScalingERNS_2Gu9TriangleVEf
PBc:__ZNK5physx7NpShape16getPlaneGeometryERNS_15PxPlaneGeometryE
B3e:_X509Chain_CheckRevocationOnChain_m2441901351
z4h:__ZN6il2cpp2vm13ManagedObject14QueryInterfaceERK10Il2CppGuidPPv
SId:_SymmetricAlgorithm_CreateDecryptor_m4240570785
nqd:__ZN5physx27InternalTriangleMeshBuilder14fillRemapTableEv
ht:__ZN11AudioSource4StopEb
Foc:__ZN5physx6shdfnd8PoolBaseINS_13NpRigidStaticENS0_19ReflectionAllocatorIS2_EEE17releaseEmptySlabsEv
Xqb:__ZN14SafeBinaryRead21TransferSTLStyleArrayI13dynamic_arrayI10Matrix4x4fLj4EEEEvRT_17TransferMetaFlags
KXd:_Byte_System_IConvertible_ToDecimal_m1036493607
oX:__Z25GetSplashScreenBackgroundRK5RectTIfE
xV:__ZN14dense_hash_mapIPKcPK4RTTIN11TypeManager23ConstCharPtrHashFunctorENS5_19ConstCharPtrEqualToE13stl_allocatorINSt3__24pairIKS1_S4_EEL18MemLabelIdentifier6ELi16EEEixERSB_
HCd:__ZN13RuntimeStaticI19UnityConnectServiceLb0EE16StaticInitializeEPv
Ttf:_ResourceManager__ctor_m498829021
Wqa:__ZN18GlslGpuProgramGLESD2Ev
kSa:__ZN13RenderTexture14SetVolumeDepthEi
xud:__ZThn116_NK5physx7profile8ZoneImplINS_28PxProfileNameProviderForwardEE10hasClientsEv
ybd:__ZN5physx2Gu20pcmContactCapsuleBoxERKNS0_13GeometryUnionES3_RKNS_11PxTransformES6_RKfRNS0_5CacheERNS0_13ContactBufferE
idf:_SerializationCallbacks__ctor_m722356782
y_b:__ZN10Matrix4x4f8TransferI8JSONReadEEvRT_
MP:__ZN14dense_hash_mapIPKcPK4RTTIN11TypeManager23ConstCharPtrHashFunctorENS5_19ConstCharPtrEqualToE13stl_allocatorINSt3__24pairIKS1_S4_EEL18MemLabelIdentifier6ELi16EEE5beginEv
SN:__ZN17PersistentManager18ReadObjectThreadedEi
Zha:__ZN25TransformFeedbackSkinning31CleanupTransformFeedbackShadersEv
V3h:__ZN6il2cpp6icalls8mscorlib6System7Runtime16CompilerServices14RuntimeHelpers15InitializeArrayEP11Il2CppArray12Il2CppIntPtr
JAf:_InternalEnumerator_1_System_Collections_IEnumerator_get_Current_m2851415307_gshared
Jgh:_Input_GetMouseButton_m464100923
c$e:_DefaultUriParser__ctor_m4218024811
Jce:_Decimal_System_IConvertible_ToInt16_m3159038792_AdjustorThunk
Ucb:__ZN10VertexData8TransferI18StreamedBinaryReadILb0EEEEvRT_
toc:__ZN5physx2Sc5Scene9addStaticERNS0_10StaticCoreEPKPvjj
KJe:_PKCS12_GetExistingParameters_m2413397265
wSa:__ZN14PreloadManager16UpdatePreloadingEv
E5a:__ZN14SafeBinaryRead21TransferSTLStyleArrayI19StaticArrayTransferIiLi4EEEEvRT_17TransferMetaFlags
d_c:__ZN5physx2Sc5Scene9addShapesEPKPvjjRNS0_8RigidSimEPNS_12PxsRigidBodyERPNS0_8ShapeSimEPNS_9PxBounds3E
GYg:__Z148RuntimeInvoker_Int32_t2071877448_Il2CppObject_Int32_t2071877448_Int32_t2071877448_Il2CppObject_Int32_t2071877448_Int32_t2071877448_Int32_t2071877448PK10MethodInfoPvPS2_
mUh:__ZNK15dense_hashtableINSt3__24pairIK10KeyWrapperINS1_IPKcS4_EEEiEES6_24NamespaceAndNamePairHashN14dense_hash_mapIS6_iS9_NS6_14EqualsComparerI26NamespaceAndNamePairEqualsEENS0_9allocatorIS8_EEE9SelectKeyESD_SF_E10test_emptyEj
z_h:__ZN14dense_hash_mapI10KeyWrapperIPK19Il2CppGenericMethodEP10MethodInfoN6il2cpp8metadata23Il2CppGenericMethodHashENS4_14EqualsComparerINS8_26Il2CppGenericMethodCompareEEENSt3__29allocatorINSD_4pairIKS4_S6_EEEEEC2EjRKS9_RKSC_
oad:__ZN5physx23PxcPCMContactConvexMeshERKNS_2Gu13GeometryUnionES3_RKNS_11PxTransformES6_RKfRNS_10PxcNpCacheERNS0_13ContactBufferE
EXa:__ZNK21UnityDefaultAllocatorI17LowLevelAllocatorE8ContainsEPKv
Nh:_emscripten_get_main_loop_timing
jse:_DirectoryInfo__ctor_m3750996792
ccb:__ZN24GenerateTypeTreeTransfer21TransferSTLStyleArrayINSt3__26vectorIN15QualitySettings14QualitySettingENS1_9allocatorIS4_EEEEEEvRT_17TransferMetaFlags
MQa:__ZN23ManagedAttributeManager52CallManagedGetParentTypeDisallowingMultipleInclusionE17ScriptingClassPtr
Sgb:__ZNSt3__26vectorI9InputAxisNS_9allocatorIS1_EEE6resizeEj
C4h:__ZN6il2cpp2vm13ManagedObject7GetIidsEPjPP10Il2CppGuid
qKd:_SecurityElement_IsValidAttributeValue_m483287146
DQd:_Decoder_set_Fallback_m1780632169
Ro:getTempRet0
p$g:__Z114RuntimeInvoker_Void_t1841601450_Il2CppObject_Il2CppObject_Int32_t2071877448_Il2CppObject_Il2CppObject_Il2CppObjectPK10MethodInfoPvPS2_
h6g:__Z80RuntimeInvoker_Il2CppObject_Ray_t2469606224_Single_t2076509932_Int32_t2071877448PK10MethodInfoPvPS2_
IPe:_PrivateKeyInfo_RemoveLeadingZero_m3396807048
vOh:__ZN6il2cpp6icalls8mscorlib6System9ThreadingL21lookup_cached_cultureEP12Il2CppThreadi
QLa:__ZN18DeferredRenderLoopD2Ev
FQ:__ZNK16TypeTreeIterator4NameEv
PH:__ZN15FileSystemEntry3SetEPKc
rhd:__ZN5physx6shdfnd5ArrayIPNS_13PxcNpMemBlockENS0_19ReflectionAllocatorIS3_EEE6resizeEjRKS3_
oEd:_MACTripleDES__ctor_m884945242
Pu:__ZN20SoundChannelInstance15ParameterBuffer5ApplyEPN4FMOD7ChannelE
dud:__ZN5physx7profile8ZoneImplINS_28PxProfileNameProviderForwardEE21setProfileZoneManagerEPNS_20PxProfileZoneManagerE
Yzd:__ZN11UnityEngine15PlatformWrapper24GetRuntimePlatformStringEv
wi:_glIsEnabled
mbc:__ZN5physx3Cct17CapsuleController15setFootPositionERKNS_14PxExtendedVec3E
K8b:__ZN5physx2Gu33PCMCapsuleVsMeshContactGeneration13generateEEMTDERKNS_6shdfnd3aos5Vec3VES6_RKNS3_6FloatVES6_jS6_S6_PNS0_21MeshPersistentContactERj
mnb:__Z25scripting_class_get_image17ScriptingClassPtr
Ai:_emscripten_glDrawElementsInstanced
LQg:_GeneralNames_get_IPAddresses_m1712556836
COe:_HMAC_Initialize_m3052649104
Faa:__ZN18JobBatchDispatcherD2Ev
lGb:__ZN9Transform17MainThreadCleanupEv
K2h:_GC_clear_hdr_marks
Dni:_emscripten_glCreateShader__wrapper
oag:__ZL73CompilationRelaxationsAttribute_t238494011_CustomAttributesCacheGeneratorP21CustomAttributesCache
qId:_SHA512Managed_processBlock_m3220567420
w_e:_NameObjectCollectionBase_get_Keys_m446053925
Ki:_emscripten_glGetShaderiv
Dxa:__ZZ23InitPlayerLoopCallbacksvEN41EarlyUpdateUpdateAllUnityWebStreamsstruct7ForwardEv
Rv:__ZN4FMOD6System10getVersionEPj
Kse:_FileLoadException_GetObjectData_m2047020314
UNf:_Array_InternalArray__IndexOf_TisSByte_t454417549_m1427585061_gshared
d5d:_Decimal_u64_m3991988111
uRg:_X509Certificate_Parse_m1764345628
NDg:_SynchronizationAttribute_GetClientContextSink_m1264319894
dni:_emscripten_glCullFace__wrapper
_ea:__ZN9GfxDevice21ReleaseSharedMeshDataEP14SharedMeshData
Ihb:__ZNSt3__27__sort5IRNS_6__lessINS_4pairIPKN5Unity4TypeE7Hash128EES8_EEPS8_EEjT0_SC_SC_SC_SC_T_
z3d:_Enumerator_Reset_m466659019
Bqh:__ZNK15dense_hashtableINSt3__24pairIK10KeyWrapperIPKcEP11Il2CppClassEES5_N6il2cpp5utils11StringUtils12StringHasherIS4_EEN14dense_hash_mapIS5_S8_SE_NS5_14EqualsComparerINSC_21CaseSensitiveComparerEEENS0_9allocatorIS9_EEE9SelectKeyESI_SK_E10test_emptyEj
R1h:_GC_unreachable_finalize_mark_proc
Vf:___syscall192
n3h:_maybe_finalize
Sj:_emscripten_glGetProgramiv
LEg:_ConstructionCall_GetObjectData_m3974358557
Pwc:__ZN5physx14NpShapeManagerC2Ev
x0:__ZN8Material28UpdateHashesOnPropertyChangeEN9ShaderLab16FastPropertyNameE
Fre:_DirectoryInfo_get_Parent_m1198766078
L0d:_CaseInsensitiveComparer_Compare_m1192858479
_ob:__Z18Transfer_BlittableI14SafeBinaryReadLb1E8Vector4fEvRK29SerializationCommandArgumentsR31RuntimeSerializationCommandInfo
Ojf:_Default_SelectMethod_m622251293
aUh:__ZN6il2cpp2vm5Image13ClassFromNameEPK11Il2CppImagePKcS6_
fei:dynCall_vdddddd
GDb:__ZN24GenerateTypeTreeTransfer21TransferSTLStyleArrayINSt3__26vectorIN9ShaderLab14SerializedPassENS1_9allocatorIS4_EEEEEEvRT_17TransferMetaFlags
AN:__ZL32MarkLevelGameManagerDependenciesR27GarbageCollectorThreadState
hha:__ZNK13GfxDeviceGLES26HasActiveRandomWriteTargetEv
Eii:_glGetActiveUniformsiv__wrapper
I0b:__ZNK5physx3Cct10Controller16getInternalStateERNS_17PxControllerStateE
XO:__ZN13MonoBehaviour19SetupScriptingCacheE17ScriptingClassPtrP10MonoScript
G3g:__Z59RuntimeInvoker_Il2CppObject_Double_t4078015681_Il2CppObjectPK10MethodInfoPvPS2_
dZc:__ZN5physx10PxsContext15setScratchBlockEPvj
hsg:__ZL74UnityEventBase_t828812576_CustomAttributesCacheGenerator_m_PersistentCallsP21CustomAttributesCache
FRh:__ZN6il2cpp2vm13LivenessState18ShouldProcessValueEP12Il2CppObjectP11Il2CppClass
Ifc:__ZN5physx2Cm27getDynamicGlobalPoseAlignedERKNS_11PxTransformES3_S3_RS1_
$_g:__Z45RuntimeInvoker_Il2CppObject_IntPtr_t_IntPtr_tPK10MethodInfoPvPS2_
cDb:__ZNSt3__26vectorIN9ShaderLab14SerializedPassENS_9allocatorIS2_EEE8__appendEj
Wnd:__ZN5physx6shdfnd5ArrayIPvNS0_19ReflectionAllocatorIN17PxcPoolMallocData10PoolData32EEEE15growAndPushBackERKS2_
vCb:__ZNSt3__26vectorIN9ShaderLab20SerializedSubProgram13BufferBindingENS_9allocatorIS3_EEEC2INS_11__wrap_iterIPS3_EEEET_SB_RKS5_PNS_9enable_ifIXaasr21__is_forward_iteratorISB_EE5valuesr16is_constructibleIS3_NS_15iterator_traitsISB_E9referenceEEE5valueEvE4typeE
dMb:__ZZL23RegisterLightPropertiesR22GenericPropertyBindingEN20Wrapper_LightColorb213GetFloatValueEPv
PYg:__Z170RuntimeInvoker_Int32_t2071877448_Il2CppObject_Int32_t2071877448_Int32_t2071877448_Il2CppObject_Int16_t4041245914_Int32_t2071877448_SByte_t454417549_ContextU26_t3131521781PK10MethodInfoPvPS2_
c9a:__ZN9Texture2D23VirtualRedirectTransferER18StreamedBinaryReadILb0EE
pfe:_Double_System_IConvertible_ToUInt16_m286326038_AdjustorThunk
sbf:_TypeInfo__ctor_m1475908211
M1a:__ZNSt3__26__treeINS_12__value_typeIN4core12basic_stringIcNS2_20StringStorageDefaultIcEEEEjEENS_19__map_value_compareIS6_S7_NS_4lessIS6_EELb1EEE13stl_allocatorIS7_L18MemLabelIdentifier6ELi16EEE7destroyEPNS_11__tree_nodeIS7_PvEE
DP:__ZN16ScriptingManager27NativeTypeForScriptingClassE17ScriptingClassPtr
C3e:_X509Chain_WrapUp_m1072032285
QSg:_X509CertificateEnumerator_System_Collections_IEnumerator_MoveNext_m1448966539
eTf:_Object_FindObjectOfType_TisIl2CppObject_m2967490724_gshared
eTe:_TlsServerHelloDone__ctor_m2125611008
Fza:_unity_z_tr_stored_block
lUg:__Z46RuntimeInvoker_Single_t2076509932_Il2CppObjectPK10MethodInfoPvPS2_
SHb:__Z13RegisterClassI5LightEvv
cNf:_Array_compare_TisIl2CppObject_m1481822507_gshared
uwd:__ZN5physx2Gu20registerHeightFieldsEv
Igf:_DES_get_Key_m2584608215
cNa:__ZL22ScheduleSceneNodesJobsP25ScheduleSceneNodesJobDataj
I5c:__ZN5physx22concludeContactCoulombERKNS_23PxcSolverConstraintDescERNS_16PxcSolverContextE
zk:_emscripten_set_canvas_size
aJc:__ZNK5physx15NpParticleFluid12getStiffnessEv
a2d:_Hashtable__ctor_m741952536
NCb:__ZNSt3__26vectorIN9ShaderLab20SerializedSubProgramENS_9allocatorIS2_EEE8__appendEj
fF:__ZN20DynamicHeapAllocatorI17LowLevelAllocatorE8AllocateEji
LFa:__ZN20DynamicPropertySheet15SetVectorQueuedERKN9ShaderLab16FastPropertyNameERK8Vector4fN19ShaderPropertySheet8SetFlagsE
lPd:_String_Format_m1263743648
G6a:__ZN14RenderSettings23VirtualRedirectTransferER19StreamedBinaryWriteILb0EE
_Wb:__ZL26Transfer_SimpleNativeClassI9JSONWrite10RectOffsetLb0EEvRK29SerializationCommandArgumentsR31RuntimeSerializationCommandInfo
j2h:_GC_push_conditional
Ika:__ZN17GenericDynamicVBO10AllocateVBEjR21DynamicVBOChunkHandle
AJg:_List_1_get_Item_m1547593893_gshared
Wre:_Path_GetPathRoot_m1269357080
O9c:__ZL27PxcTestFacesSepAxesBackfaceRKN5physx2Gu13PolygonalDataES3_RKNS_2Cm8Matrix34ES7_RKNS4_23FastVertex2ShapeScalingESA_S7_RKNS_6PxVec3ERfRSB_RjPjSG_fSD_
gTh:__ZN30dense_hashtable_const_iteratorI10KeyWrapperIP18Il2CppGenericClassES3_N6il2cpp8metadata22Il2CppGenericClassHashEN14dense_hash_setIS3_S6_NS3_14EqualsComparerINS5_25Il2CppGenericClassCompareEEENSt3__29allocatorIS3_EEE8IdentityESA_SD_EppEv
Yk:_glMapBufferRange
X8a:__ZN9Texture2D8TransferI18StreamedBinaryReadILb0EEEEvRT_
nTb:__Z31Input_CUSTOM_GetMouseButtonDowni
nEc:__ZNK5physx7NpCloth23getExternalAccelerationEv
Srf:_MonoGenericMethod_get_ReflectedType_m3194343466
Qba:__ZN13LoadOperation19IntegrateTimeSlicedEi
Nbb:__ZNK15QualitySettings26GetTypeInfoVirtualInternalEv
g7c:__ZN5physx16PxsBroadPhaseMBP9updatePPUEPNS_10PxBaseTaskE
pKe:_X501__cctor_m3795360380
uha:__ZN13GfxDeviceGLES22DispatchComputeProgramE12ObjectHandleI18ComputeProgram_TagPvE15ComputeBufferIDj
Q7d:_Convert_ToInt32_m2297793940
kaa:__Z17TransformAABBSlowRK4AABBRK10Matrix4x4fRS_
Q9a:__ZN15SerializeTraitsI13dynamic_arrayI7Hash128Lj8EEE19ResizeSTLStyleArrayERS2_i18MemLabelIdentifier
lJh:__ZN13Il2CppHashMapINSt3__24pairIPK9FieldInfoP11Il2CppClassEEj17ReflectionMapHashIS7_ENS0_8equal_toIS7_EENS0_9allocatorINS1_IK10KeyWrapperIS7_EjEEEEEC2EjRKS9_RKSB_
CBb:__ZN9ShaderLab21SerializedShaderState8TransferI14SafeBinaryReadEEvRT_
sbi:_ftruncate
oHd:_RSAPKCS1SignatureFormatter_SetKey_m2365816458
jLc:__ZN5physx6shdfnd8PoolBaseINS_16NpParticleSystemENS0_19ReflectionAllocatorIS2_EEE12allocateSlabEv
Dcd:__ZN5physx9PxTaskMgr12dispatchTaskEjb
CUf:_CompressedStack__ctor_m276924800
I1:__ZN15SerializeTraitsINSt3__24pairIN4core12basic_stringIcNS2_20StringStorageDefaultIcEEEES6_EEE8TransferI24GenerateTypeTreeTransferEEvRS7_RT_
lni:b89
nmi:b88
Yki:b81
Tki:b80
cmi:b83
gQ:__ZN18ResourceImageGroup7CleanupEv
gmi:b85
wic:__ZN5physx2Gu36closestPtPointTetrahedronTesselationEPNS_6shdfnd3aos5Vec3VES4_S4_RjRS3_S6_
jmi:b87
hmi:b86
bad:__ZN5physx25PxcPCMContactSphereConvexERKNS_2Gu13GeometryUnionES3_RKNS_11PxTransformES6_RKfRNS_10PxcNpCacheERNS0_13ContactBufferE
KLb:__ZN13ProduceHelperI4MeshLb0EE7ProduceE18MemLabelIdentifier18ObjectCreationMode
GPe:_PrivateKeyInfo_Decode_m1053025782
sJe:_PKCS12_Decrypt_m2457743414
Uph:__ZN15dense_hashtableINSt3__24pairIK10KeyWrapperIPK11Il2CppClassEPKcEES6_N6il2cpp5utils11PointerHashIS3_EEN14dense_hash_mapIS6_S9_SE_NS6_14EqualsComparerINS0_8equal_toIS5_EEEENS0_9allocatorISA_EEE9SelectKeyESJ_SL_EC2ERKSO_j
Ll:_glDeleteShader
fhe:_Exception_GetType_m3898489832
Y4:__ZN6prcoreL17RemapGenericFloatI15TexFormatRGHalf16TexFormatRGFloatEEvPKNS_9InnerInfoE
Sed:__ZN5physx16PxsIslandManager17cleanupEdgeEventsEv
fzc:__ZN5physx6shdfnd8PoolBaseINS_10NpMaterialENS0_19ReflectionAllocatorIS2_EEE15disposeElementsEv
yxa:__ZZ23InitPlayerLoopCallbacksvEN38EarlyUpdateExecuteMainThreadJobsstruct7ForwardEv
iRb:__Z27scripting_add_internal_callPKcPKv
yQf:_Array_InternalArray__Insert_TisUriScheme_t1876590943_m2728325409_gshared
XIh:__ZN13Il2CppHashMapINSt3__24pairIPK9EventInfoP11Il2CppClassEEj17ReflectionMapHashIS7_ENS0_8equal_toIS7_EENS0_9allocatorINS1_IK10KeyWrapperIS7_EjEEEEEC2EjRKS9_RKSB_
hWh:__GLOBAL__sub_I_GarbageCollector_cpp
$1b:__ZL21ContactReductionAllInRN5physx2Gu13ContactBufferEjjRKNS_7PxMat33EPKNS_6PxVec3EPKh
bTg:_X509Store_CheckStore_m1027496478
k7g:__Z133RuntimeInvoker_Boolean_t3825574718_Vector3U26_t425862308_Vector3U26_t425862308_Single_t2076509932_Int32_t2071877448_Int32_t2071877448PK10MethodInfoPvPS2_
LZ:__ZN13RenderTexture8TransferI24GenerateTypeTreeTransferEEvRT_
Ubi:__ZNSt3__212basic_stringIcNS_11char_traitsIcEENS_9allocatorIcEEEC2ERKS5_jjRKS4_
PDf:_DefaultComparer_Compare_m1606207039_gshared
v6h:__ZN6il2cpp2vm9Parameter30GetDefaultParameterValueObjectEPK10MethodInfoPK13ParameterInfoPb
buf:_ResourceReader_ReadValueVer2_m252146049
vhh:_MonoBehaviour_Invoke_m666563676
FYb:__Z18Transfer_BlittableI8JSONReadLb0EfEvRK29SerializationCommandArgumentsR31RuntimeSerializationCommandInfo
lwe:_StringReader__ctor_m643998729
Z$e:_IPv6Address_TryParse_m2220524278
U2g:__Z75RuntimeInvoker_DateTime_t693205669_DateTime_t693205669_TimeSpan_t3430258949PK10MethodInfoPvPS2_
BCg:_Context_get_DefaultContext_m2211922324
XPe:_RSAManaged_GetPaddedValue_m2972141669
EW:__Z19scripting_gc_enablev
fwg:_AnchorInfo__ctor_m617409099
mvd:__ZN5physx7profile11EventBufferINS_24PxDefaultContextProviderENS_6shdfnd6MutexTINS0_26WrapperReflectionAllocatorIhEEEENS0_14ScopedLockImplIS7_EENS_24PxProfileNullEventFilterEE9stopEventEty
T7e:_Interval_CompareTo_m2909556284_AdjustorThunk
jeb:__ZN14SafeBinaryRead21TransferSTLStyleArrayI13dynamic_arrayI11ColorRGBA32Lj4EEEEvRT_17TransferMetaFlags
K6e:_Interpreter_GetLastDefined_m2450713313
wvg:_Parser_ParseAssertionType_m3316669790
zHh:__ZN6il2cpp2gc19AppendOnlyGCHashMapINSt3__24pairIPK11Il2CppImageP11Il2CppClassEEP22Il2CppReflectionModule17ReflectionMapHashIS9_ENS2_8equal_toIS9_EEEC2Ev
PN:__Z20GetPersistentManagerv
fW:__ZN21SystemInfoStringCache16StaticInitializeEPv
sRe:_TlsStream__ctor_m4117943603
mEh:__ZN15dense_hashtableINSt3__24pairIK10KeyWrapperIPK10Il2CppTypeEjEES6_N6il2cpp8metadata14Il2CppTypeHashEN14dense_hash_mapIS6_jSB_NS6_14EqualsComparerINSA_26Il2CppTypeEqualityComparerEEENS0_9allocatorIS8_EEE9SelectKeyESF_SH_E12maybe_shrinkEv
aRf:_Array_InternalArray__set_Item_TisParameterModifier_t1820634920_m3126548327_gshared
bhc:__ZN5physx2Sc7BodySim18internalWakeUpBaseEf
RYh:__ZN6il2cpp2gc16GarbageCollector23MakeDescriptorForObjectEPji
Xse:_FileStream__ctor_m756268517
ttf:_ParameterModifier_t1820634920_marshal_pinvoke
pmb:__ZNK13MonoBehaviour7GetNameEv
H6:__ZN19ScriptingInvocation28AdjustArgumentsToMatchMethodEv
sTh:__ZN15dense_hashtableI10KeyWrapperIP18Il2CppGenericClassES3_N6il2cpp8metadata22Il2CppGenericClassHashEN14dense_hash_setIS3_S6_NS3_14EqualsComparerINS5_25Il2CppGenericClassCompareEEENSt3__29allocatorIS3_EEE8IdentityESA_SD_E6insertERKS3_
D4a:__Z20RenderMultipleMeshesRK15RenderNodeQueueRK18RenderMultipleData17ShaderChannelMask
PNh:__ZN6il2cpp2vm4Type19GetGenericParameterEPK10Il2CppType
IDf:_InternalEnumerator_1_get_Current_m2826780083_gshared
v_b:__ZN8JSONRead21TransferSTLStyleArrayI13dynamic_arrayI11ColorRGBA32Lj4EEEEvRT_18MemLabelIdentifier17TransferMetaFlags
lld:__ZN5physx13BigConvexData5VLoadERNS_13PxInputStreamE
md:_glBeginQuery
Eif:_Assembly_GetCustomAttributes_m95309865
n$c:__ZN5physx11NodeManager6resizeEj
YAa:__ZN6Camera12RenderStereoENS_10RenderFlagE8CullFlagPNS_24PerformEyeRenderFunctionE
gOe:_RC4__ctor_m1585026462
YG:__ZN20LocalFileSystemPosix10ToAbsoluteEPKc
B4a:__ZN20TierGraphicsSettings8TransferI19StreamedBinaryWriteILb0EEEEvRT_
rBf:_InternalEnumerator_1_get_Current_m2286118957_AdjustorThunk
VNf:_Array_InternalArray__IndexOf_TisX509ChainStatus_t4278378721_m1338369069_gshared
MUc:__ZNK5physx7NpScene28getSceneQueryStaticTimestampEv
V_d:_ArrayListWrapper_set_Capacity_m2792463350
kai:_getcwd
ySd:_StringBuilder_Append_m1128243247
nXa:__ZN25ThreadsafeLinearAllocatorD2Ev
O0c:__ZN5physx2Sq10AABBPruner11preallocateEj
bX:__Z21SendMessageToEveryoneRK17MessageIdentifier11MessageData
tT:__ZN21BillboardBatchManager16StaticInitializeEPv
xih:_Object_get_name_m2079638459
joi:b117
EJ:__ZN12_GLOBAL__N_138ArchiveRedirectFileSystemStaticDestroyEPv
Yge:_EventHandler_Invoke_m1137722757
Osh:__ZNK15dense_hashtableINSt3__24pairIK10KeyWrapperI13dynamic_arrayIPK10Il2CppTypeLj4EEEPFvvEEES8_N6il2cpp8metadata19Il2CppSignatureHashEN14dense_hash_mapIS8_SB_SF_NS8_14EqualsComparerINSE_22Il2CppSignatureCompareEEENS0_9allocatorISC_EEE9SelectKeyESJ_SL_E5beginEv
lSc:__ZN5physx2Sc19ShapeInstancePairLLC2ERNS0_8ShapeSimES3_RNS0_9ActorPairENS_7PxFlagsINS_10PxPairFlag4EnumEtEE
Bze:_MonoType_IsSubclassOf_m2211166238
jPh:__ZN6il2cpp6icalls8mscorlib6System5Array9GetLengthEP11Il2CppArrayi
zN:__ZN19RuntimeSceneManagerC2Ev
Sqe:_InvalidCastException__ctor_m2730571470
h5e:_X509ChainElementCollection_System_Collections_IEnumerable_GetEnumerator_m2559704689
x2e:_PublicKey_get_Key_m126090744
ixe:_UnexceptionalStreamReader_Peek_m1725179274
sta:__ZN17ArchiveFileSystem10AddStorageEP20ArchiveStorageReader
YGc:__ZN5physx2Sc9ClothCore16setStretchConfigENS_22PxClothFabricPhaseType4EnumERKNS_20PxClothStretchConfigE
gxd:_PxCreateFoundation
Uoa:__ZN12_GLOBAL__N_112UploadFormatE13TextureFormat
LJf:_EqualityComparer_1_System_Collections_IEqualityComparer_GetHashCode_m1203798961_gshared
hoh:__ZN6il2cpp2vm5Class15GetEnumBaseTypeEP11Il2CppClass
jjh:_Physics_Raycast_m2009151399
p8a:__ZNK9Texture2D16GetNpotTexelSizeEv
Gxd:__ZN13dynamic_arrayItLj2EE6insertEPtPKtS3_
Nka:__ZN9GfxDevice22GetDefaultVertexBufferE26GfxDefaultVertexBufferTypej
Cai:___fseeko_unlocked
tki:_glGetActiveUniform__wrapper
uai:_sscanf
vdc:__ZN5physx3Cct17CapsuleControllerC2ERKNS_16PxControllerDescERNS_9PxPhysicsEPNS_7PxSceneE
Deb:__ZN14SafeBinaryRead21TransferSTLStyleArrayINSt3__26vectorI17BlendShapeChannelNS1_9allocatorIS3_EEEEEEvRT_17TransferMetaFlags
Y2:__Z17BeginSplashScreenv
ueh:_ControllerColliderHit_get_moveDirection_m3053186297
qEb:__ZN9ShaderLab16SerializedShader8TransferI19StreamedBinaryWriteILb0EEEEvRT_
k_f:_UInt32_Parse_m2400360707
q4d:_Stack_Pop_m3788808882
obe:_DateTime_op_Equality_m1867073872
lKh:__ZN14dense_hash_mapI10KeyWrapperIP11Il2CppClassES2_N6il2cpp8metadata16SZArrayClassHashENS3_14EqualsComparerINS5_19SZArrayClassCompareEEENSt3__29allocatorINSA_4pairIKS3_S2_EEEEE15set_deleted_keyERSD_
tka:__ZN18GfxFramebufferGLES18GetFramebufferNameERK20GfxRenderTargetSetup
odi:_saveSetjmp
UQh:__ZN6il2cpp6icalls8mscorlib6System2IO6MonoIO11GetFileTypeE12Il2CppIntPtrPi
G9b:__ZN5physx6shdfnd5ArrayINS_12PxDebugPointENS0_19ReflectionAllocatorIS2_EEE15growAndPushBackERKS2_
Hhi:_glGetFramebufferAttachmentParameteriv__wrapper
Spb:__Z22scripting_array_length17ScriptingArrayPtr
mKd:_SecurityElement_GetAttribute_m4288291176
hsd:__ZN8Collider13AwakeFromLoadE17AwakeFromLoadMode
M9:__ZN14SafeBinaryRead20TransferTypelessDataEjPvi
sgh:_RenderPipelineManager_get_currentPipeline_m679160301
rag:__ZL66StringFreezingAttribute_t2691375565_CustomAttributesCacheGeneratorP21CustomAttributesCache
YVb:__ZN9rapidjson13GenericReaderINS_4UTF8IcEES2_13JSONAllocatorE10ParseFalseILj1ENS_25GenericInsituStringStreamIS2_EENS_15GenericDocumentIS2_S3_S3_EEEEvRT0_RT1_
oM:__Z19GetActiveColorSpacev
ZJf:_EqualityComparer_1__cctor_m1672307556_gshared
w9e:_SoapTypeAttribute_get_IsInteropXmlElement_m2941294827
nZd:_Char_System_IConvertible_ToUInt32_m1557991717_AdjustorThunk
EPd:_Encoding_get_UTF8Unmarked_m628720656
$je:_NumberFormatter_RoundBits_m1545255255
WM:__Z6StrCmpPKcS0_
LFb:__Z21CheckGpuProgramUsable20ShaderGpuProgramType
xjf:_Binder__cctor_m3736115807
nZh:__ZN6il2cpp2os9Directory20GetFileSystemEntriesERKNSt3__212basic_stringIcNS2_11char_traitsIcEENS2_9allocatorIcEEEESA_iiPi
Fvc:__ZN5physx6shdfnd5ArrayIPvNS0_19ReflectionAllocatorINS_2Cm5BlockIhLj128EEEEEE4copyINS0_15InlineAllocatorILj256ES7_EEEEvRKNS1_IS2_T_EE
lzc:__ZN5physx6shdfnd8PoolBaseINS_16NpConnectorArrayENS0_19ReflectionAllocatorIS2_EEE15disposeElementsEv
wib:__ZN12AspectRatios8TransferI18StreamedBinaryReadILb0EEEEvRT_
Txd:__ZN14PhysicsManager19CreatePvdConnectionEv
NNb:__ZN10GameObject14CopyPropertiesERS_
JGd:_RSACryptoServiceProvider_Common_m2581564813
CRg:_X509CertificateEnumerator_MoveNext_m4060814498
mue:_MemoryStream_CheckIfClosedThrowDisposed_m2253054610
Evf:_ArrayReadOnlyList_1_GetEnumerator_m634288642_gshared
TSa:__ZNK13ScreenManager12IsFullScreenEv
Xai:_rand
iii:_emscripten_glFramebufferRenderbuffer__wrapper
uyc:__ZNK5physx12NpConstraint9getActorsERPNS_12PxRigidActorES3_
JZh:__ZN6il2cpp5utils9PathUtils7CombineIcEENSt3__212basic_stringIT_NS3_11char_traitsIS5_EENS3_9allocatorIS5_EEEERKNS0_10StringViewIS5_EERKSA_
jef:_SerializationInfo_GetInt32_m4039439501
QRb:__Z60Register_UnityEngine_AsyncOperation_set_allowSceneActivationv
Qnd:__ZN5physx6shdfnd8PoolBaseIN17PxcPoolMallocData10PoolData16ENS0_19ReflectionAllocatorIS3_EEE15disposeElementsEv
Ord:__ZN9Rigidbody23UpdateInterpolationNodeEv
MMa:__Z22PrepareOptimizedPlanesPK5PlaneiPKN4math7_float4E
rT:__ZN17UniqueIDGenerator15CreatePureIndexEv
br:__ZN11UnityEngine9Animation28GenericAnimationBindingCache15DidReloadDomainEv
DLe:_AppDomain_InternalGetProcessGuid_m1278588156
nsf:_MonoMethod_MakeGenericMethod_m3628255919
FLf:_Array_InternalArray__ICollection_Remove_TisIl2CppObject_m2425110446_gshared
mre:_BinaryReader_ReadBoolean_m2892291883
xnh:__ZN15dense_hashtableINSt3__24pairIK10KeyWrapperIPK22Il2CppGenericParameterEP11Il2CppClassEES6_N6il2cpp5utils11PointerHashIS4_EEN14dense_hash_mapIS6_S9_SE_NS6_14EqualsComparerINS0_8equal_toIS5_EEEENS0_9allocatorISA_EEE9SelectKeyESJ_SL_E14squash_deletedEv
hjb:__ZNSt3__26__treeINS_12__value_typeIN4core12basic_stringIcNS2_20StringStorageDefaultIcEEEE4PPtrI6ObjectEEENS_19__map_value_compareIS6_SA_NS_4lessIS6_EELb1EEE13stl_allocatorISA_L18MemLabelIdentifier51ELi16EEE7destroyEPNS_11__tree_nodeISA_PvEE
oMb:__ZZL23RegisterLightPropertiesR22GenericPropertyBindingEN18Wrapper_LightRange13SetFloatValueEPvf
wQd:_ASCIIEncoding_GetString_m3931709239
Yxg:_Uri__ctor_m3927533881
DM:__ZNK9Transform18TransformDirectionERK8Vector3f
Jjd:__ZN5physx21PxsBodyTransformVault6updateEv
fni:_emscripten_glClearStencil__wrapper
A1b:__ZL29GeomMTDCallback_CapsuleConvexRN5physx6PxVec3ERfRKNS_10PxGeometryERKNS_11PxTransformES5_S8_
Ith:__ZN15dense_hashtableINSt3__24pairIK10KeyWrapperIPK11Il2CppClassEPKcEES6_N6il2cpp5utils11PointerHashIS3_EEN14dense_hash_mapIS6_S9_SE_NS6_14EqualsComparerINS0_8equal_toIS5_EEEENS0_9allocatorISA_EEE9SelectKeyESJ_SL_E12resize_deltaEjj
Fci:__ZNK10__cxxabiv120__si_class_type_info27has_unambiguous_public_baseEPNS_19__dynamic_cast_infoEPvi
agi:_glTexSubImage3D__wrapper
g6e:_FactoryCache_Add_m2602974721
Tya:__Z21WriteImageAsyncThreadPv
vS:__ZL16GetInterfaceImpl18UnityInterfaceGUID
Aoh:__ZN6il2cpp2vmL17SetupFieldOffsetsENS0_15FieldLayoutKindEP11Il2CppClassjRKNSt3__26vectorIjNS4_9allocatorIjEEEE
sIg:_List_1_System_Collections_IList_get_Item_m936612973_gshared
Z$h:__ZN6il2cpp6icalls8mscorlib6System15MonoCustomAttrs27GetCustomAttributesInternalEP12Il2CppObjectP20Il2CppReflectionTypeb
Z_b:__ZN8JSONRead21TransferSTLStyleArrayI13dynamic_arrayI8Vector3fLj4EEEEvRT_18MemLabelIdentifier17TransferMetaFlags
via:__Z24PluginsSetGraphicsDevicePvi18GfxDeviceEventType
Ocf:_ObjectReader_ReadAssembly_m869834280
Z3a:__ZN22RenderingCommandBufferD0Ev
FMc:__ZN5physx14NpRigidDynamicC2ERKNS_11PxTransformE
kmf:_EnumBuilder_GetPropertyImpl_m2717304076
n5b:__Z27sweepCCTBox_HeightFieldGeomRKN5physx10PxGeometryERKNS_11PxTransformERKNS_2Gu3BoxERKNS_6PxVec3EfRNS_10PxSweepHitENS_7PxFlagsINS_9PxHitFlag4EnumEtEEf
ku:__ZL31InitializeAudioScriptingClassesv
oDa:__Z14SortGUIByDepthP10GUIElementS0_
moe:_NumberFormatter_NumberToString_m126384393
BS:__ZN13RuntimeStaticI13dynamic_arrayIPK31TransferFunctionScriptingTraitsLj4EELb0EE16StaticInitializeEPv
eFg:_LogicalCallContext__ctor_m3173272863
i1b:__ZN5physx3Cct9SweepTest18updateTouchedGeomsEPKNS0_30InternalCBData_FindTouchedGeomERKNS0_13UserObstaclesERKNS_17PxExtendedBounds3ERKNS_19PxControllerFiltersERKNS_6PxVec3E
nye:_MonoCustomAttrs__cctor_m2608447972
$ne:_Int32_FindSign_m3803672540
IEf:_Enumerator_System_Collections_IEnumerator_Reset_m70453843_AdjustorThunk
tvd:_PxCloseExtensions
HH:__ZNK20LocalFileSystemPosix21GetAvailableDiskSpaceEPKcRy
iW:__ZNSt3__26__treeIiNS_4lessIiEENS_9allocatorIiEEE7destroyEPNS_11__tree_nodeIiPvEE
S2e:_X509Certificate2__ctor_m1095336775
nea:__ZNK9GfxDevice14GetWorldMatrixEv
Ksf:_MonoProperty_GetGetMethod_m1100580870
$Fa:__Z19scripting_array_new17ScriptingClassPtrjj
C9a:__ZN14SafeBinaryRead21TransferSTLStyleArrayI13dynamic_arrayI12LightmapDataLj4EEEEvRT_17TransferMetaFlags
XLe:_ArgumentException__ctor_m3312963299
UCb:__ZNSt3__26vectorIN9ShaderLab20SerializedSubProgram16TextureParameterENS_9allocatorIS3_EEE6assignIPS3_EENS_9enable_ifIXaasr21__is_forward_iteratorIT_EE5valuesr16is_constructibleIS3_NS_15iterator_traitsISA_E9referenceEEE5valueEvE4typeESA_SA_
fIh:__ZN15dense_hashtableINSt3__24pairIK10KeyWrapperIPK22Il2CppGenericParameterEPK24MonoGenericParameterInfoEES6_N6il2cpp5utils11PointerHashIS4_EEN14dense_hash_mapIS6_SA_SF_NS6_14EqualsComparerINS0_8equal_toIS5_EEEENS0_9allocatorISB_EEE9SelectKeyESK_SM_E15set_deleted_keyERKSB_
M5e:_X509SubjectKeyIdentifierExtension__ctor_m3887138480
TGg:_Enumerator_System_Collections_IEnumerator_get_Current_m2853089017_AdjustorThunk
KGc:__ZNK5physx2Sc9ClothCore20getNbCollisionPlanesEv
Bg:_emscripten_exit_fullscreen
Pld:__ZNK5physx13GuMeshFactory17getNbHeightFieldsEv
cAg:_GCHandle_Free_m1639542352_AdjustorThunk
ZTe:_Context_set_ClientRandom_m631392719
OZh:__ZN6il2cpp6icalls8mscorlib6System6String19InternalAllocateStrEi
T_b:__Z29Transfer_Blittable_ArrayFieldI8JSONRead11QuaternionfEvRT_R9ArrayInfoRK23StaticTransferFieldInfo
tcg:__ZL65SoapParameterAttribute_t2780084514_CustomAttributesCacheGeneratorP21CustomAttributesCache
a1c:__ZNK5physx2Gu12OBBAABBTestsILb1EEclENS_6shdfnd3aos5Vec3VES5_
qLb:__ZNK24RendererAnimationBinding15GenerateBindingERKN4core12basic_stringIcNS0_20StringStorageDefaultIcEEEEbRN11UnityEngine9Animation14GenericBindingE
L3a:__Z15GetFlareManagerv
ztg:_Enumerator_System_Collections_IEnumerator_get_Current_m1429268283
reh:_ControllerColliderHit_get_transform_m3183428555
a9h:___toread
FD:__ZN19CloudServiceHandler10QueueEventEPN11UnityEngine15CloudWebService14CloudEventInfoE
gdi:___cxa_is_pointer_type
Zna:__ZN4gles20DestroyRenderSurfaceEP7ApiGLESP17RenderSurfaceGLES
SGg:_Enumerator_System_Collections_IEnumerator_get_Current_m2853089017_gshared
v2:__ZN17PersistentManager40GlobalToLocalSerializedFileIndexInternalERK26SerializedObjectIdentifier
rB:__ZN11UnityEngine15CloudWebService17SessionEventQueue14ParseEventDataERKN4core12basic_stringIcNS2_20StringStorageDefaultIcEEEE
JCe:_SimpleCollator_CompareOrdinal_m2176988387
Lhe:_CCGregorianCalendar_GetYear_m1289900195
Wxc:__ZN12GeomQueryAnyIN5physx10PxSweepHitEE7geomHitERKNS0_2Sq17SceneQueryManagerERKNS0_15MultiQueryInputERKNS3_9ShapeDataERKNS0_10PxGeometryERKNS0_11PxTransformENS0_7PxFlagsINS0_9PxHitFlag4EnumEtEEjPS1_fbPNS0_9PxBounds3E
koe:_Int16_ToString_m2592645088
Ria:__ZN13TranslateGLES4InitERK12GraphicsCaps16GfxDeviceLevelGL
F3b:__ZN43CapsuleHeightfieldContactGenerationCallback7onEventEjPj
ntd:__ZThn4_N12MemoryStream4readEPvj
nef:_SerializationInfoEnumerator_Reset_m2206466680
Zxa:__ZZ23InitPlayerLoopCallbacksvEN33PostLateUpdateInputEndFramestruct7ForwardEv
tlb:__ZN24RingBufferMemoryFileDataD0Ev
Njb:__ZNSt3__26vectorIN30RuntimeInitializeOnLoadManager15ClassMethodInfoE13stl_allocatorIS2_L18MemLabelIdentifier12ELi16EEE8__appendEj
AJb:__ZN13ProduceHelperI10TagManagerLb0EE7ProduceE18MemLabelIdentifier18ObjectCreationMode
q4g:__Z84RuntimeInvoker_Il2CppObject_Il2CppObject_Il2CppObject_Il2CppObject_Int32_t2071877448PK10MethodInfoPvPS2_
f4h:__ZN6il2cpp8metadataL7CompareEPK10Il2CppTypeS3_
Vkf:_TypeBuilder_get_is_created_m736553860
PPe:_RSAManaged__ctor_m1370411656
A7a:__ZN12CubemapArray23VirtualRedirectTransferER17RemapPPtrTransfer
zQb:__ZL27GetComponentsImplementationILb0ELi0EEbR10GameObjectbRK17CompareParametersRK39GetComponentsImplementation_ReturnValue
mP:__Z21CreateMonoScriptCacheRKN4core12basic_stringIcNS_20StringStorageDefaultIcEEEE17ScriptingClassPtr22InitScriptingCacheTypeP6Objecti
Ymb:__ZN9Scripting36IsSystemCollectionsGenericDictionaryE17ScriptingClassPtr
Cwg:_BalancingGroup__ctor_m2474435406
Fwc:__ZN5physx12NpConstraint12actorDeletedEPNS_12PxRigidActorE
KQ:__ZL16ReadTypeTreeImplILb0EEbR8TypeTreeRK16TypeTreeIteratorRPKhS6_i
VXd:_Byte_System_IConvertible_ToInt32_m1032609763_AdjustorThunk
OFb:__ZN9ShaderLab7ProgramD0Ev
pfc:__ZN5physx2Sc8ShapeSim18reinsertBroadPhaseEv
_6a:__ZNK22BuiltinResourceManager21GetResourceInstanceIDEPKN5Unity4TypeERKN4core12basic_stringIcNS4_20StringStorageDefaultIcEEEE
c$d:_ArrayListWrapper_IndexOf_m3574835167
Wuc:__ZN5physx2Sc5Scene11removeShapeERNS0_8ShapeSimEb
kGa:__ZN28LightProbeProxyVolumeContext8CopyFromERKS_
FPa:__ZN23TransformChangeDispatch32QueueTransformChangeIfHasChangedER18TransformHierarchy
$Ka:__ZN18DeferredRenderLoop15RenderFinalPassEP13RenderTextureS1_
_na:__ZN7ApiGLES18DeleteRenderbufferERj
$ic:__ZN5physx6shdfnd5ArrayIPvNS0_15InlineAllocatorILj256ENS0_19ReflectionAllocatorINS_16NpConnectorArrayEEEEEE15growAndPushBackERKS2_
Uma:__ZL23ProgramUniformMatrix4fvPK7ApiGLESjiihPKv
TLb:__ZN13ProduceHelperI11LightProbesLb0EE7ProduceE18MemLabelIdentifier18ObjectCreationMode
N8c:__ZN5physx14SingleAABBTaskC2Ev
CCb:__ZN9ShaderLab20SerializedSubProgram15MatrixParameter8TransferI14SafeBinaryReadEEvRT_
BQb:__ZL27GetComponentsImplementationILb0ELi1EEbR10GameObjectbRK17CompareParametersRK39GetComponentsImplementation_ReturnValue
uUf:_UTF8Decoder__ctor_m1460357288
t_:__ZN13RenderTexture7ReleaseEv
Nfb:__ZN10MeshFilter23VirtualRedirectTransferER14SafeBinaryRead
XKa:__ZN19ShaderPropertySheet26SetTextureWithExplicitSizeEN9ShaderLab16FastPropertyNameE9TextureIDiiff
j5d:_Convert_ToByte_m1201588964
Xfb:__ZN12MeshRenderer17MainThreadCleanupEv
ERb:__Z36AsyncOperation_Get_Custom_PropIsDoneP12Il2CppObject
Jqa:__ZN22CreateGpuProgramOutput12CreateParamsEv
wtc:__ZNK5physx18NpArticulationLink11getChildrenEPPNS_18PxArticulationLinkEj
Hia:__ZNK14GfxContextGLES13GetDefaultFBOEv
PLf:_Array_InternalArray__ICollection_Remove_TisSByte_t454417549_m2474211570_gshared
ghd:__Z15atomIntegrationfPKPN5physx11PxsBodyCoreEPKPNS_12PxsRigidBodyEjPKNS_2Cm13SpatialVectorEPNS_13PxcSolverBodyEPNS_17PxcSolverBodyDataEPS9_RjSH_
kX:__ZN14GraphicsHelper5ClearE13GfxClearFlagsRK10ColorRGBAffjR17ShaderPassContext
rPc:__ZN5physx13NpRigidStatic11createShapeERKNS_10PxGeometryEPKPNS_10PxMaterialEtNS_7PxFlagsINS_11PxShapeFlag4EnumEhEE
NBh:_il2cpp_class_is_enum
AMh:__ZN6il2cpp2vm6Thread49CheckCurrentThreadForInterruptAndThrowIfNecessaryEv
t0:__ZNSt3__23mapIN9ShaderLab16FastPropertyNameEN18UnityPropertySheet11UnityTexEnvENS_4lessIS2_EENS_9allocatorINS_4pairIKS2_S4_EEEEEixERS9_
yda:__ZNK13TranslateGLES25GetTextureTargetDimensionEj
bnc:__ZN5physx11NpAggregate22removeActorAndReinsertERNS_7PxActorEb
Iod:__ZZL19ExtractHullPolygonsRjRN5physx2Gu9ContainerERKNS0_17ConvexHullBuilderEPS2_S3_EN5Local9FloodFillES3_PKNS0_11AdjTriangleEjPb
mug:_PatternCompiler_EmitInfo_m597931026
eNe:_ModulusRing_Multiply_m3113924743
Bi:_emscripten_glVertexAttrib4f
mFb:__ZNSt3__26vectorIN20GpuProgramParameters14ConstantBufferENS_9allocatorIS2_EEE8__appendEj
ao:FUNCTION_TABLE_vf
Xze:_MonoType_GetGenericArguments_m2708198481
yIg:_List_1_AddEnumerable_m2489692396_gshared
Lpc:__ZN5physx14NpArticulation26setMaxProjectionIterationsEj
Mcc:__ZN5physx3Cct15ObstacleContext14removeObstacleEj
yja:__ZN4gles10SetTextureER15DeviceStateGLESjjj19BuiltinSamplerState
Hga:__ZN9GfxDevice18SetGlobalDepthBiasEff
Hzh:__ZN6il2cpp6icalls8mscorlib6System8MonoType12get_AssemblyEP20Il2CppReflectionType
Oi:_emscripten_glGetPointerv
_td:__ZN5physx7profile8ZoneImplINS_28PxProfileNameProviderForwardEE17handleBufferFlushEPKhj
_mc:__ZN5physx2Sc5ActorC2ERNS0_16InteractionSceneEhNS0_14IslandNodeInfo4TypeE
Eqc:__ZN5physx21PxcArticulationHelper16prepareDataBlockERNS_9PxcFsDataEPKNS_19PxsArticulationLinkEtPNS_11PxTransformEPNS_12PxcFsInertiaEPNS_30PxcArticulationJointTransformsEj
JHc:__ZN5physx15NpActorTemplateINS_7PxClothEED2Ev
w_g:__Z135RuntimeInvoker_IntPtr_t_Il2CppObject_Int32_t2071877448_Int32_t2071877448_Int32_t2071877448_Int32_t2071877448_MonoIOErrorU26_t1029615899PK10MethodInfoPvPS2_
mGc:__ZN5physx2Sc9ClothCore16setRestPositionsEPKNS_6PxVec4E
UCa:__Z27ConvertSubMeshesToTrianglesR13dynamic_arrayI7SubMeshLj4EERS_ItLj2EE
voh:__ZN6il2cpp2vmL15GetBitmapNoInitEP11Il2CppClassPjRjj
q4e:_X509Certificate2Collection__ctor_m819526826
Nt:__ZN12AudioManager5ResetEv
rOe:_KeyBuilder_Key_m3814433741
YLe:_ArgumentException__ctor_m158205422
i5:__ZN6prcoreL17RemapGenericFloatI17TexFormatRGBAHalf15TexFormatRGHalfEEvPKNS_9InnerInfoE
GZh:__ZN6il2cpp6icalls8mscorlib6System11Environment20GetWindowsFolderPathEi
vFb:__ZN9ShaderLab20SerializedSubProgram15AddTextureParamEPKcii16TextureDimension
w5b:__ZNK5physx2Gu15HeightFieldUtil12traceSegmentI24ConvexVsHeightfieldSweepLb0ELb0ELb1EEEvRKNS_6PxVec3ES6_PT_PS5_
rld:__ZNK5physx12PxConvexMesh19getConcreteTypeNameEv
X5b:__ZN5physx2Gu19gjkLocalPenetrationINS0_9TriangleVENS0_17ShrunkConvexHullVEEEjRKT_RKT0_RKNS_6shdfnd3aos6FloatVERNSB_5Vec3VESG_SG_RSC_PhSI_Rhb
Sye:_MonoEnumInfo_get_enum_info_m1382505982
D7b:__ZN5physx2Gu15GJKLocalRayCastERNS0_9TriangleVERNS0_4BoxVERKNS_6shdfnd3aos6FloatVERKNS6_5Vec3VESC_RS7_RSA_SE_fb
nfc:__ZN5physx2Sc13ShapeIterator4initERKNS0_8ActorSimE
N0:__ZN14SafeBinaryRead19TransferSTLStyleMapINSt3__23mapIN4core12basic_stringIcNS3_20StringStorageDefaultIcEEEES7_NS1_4lessIS7_EE13stl_allocatorINS1_4pairIKS7_S7_EEL18MemLabelIdentifier1ELi16EEEEEEvRT_17TransferMetaFlags
xB:__ZN11UnityEngine15CloudWebService16SessionContainer21PrepareDataErrorEventERN4core12basic_stringIcNS2_20StringStorageDefaultIcEEEE
Qvb:__Z19TransferField_ArrayI19StreamedBinaryWriteILb0EE27Converter_SimpleNativeClassI8GUIStyleEEvRK23StaticTransferFieldInfoR31RuntimeSerializationCommandInfoRT0_
mBc:__ZN5physx14NpArticulationC2Ev
jki:_emscripten_glCopyTexSubImage2D__wrapper
cbf:_RemotingServices_RegisterInternalChannels_m1827304423
iyh:__ZNSt3__213__vector_baseIN6il2cpp2os19SocketHandleWrapperENS_9allocatorIS3_EEED2Ev
aTa:__ZN13sorted_vectorINSt3__24pairIN4core12basic_stringIcNS2_20StringStorageDefaultIcEEEEPK17MessageIdentifierEEN10vector_mapIS6_S9_NS0_4lessIS6_EENS0_9allocatorISA_EEE13value_compareESF_E10insert_oneERKSA_
DVf:_Thread_GetCachedCurrentUICulture_m5590127
x7a:__ZNK12CubemapArray20GetRuntimeMemorySizeEv
rDb:__Z14resize_trimmedINSt3__26vectorIN9ShaderLab18SerializedPropertyENS0_9allocatorIS3_EEEEEvRT_j
kDe:_Context_t2636657155_marshal_pinvoke_back
m0g:__Z89RuntimeInvoker_Boolean_t3825574718_Il2CppObject_Il2CppObject_StreamingContext_t1417235061PK10MethodInfoPvPS2_
IXd:_Byte_System_IConvertible_ToDateTime_m1583041031
Ewh:__ZL24UnresolvedVirtualCall_68P12Il2CppObjectS0_iS0_S0_S0_S0_S0_S0_PK10MethodInfo
Ncb:__ZN10VertexData8TransferI24GenerateTypeTreeTransferEEvRT_
x_h:__ZN13Il2CppHashMapIPK19Il2CppGenericMethodP10MethodInfoN6il2cpp8metadata23Il2CppGenericMethodHashENS6_26Il2CppGenericMethodCompareENSt3__29allocatorINS9_4pairIK10KeyWrapperIS2_ES4_EEEEEC2EjRKS7_RKS8_
mMa:__ZL10CullLightsRK22SceneCullingParametersR11CullResults
KUd:_Array_IndexOf_m2819632474
DTc:__ZN5physx7NpScene21setDominanceGroupPairEhhRKNS_20PxDominanceGroupPairE
aOb:__Z40GetTemporaryCachePathApplicationSpecificv
Vea:__ZN9GfxDevice16EndAsyncJobFrameEv
plb:__ZN24RingBufferMemoryFileData11SetGrowableEb
Bfh:_PersistentCall__ctor_m2079279187
J4d:_Convert_ToBase64String_m1936815455
Ik:___syscall3
Lk:___syscall6
Nk:___syscall4
zde:_Decimal_ToString_m759431975
UWh:__ZN6il2cpp2vm3RCW14QueryInterfaceILb1EEEP14Il2CppIUnknownP15Il2CppComObjectRK10Il2CppGuid
MQb:__ZN9Scripting25BroadcastScriptingMessageER10GameObjectPKc18ScriptingObjectPtr
bl:_emscripten_glShaderBinary
Mof:_OpCode_Equals_m3738130494
MTd:_Array_InternalArray__RemoveAt_m1126483634
Qch:_Camera_INTERNAL_CALL_RaycastTry_m1030092423
FXe:_SslStreamBase_Dispose_m747909841
o_e:_DictionaryNodeEnumerator_get_DictionaryNode_m3521889822
mde:_DivideByZeroException__ctor_m280382972
Mkd:__ZNK5physx2Sc15ClothFabricCore16getTetherLengthsEPfj
Txb:__ZN17AnimationCurveTplIfE8TransferI18StreamedBinaryReadILb1EEEEvRT_
Jbe:_DateTimeOffset_GetHashCode_m3312197462_AdjustorThunk
iBd:__ZN18UnityConnectClientD2Ev
M0e:_ServicePoint_set_UseNagleAlgorithm_m2618011464
fBh:_il2cpp_set_data_dir
tYc:__ZN5physx2Sc13ConstraintSim8getForceERNS_6PxVec3ES3_
lyg:_Uri_get_IsUnc_m2111738174
k1b:__ZN5physx15PxGeometryQuery18computePenetrationERNS_6PxVec3ERfRKNS_10PxGeometryERKNS_11PxTransformES6_S9_
vAd:__ZN11UnityEngine15PlatformWrapper30GetGraphicsDriverLibraryStringEv
TFf:_Enumerator_VerifyState_m262343092_AdjustorThunk
lyd:__ZN5Unity12PhysicsQueryC2Ev
zPe:_EncryptedPrivateKeyInfo_Decode_m1706190306
Vyb:__Z18Transfer_BlittableI18StreamedBinaryReadILb0EELb0E4AABBEvRK29SerializationCommandArgumentsR31RuntimeSerializationCommandInfo
Qed:__ZN5physx10PxsContext13updateIslandsEfPNS_10PxBaseTaskE
Q8d:_Convert_ToUInt16_m1665900934
zOa:__Z14DrawGUITextureRK5RectTIfEP7Texture11ColorRGBA32P8Materiali
QZ:__ZN15TextureSettings8TransferI24GenerateTypeTreeTransferEEvRT_
wtg:_MatchCollection_GetEnumerator_m3516985966
pYb:__ZN9JSONWrite8TransferI4AABBEEvRT_PKc17TransferMetaFlags
DTf:_UTF7Encoding__ctor_m2365939916
Aua:__ZN25MultiBlocksMemoryFileData9SetLengthEy
Thd:__ZNK18ScBeforeSolverTask7getNameEv
f8a:__ZNK9Texture2D20GetRuntimeMemorySizeEv
uZf:_TypeInitializationException__ctor_m2993591639
b5c:__ZN5physx14solve1D4_BlockEPKNS_23PxcSolverConstraintDescEjRNS_16PxcSolverContextE
jm:_emscripten_glUniform2iv
J1b:__ZL33GeomMTDCallback_ConvexHeightFieldRN5physx6PxVec3ERfRKNS_10PxGeometryERKNS_11PxTransformES5_S8_
Ooh:__ZN6il2cpp2vm5Class10GetMethodsEP11Il2CppClassPPv
suf:_ResourceEnumerator_MoveNext_m2405062020
aIa:__Z30AddDefaultStreamsToMeshBuffersR9GfxDeviceR11MeshBuffersRK16DrawBuffersRange17ShaderChannelMaskS6_
cLd:_Hash_GetObjectData_m315532943
aja:__ZN7ApiGLES17DeleteFramebufferERN2gl6HandleILNS0_10ObjectTypeE9EEES3_
Opa:__ZN15UniformTFMethod13MapBoneBufferEj
JSe:_RecordProtocol_SendAlert_m2816808523
iad:__ZN5physx26PxcPCMContactCapsuleConvexERKNS_2Gu13GeometryUnionES3_RKNS_11PxTransformES6_RKfRNS_10PxcNpCacheERNS0_13ContactBufferE
ywe:_SynchronizedReader_Read_m1399666181
krf:_MonoEvent_get_Name_m2796714646
$Ih:__ZN15dense_hashtableINSt3__24pairIK10KeyWrapperINS1_IPK9EventInfoP11Il2CppClassEEEjEES9_17ReflectionMapHashIS8_EN14dense_hash_mapIS9_jSD_NS9_14EqualsComparerINS0_8equal_toIS8_EEEENS0_9allocatorISB_EEE9SelectKeyESI_SK_E15set_deleted_keyERKSB_
Ggf:_DES_IsWeakKey_m3832577339
NVb:__ZN9rapidjson13GenericReaderINS_4UTF8IcEES2_13JSONAllocatorE11ParseObjectILj0ENS_19GenericStringStreamIS2_EENS_15GenericDocumentIS2_S3_S3_EEEEvRT0_RT1_
s0h:__ZN6il2cpp2vm4Enum21GetEnumValuesAndNamesEP11Il2CppClassPP11Il2CppArrayS6_
QTe:_Context_get_SentConnectionEnd_m3114190867
coc:__ZN5physx10PxsContext17addParticleSystemEPNS_15PxsParticleDataERKNS_26PxvParticleSystemParameterEb
_lc:__ZN5physx3Scb5Scene13addRigidNoSimINS0_4BodyELb1ELb1EEEvRT_RNS0_13ObjectTrackerE
B7a:__ZN12CubemapArray23VirtualRedirectTransferER24GenerateTypeTreeTransfer
mR:__ZN12FileAccessor4OpenER15FileSystemEntry14FilePermission16FileAutoBehavior
mZh:__ZN6il2cpp2os9Directory6CreateERKNSt3__212basic_stringIcNS2_11char_traitsIcEENS2_9allocatorIcEEEEPi
V6b:__ZL19sweepBoxVsTrianglesjPKN5physx10PxTriangleERKNS_2Gu3BoxERKNS_6PxVec3EfRNS_10PxSweepHitENS_7PxFlagsINS_9PxHitFlag4EnumEtEEbPKj
ybb:__ZN23TransformChangeDispatch32QueueTransformChangeIfHasChangedERK15TransformAccess
Tje:_NumberFormatter_AppendNonNegativeNumber_m629862866
z2:__ZNSt3__26vectorINS_4pairIN9ShaderLab16FastPropertyNameEN18UnityPropertySheet11UnityTexEnvEEENS_9allocatorIS6_EEE21__push_back_slow_pathIKS6_EEvRT_
xuf:_ResourceInfo__ctor_m2401359321_AdjustorThunk
SZh:__ZN6il2cpp2os26LibraryNamePrefixAndSuffixC2EPKcS3_
V1d:_Hashtable__ctor_m392789568
mVf:_Mutex_CreateMutex_internal_m2352956576
ETf:_UTF7Encoding__cctor_m4192443836
B:tempValue
Bne:_Int16_System_IConvertible_ToSingle_m3277935657
PK:__Z29scripting_class_from_fullnamePKcS0_S0_
S1b:__ZN5physx2Gu29ConvexVsMeshContactGeneration20generateLastContactsEv
Nth:__ZN15dense_hashtableINSt3__24pairIK10KeyWrapperIPKcEP11Il2CppClassEES5_N6il2cpp5utils11StringUtils12StringHasherIS4_EEN14dense_hash_mapIS5_S8_SE_NS5_14EqualsComparerINSC_21CaseSensitiveComparerEEENS0_9allocatorIS9_EEE9SelectKeyESI_SK_E12resize_deltaEjj
nJc:__ZN5physx2Sc17ParticleSystemSim16getParticleStateEv
c9:__ZN9Texture3D34UpdateFileTextureUploadInstructionEP28FileTextureUploadInstructionj
Zgd:__ZN5physx6shdfnd5ArrayINS_25PxsCompoundContactManagerENS0_19ReflectionAllocatorIS2_EEE8recreateEj
$Rf:_Component_GetComponents_TisIl2CppObject_m3784130262_gshared
Ufh:_UnityEvent_FindMethod_Impl_m3303953986
Ii:_glReadBuffer
zZf:_UInt16_System_IConvertible_ToBoolean_m887616848
V7c:__ZN5physx14PxsAABBManagerC2ERNS_2Cm13EventProfilerERNS_19PxcScratchAllocatorE
mz:__ZN11AudioModule22CreateAudioClipFromWWWEP10IWWWStreamPKcbbi
sSd:_StringBuilder_set_Length_m3039225444
z9d:_CultureAwareComparer_GetHashCode_m3681260951
OLa:__ZNK26RenderDeferredObjectSorterclERK16RenderObjectDataS2_
sJa:__ZN15SHConstantCacheC2ER13BatchRendererR15RenderLoopStats
c3h:_GC_initialize_offsets
dJa:__Z30SetupBakedOcclusionForGeometrybRK26SharedLightmapSettingsDataRK15LightmapIndicesR17ShaderPassContext
zP:__ZN14MessageHandler28MessageIDToMessageIdentifierEi
B$e:_HttpRequestCreator_Create_m3607509610
m5h:__ZN6il2cpp2vm10WaitHandle19NewManualResetEventEb
w1f:_Version_GetHashCode_m880841176
IOg:_Nullable_1_ToString_m1238126148_AdjustorThunk
zd:emscriptenWebGLGetUniform
Z8b:__ZN5physx2Gu19sweepCapsuleCapsuleERKNS0_7CapsuleES3_RKNS_6PxVec3EfRfRS4_S8_jRt
PNa:__ZL10CleanUpJobP20CullingGroupsJobData
sZd:_Char_CompareTo_m3044885427_AdjustorThunk
zse:_FileStream_GetSecureFileName_m508045384
$Bf:_InternalEnumerator_1_System_Collections_IEnumerator_get_Current_m2035754659_AdjustorThunk
Mfb:__ZN10MeshFilter23VirtualRedirectTransferER24GenerateTypeTreeTransfer
kld:__ZN5physx13BigConvexData4LoadERNS_13PxInputStreamE
sOa:__ZN13RenderManager15BatchModeUpdateEv
Kdb:__ZN14SafeBinaryRead21TransferSTLStyleArrayI13dynamic_arrayI8Vector2fLj4EEEEvRT_17TransferMetaFlags
u2:__ZN17PersistentManager51InstanceIDToLocalSerializedObjectIdentifierInternalEiR31LocalSerializedObjectIdentifier
hvc:__ZN5physx2Sc8ActorSim24postDominanceGroupChangeEv
O2g:__Z116RuntimeInvoker_Boolean_t3825574718_Il2CppObject_Int32_t2071877448_Int32_t2071877448_Il2CppObject_Int32U26_t455636984PK10MethodInfoPvPS2_
bd:_glVertexAttribIPointer
$vc:__ZN5physx2Cm8PtrTable5clearERNS0_22PtrTableStorageManagerE
yKf:_Array_InternalArray__ICollection_Contains_TisTableRange_t2011406615_m605506746_gshared
y8d:_Decimal_op_Explicit_m729046406
Jcc:__ZN5physx3Cct15ObstacleContext7releaseEv
H4c:__ZN5physx27solveFrictionBlockWriteBackEPKNS_23PxcSolverConstraintDescEjRNS_16PxcSolverContextEPNS_25PxcThresholdStreamElementEjPi
ogf:_CryptographicUnexpectedOperationException__ctor_m3552441227
__d:_ArrayListWrapper_Clear_m321161741
z$f:_UInt64_System_IConvertible_ToDouble_m2828923873
ZZg:__Z45RuntimeInvoker_Il2CppObject_Int16_t4041245914PK10MethodInfoPvPS2_
Mqd:__ZN5physx6shdfnd10Foundation19AlignCheckAllocator8allocateEjPKcS4_i
Bwf:_InternalEnumerator_1_get_Current_m1943362081_AdjustorThunk
Pbi:__ZNKSt3__221__basic_string_commonILb1EE20__throw_length_errorEv
ESd:_StringBuilder_Insert_m1733097906
s4g:__Z88RuntimeInvoker_Void_t1841601450_Il2CppObject_Int32_t2071877448_Il2CppObject_Il2CppObjectPK10MethodInfoPvPS2_
Zi:_JS_SystemInfo_GetMemory
xYe:_SslStreamBase_get_HashStrength_m480059173
toa:__ZN18GfxFramebufferGLES13ReadbackImageER14ImageReferenceiiiiii
u4d:_Enumerator_MoveNext_m1419609883
av:__ZN4FMOD7Channel19setReverbPropertiesEPK29FMOD_REVERB_CHANNELPROPERTIES
_O:__ZN13MonoBehaviour22GetScriptFullClassNameEv
ehd:__ZN5physx6shdfnd4sortIPNS_15PxsContactPatchENS_27SortBoundsPredicateManifoldENS0_19ReflectionAllocatorIS3_EEEEvPT_jRKT0_RKT1_j
kFa:__ZN13BatchRendererC2ER15RenderLoopStatsRK15RenderNodeQueuebb
L$e:_ServicePointManager_FindServicePoint_m3137356168
B8:__ZN20SphericalHarmonicsL211AddWeightedERKS_f
Lsb:__Z19TransferField_ArrayI17RemapPPtrTransfer27Converter_SimpleNativeClassI8GUIStyleEEvRK23StaticTransferFieldInfoR31RuntimeSerializationCommandInfoRT0_
u9d:_Convert_ToUInt64_m345450801
NSh:__ZN6il2cpp2vm3RCW7CleanupEP15Il2CppComObject
AVb:__ZN9JSONWrite8TransferI10ColorRGBAfEEvRT_PKc17TransferMetaFlags
Dsd:__ZN14PhysicsManager23VirtualRedirectTransferER19StreamedBinaryWriteILb0EE
tP:__Z25scripting_method_get_name18ScriptingMethodPtr
kUb:__Z35Register_UnityEngine_Resources_Loadv
urb:__Z19TransferField_ArrayI14SafeBinaryRead16Converter_StringEvRK23StaticTransferFieldInfoR31RuntimeSerializationCommandInfoRT0_
kbi:_rename
e3h:_GC_exit_check
oAe:_NotSupportedException__ctor_m3232764727
$_e:_TypeConverterAttribute_Equals_m2330345916
L2b:__ZNK5physx2Gu15OBBTriangleTest10obbTriTestERKNS_6PxVec3ES4_S4_
ibe:_DateTime_ToString_m1117481977
$re:_MonoIO_CreateDirectory_m379525469
Tgd:__ZN5physx18PxsDynamicsContext23atomIntegrationParallelEfPKPNS_11PxsBodyCoreEPKPNS_12PxsRigidBodyEjPKNS_2Cm13SpatialVectorEPNS_13PxcSolverBodyEPNS_17PxcSolverBodyDataEPSA_RjSI_RNS_10PxBaseTaskE
tXe:_SslClientStream_remove_PrivateKeySelection_m427666577
pOd:_String_Concat_m2000667605
oYh:__ZN6il2cpp2os10ThreadImpl12QueueUserAPCEPFvPvES2_
$Ad:__ZN22BaseUnityConnectClient10QueueEventERN11UnityEngine15CloudWebService17CloudServiceEventEPKcjb
E8b:__ZNK5physx2Gu15HeightFieldUtil12traceSegmentI25CapsuleTraceSegmentReportLb0ELb0ELb1EEEvRKNS_6PxVec3ES6_PT_PS5_
h9c:__ZN5physx10PxsContext23prepareCMDiscreteUpdateEPNS_10PxBaseTaskE
ZVd:_BitConverter_ToInt64_m1329623425
mJb:__ZN8RendererC2E12RendererType18MemLabelIdentifier18ObjectCreationMode
Cvc:__ZN5physx6shdfnd5ArrayIPvNS0_19ReflectionAllocatorINS_2Cm5BlockIhLj256EEEEEE4copyINS0_15InlineAllocatorILj256ES7_EEEEvRKNS1_IS2_T_EE
tf:_emscripten_glGetError
f0d:_SynchronizedArrayListWrapper_CopyTo_m3318520063
OEg:_MethodCall_get_Properties_m1893707917
hzc:__ZN5physx6shdfnd8PoolBaseINS_11NpAggregateENS0_19ReflectionAllocatorIS2_EEE15disposeElementsEv
S7b:__ZThn4_N16RayRTreeCallbackILi1ELb1EE14processResultsEjPj
aPa:__ZNK13RenderTexture32CalculateNeedsInvertedProjectionEv
xcc:__ZN5physx2Gu17RadixSortBuffered4SortEPKfj
Bf:emscriptenWebGLGet
Vjh:_Rect_GetHashCode_m559954498_AdjustorThunk
sR:__Z19CanReplaceComponentRN5Unity9ComponentEPKNS_4TypeEPN4core12basic_stringIcNS5_20StringStorageDefaultIcEEEE
vKb:__ZN12CubemapArray11InitTextureEiii13TextureFormatb
d4:__ZN6prcoreL18BlitIntegerToFloatERK14ImageReferenceRS0_
sMg:_Collection_1_set_Item_m3803272710_gshared
a3e:_X509Certificate2_get_SignatureAlgorithm_m3069898012
Gpe:_Int64_System_IConvertible_ToSingle_m1678482180
L0g:__Z54RuntimeInvoker_Il2CppObject_IntPtr_t_Int32_t2071877448PK10MethodInfoPvPS2_
KIa:__ZL24AssignProjectorQueuesJobP30AssignProjectorQueuesJobHeader
VWf:_TimeSpan_get_Hours_m3804628138
sFb:__ZN9ShaderLab20SerializedSubProgram14SetConstBufferEPKci
aMe:_ArgumentNullException__ctor_m911049464
Ikh:_Check_Source_m3385315029
v3g:__Z66RuntimeInvoker_Void_t1841601450_Int32_t2071877448_Int64_t909078037PK10MethodInfoPvPS2_
SF:__Z40DebugStringToFilePostprocessedStacktraceRK21DebugStringToFileData
j0c:__ZN5physx2Sq12BucketPruner11shiftOriginERKNS_6PxVec3E
$Zb:__Z29Transfer_Blittable_ArrayFieldI8JSONReadjEvRT_R9ArrayInfoRK23StaticTransferFieldInfo
Blc:__ZN5physx6shdfnd5ArrayIPNS_2Sc16ArticulationCoreENS0_19ReflectionAllocatorIS4_EEE15growAndPushBackERKS4_
Hih:_Object_GetInstanceID_m1920497914
BBf:_InternalEnumerator_1_get_Current_m314017974_AdjustorThunk
gg:__setLetterbox
Ffd:__ZN5physx19normalizePartitionsERNS_6shdfnd5ArrayIjNS0_19ReflectionAllocatorIjEEEEPNS_23PxcSolverConstraintDescEPKNS_13PxcSolverBodyEjjS5_
G3b:__ZN18ContactCapsuleMesh20processTriangleCacheILj16EEEbRN5physx2Gu13TriangleCacheIXT_EEE
Heb:__ZNSt3__26vectorI17BlendShapeChannelNS_9allocatorIS1_EEE6assignINS_11__wrap_iterIPS1_EEEENS_9enable_ifIXaasr21__is_forward_iteratorIT_EE5valuesr16is_constructibleIS1_NS_15iterator_traitsISA_E9referenceEEE5valueEvE4typeESA_SA_
M1e:_AsnEncodedData_ToString_m724151831
JOa:__ZN11TimeManager11GetRealtimeEv
ihc:__ZN5physx2Sc16InteractionScene25removeFromActiveActorListERNS0_5ActorE
NPb:__Z15WeldVertexArrayR13dynamic_arrayI8Vector3fLj4EERS_I13BoneInfluenceLj16EERS_ItLj2EES7_
Yqf:_MonoMethodInfo_GetDeclaringType_m4186531677
y9e:_SoapTypeAttribute_SetReflectionObject_m1566293812
Gdc:__ZN5physx3Ext21InertiaTensorComputer6rotateERKNS_7PxMat33E
lbf:_RemotingServices_CreateClientProxy_m1631035355
d0f:_UInt64_ToString_m2892887310
Ked:__ZN5physx22PxcDiscreteNarrowPhaseERNS_18PxcNpThreadContextERNS_13PxcNpWorkUnitE
o9:_stbir_resize
E_h:__ZN15dense_hashtableINSt3__24pairIK10KeyWrapperIPK19Il2CppGenericMethodEP10MethodInfoEES6_N6il2cpp8metadata23Il2CppGenericMethodHashEN14dense_hash_mapIS6_S9_SD_NS6_14EqualsComparerINSC_26Il2CppGenericMethodCompareEEENS0_9allocatorISA_EEE9SelectKeyESH_SJ_EC2ERKSM_j
had:__ZN5physx23PxcPCMContactCapsuleBoxERKNS_2Gu13GeometryUnionES3_RKNS_11PxTransformES6_RKfRNS_10PxcNpCacheERNS0_13ContactBufferE
_ta:__Z37ReadDirectoryInfo_UnityWebAndUnityRawR12FileAccessorRKN20ArchiveStorageHeader6HeaderERNS1_13DirectoryInfoE
RM:__ZNSt3__26__treeINS_12__value_typeIPKciEENS_19__map_value_compareIS3_S4_15compare_tstringIS3_ELb1EEENS_9allocatorIS4_EEE7destroyEPNS_11__tree_nodeIS4_PvEE
WIf:_Dictionary_2_ToTValue_m1381983709_gshared
fAe:_MulticastDelegate_KPM_m1592985119
MFa:__ZN20DynamicPropertySheet14SetValueQueuedEN9ShaderLab16FastPropertyNameEN19ShaderPropertySheet12PropertyTypeEjNS2_8SetFlagsE
ASh:__ZN6il2cpp2vm12ReboxIfBoxedEP14Il2CppIUnknownP11Il2CppClass
oYg:__Z119RuntimeInvoker_Void_t1841601450_SByte_t454417549_SByte_t454417549_Int32_t2071877448_Int32_t2071877448_Int32_t2071877448PK10MethodInfoPvPS2_
uTa:__ZN25PathNamePersistentManagerD2Ev
RN:__ZN17PersistentManager48IntegrateObjectAndUnlockIntegrationMutexInternalEi
ibh:__Z89RuntimeInvoker_Il2CppObject_Scene_t1684909666_Scene_t1684909666_Il2CppObject_Il2CppObjectPK10MethodInfoPvPS2_
Vo:__ZN6Object12SetHideFlagsENS_9HideFlagsE
OG:__ZN20LocalFileSystemPosix4ReadER13FileEntryDatayyPvPy
jii:_emscripten_glGetFramebufferAttachmentParameteriv__wrapper
$Na:__ZN13RendererScene15InitializeUmbraEv
l8:__Z28CalculateGlobalMatrixInverse23TransformAccessReadOnly
uXb:__ZN4PPtrI6ObjectE8TransferI9JSONWriteEEvRT_
MTf:_UTF7Encoding_GetCharCount_m2589913583
BJc:__ZNK5physx15PxsParticleData15getWorldBoundsVEv
oAa:_UNITY_png_write_sCAL_s
zue:_MemoryStream_CalculateNewCapacity_m3533542025
C9b:__ZN12_GLOBAL__N_124HfTrianglesEntityReport27onEventEjPj
v7h:__ZN6il2cpp6icalls8mscorlib6System6Object7GetTypeEP12Il2CppObject
yqh:__ZNK15dense_hashtableINSt3__24pairIK10KeyWrapperIPKcEP11Il2CppClassEES5_N6il2cpp5utils11StringUtils12StringHasherIS4_EEN14dense_hash_mapIS5_S8_SE_NS5_14EqualsComparerINSC_21CaseSensitiveComparerEEENS0_9allocatorIS9_EEE9SelectKeyESI_SK_E5beginEv
oyg:_Uri_Reduce_m2577728307
uXf:_TimeSpan_Equals_m4102942751_AdjustorThunk
Buc:__ZN5physx17PxsContactManager16resetCachedStateEv
ns:__ZN4FMOD6SoundI7releaseEv
yOc:__ZN5physx20NpRigidActorTemplateINS_14PxRigidDynamicEE15setActorSimFlagEb
Oua:__ZN10MemoryFile9SetLengthEy
p_f:_UInt16_ToString_m2038947049_AdjustorThunk
acc:__ZNK5physx3Cct26CharacterControllerManager16getNbControllersEv
lnb:__Z28scripting_class_is_interface17ScriptingClassPtr
wh:_glTexStorage2D
fFb:__ZNK9ShaderLab10SubProgram14EnsureCompiledEv
Hdf:_ObjectManager_RecordFixup_m3572285566
qvd:__ZN5physx7profile10DataBufferINS_6shdfnd6MutexTINS0_26WrapperReflectionAllocatorIhEEEENS0_14ScopedLockImplIS6_EEE17handleBufferFlushEPKhj
t3d:_SortedList_InitTable_m460350503
lP:__Z18BuildScriptClassId17ScriptingClassPtr
tyf:_InternalEnumerator_1_get_Current_m4279678504_AdjustorThunk
eq:__ZNK16LevelGameManager7GetNameEv
vLg:_Collection_1_System_Collections_IList_get_Item_m2415649949_gshared
ZKb:__ZN8Renderer28HandleParentHierarchyChangesEPK23TransformAccessReadOnlyj
ZH:__ZL31DeleteLastPathNameComponentImplRKN4core12basic_stringIcNS_20StringStorageDefaultIcEEEEPKc
GHb:__Z13RegisterClassI18DelayedCallManagerEvv
lBd:__ZN18UnityConnectClient15GetCloudServiceEv
Zsb:__Z18Transfer_BlittableI24GenerateTypeTreeTransferLb0EiEvRK29SerializationCommandArgumentsR31RuntimeSerializationCommandInfo
qid:__ZN5physx20PxsConstraintProjectEPKNS_13PxsConstraintEbf
hCc:__ZN5physx7NpShape7setFlagENS_11PxShapeFlag4EnumEb
hnb:__ZL28SerializationCommandGroupForRK31TransferFunctionScriptingTraits17ScriptingClassPtr17ScriptingFieldPtrRK20CoreScriptingClasses
z1a:__ZN10TagManager32RegisterDefaultTagsAndLayerMasksEv
ned:__ZN5physx2Sc35ParticleElementRbElementInteraction12onDeactivateEj
A_a:__ZN14CachingManager12ReadInfoFileERKN4core12basic_stringIcNS0_20StringStorageDefaultIcEEEEPlPNSt3__26vectorIS4_NS8_9allocatorIS4_EEEE
x_d:_ArrayList_InsertRange_m1478230997
Qia:__ZN4gles8InitCapsEP7ApiGLESP12GraphicsCapsR16GfxDeviceLevelGL
i3:__ZN6prcore14BlitImageFloatERK14ImageReferenceRS0_NS0_8BlitModeE
U3a:__Z24CalculateVertexLightDataRK15SharedLightDataR14GfxVertexLight
ei:_glEnable
r0a:__ZNK13Lz4Compressor29CalculateCompressedBufferSizeEj
Wyh:__ZN6il2cpp2vm19SocketPollingThreadC2Ev
ADa:__ZNK25CameraStackRenderingState21GetImageEffectTextureEb
Ief:_RuntimeMethodHandle__ctor_m2437574937_AdjustorThunk
VXc:__ZN5physx2Sq8AABBTreeC2Ev
QZf:_UInt16_System_IConvertible_ToInt64_m2835280558_AdjustorThunk
yjh:_Quaternion_GetHashCode_m2270520528_AdjustorThunk
Hmg:__ZL53g_UnityEngine_Assembly_CustomAttributesCacheGeneratorP21CustomAttributesCache
ajb:__ZNSt3__26vectorI4PPtrI6ObjectE13stl_allocatorIS3_L18MemLabelIdentifier51ELi16EEE6assignINS_11__wrap_iterIPS3_EEEENS_9enable_ifIXaasr21__is_forward_iteratorIT_EE5valuesr16is_constructibleIS3_NS_15iterator_traitsISD_E9referenceEEE5valueEvE4typeESD_SD_
JIf:_Dictionary_2_InitArrays_m2270022740_gshared
Xzd:__ZN11UnityEngine7Connect15DeviceInfoEvent16CollectExtraInfoEv
Q2g:__Z115RuntimeInvoker_Boolean_t3825574718_Il2CppObject_Int32_t2071877448_Il2CppObject_SByte_t454417549_Int32U26_t455636984PK10MethodInfoPvPS2_
o0h:__ZN6il2cpp2os11Environment22SetEnvironmentVariableERKNSt3__212basic_stringIcNS2_11char_traitsIcEENS2_9allocatorIcEEEESA_
sld:__ZN5physx2Gu10ConvexMeshD2Ev
PSd:_UnicodeEncoding_GetChars_m3765282346
uqe:_IntPtr__ctor_m4104029105
BHh:__ZN6il2cpp2gc19AppendOnlyGCHashMapIPK10Il2CppTypeP20Il2CppReflectionTypeNS_8metadata14Il2CppTypeHashENS7_26Il2CppTypeEqualityComparerEEC2Ev
NCf:_InternalEnumerator_1_System_Collections_IEnumerator_get_Current_m771161214_AdjustorThunk
dze:_MonoType_get_attributes_m1493788675
p5h:__ZN6il2cpp6icalls8mscorlib6System10Reflection9FieldInfo25internal_from_handle_typeE12Il2CppIntPtrS5_
r7d:_Convert_ToDouble_m4236754739
rii:_emscripten_glScissor__wrapper
e7f:__ZL48Stack_t1043988394_CustomAttributesCacheGeneratorP21CustomAttributesCache
go:FUNCTION_TABLE_viifi
jo:FUNCTION_TABLE_viiff
tfc:__ZNK5physx2Sc8ShapeSim10getBodySimEv
hrf:_MonoEvent_GetAddMethod_m4289563120
n5f:__ZL37Type_t_CustomAttributesCacheGeneratorP21CustomAttributesCache
SMh:__ZN6il2cpp2vm14TypeNameParser5ParseEb
Gvc:__ZN5physx6shdfnd5ArrayIPvNS0_19ReflectionAllocatorINS_2Cm5BlockIhLj128EEEEEE15growAndPushBackERKS2_
lDd:__ZN23UnityPurchasingSettingsC2Ev
Efe:_Double_ToString_m1864290157
ogb:__ZNK9Transform13GetWorldScaleEv
hBf:_InternalEnumerator_1_get_Current_m4154059426_AdjustorThunk
PCc:__ZN5physx14NpShapeManager15setupSceneQueryERNS_2Sq17SceneQueryManagerERKNS_12PxRigidActorERKNS_7NpShapeE
lUh:__ZNK24NamespaceAndNamePairHashclERKNSt3__24pairIPKcS3_EE
u9:__ZL37stbir__resample_horizontal_downsampleP11stbir__infoiPf
M6:__ZNK5Unity9Component38MarkGameObjectAndComponentDependenciesER27GarbageCollectorThreadState
hI:__ZL16OutOfMemoryErrorjj18MemLabelIdentifieriPKc
rnc:__ZNK5physx2Sc9ClothCore23getExternalAccelerationEv
KSe:_RecordProtocol_SendRecord_m132002114
p7b:__ZN5physx2Gu13coarseCullingERKNS_6PxVec3ES3_ffRKNS_10PxTriangleE
Azb:__Z18Transfer_BlittableI18StreamedBinaryReadILb0EELb1EdEvRK29SerializationCommandArgumentsR31RuntimeSerializationCommandInfo
Jji:_emscripten_glVertexAttrib2fv__wrapper
rme:_Guid__ctor_m2599802704
Zse:_FileStream_get_CanRead_m4148920720
Ped:__ZN5physx2Sc5Scene29processNarrowPhaseTouchEventsEv
Bla:__ZN4crnd12symbol_codec32decode_receive_static_data_modelERNS_25static_huffman_data_modelE
gle:_GregorianCalendar_set_CalendarType_m2438362222
upc:__ZN5physx6shdfnd5ArrayIPvNS0_15InlineAllocatorILj256ENS0_19ReflectionAllocatorINS_18NpArticulationLinkEEEEEE15growAndPushBackERKS2_
aXb:__Z18Transfer_BlittableI9JSONWriteLb0EaEvRK29SerializationCommandArgumentsR31RuntimeSerializationCommandInfo
TA:__ZN11UnityEngine15CloudWebService14DataDispatcher34OnSessionContainerArchivedAndReadyERNS0_16SessionContainerE
Jkb:__ZN13EmscriptenWWW10OnResponseEPviS0_jPc
Pcc:__ZNK5physx3Cct15ObstacleContext11getObstacleEj
Sub:__Z18Transfer_BlittableI19StreamedBinaryWriteILb0EELb0E8Vector3fEvRK29SerializationCommandArgumentsR31RuntimeSerializationCommandInfo
ABb:__ZN14SafeBinaryRead19TransferSTLStyleMapINSt3__23mapIN4core12basic_stringIcNS3_20StringStorageDefaultIcEEEEiNS1_4lessIS7_EENS1_9allocatorINS1_4pairIKS7_iEEEEEEEEvRT_17TransferMetaFlags
phf:_DSAParameters_t1872138834_marshal_pinvoke
ukb:__ZN5Cache9URLToPathERKN4core12basic_stringIcNS0_20StringStorageDefaultIcEEEE7Hash128
wGh:__ZN6il2cpp2vm10Reflection14GetEventObjectEP11Il2CppClassPK9EventInfo
TSe:_TlsStream_Write_m2271546135
Bie:_CultureInfo_ConstructInternalLocaleFromCurrentLocale_m1342751405
kSd:_Latin1Encoding_GetString_m3553289597
t$c:__ZN5physx13IslandManager6resizeEj
Sma:__ZL25ProgramUniformMatrix4x2fvPK7ApiGLESjiihPKv
JIb:__ZN9TextAssetC2E18MemLabelIdentifier18ObjectCreationMode
mkc:__ZN5physx6shdfnd8PoolBaseINS_2Cm5BlockIPvLj16EEENS0_19ReflectionAllocatorIS5_EEE17releaseEmptySlabsEv
_eh:_Display_RecreateDisplayList_m3412638488
eLh:__ZNK15dense_hashtableINSt3__24pairIK10KeyWrapperIP11Il2CppClassES4_EES5_N6il2cpp8metadata16SZArrayClassHashEN14dense_hash_mapIS5_S4_SA_NS5_14EqualsComparerINS9_19SZArrayClassCompareEEENS0_9allocatorIS7_EEE9SelectKeyESE_SG_E12test_deletedEj
zdc:__ZL20updateMassAndInertiabRN5physx11PxRigidBodyEPKfjPKNS_6PxVec3Eb
vZb:__Z18Transfer_BlittableI8JSONReadLb0EdEvRK29SerializationCommandArgumentsR31RuntimeSerializationCommandInfo
Avd:__ZN5physx24NpPtrTableStorageManagerC2Ev
KVf:_Thread_ClrState_m822263449
XCe:_SimpleCollator_LastIndexOfOrdinalIgnoreCase_m550798345
Lm:FUNCTION_TABLE_viiiiiifiii
oea:__ZNK9GfxDevice13GetViewMatrixEv
jUc:__ZN5physx7NpScene15flushSimulationEb
bBc:__ZN5physx6shdfnd8PoolBaseINS_10NpMaterialENS0_19ReflectionAllocatorIS2_EEE12allocateSlabEv
IQ:__ZN8TypeTree8BlobReadERPKhS1_ib
Yod:__ZN5physx18ReducedVertexCloudC2EPKNS_6PxVec3Ej
h7:__ZN18LoadSceneOperation23GetAllowSceneActivationEv
j5:__ZN11prophecysdk4half7convertEi
p2a:__ZN6CameraD0Ev
wEe:_ModulusRing_Multiply_m386339435
gV:__ZN31CanvasBatchIntermediateRenderer16StaticInitializeEPv
Z6d:_Decimal_op_Implicit_m4246329390
cMe:_ArgumentNullException__ctor_m2252076819
NQa:__ZN10GameObjectC2E18MemLabelIdentifier18ObjectCreationMode
g_e:_ListDictionary_GetEnumerator_m1511032609
ddf:_SerializationInfo__ctor_m4016423422
Ama:__ZL18ProgramUniform1uivPK7ApiGLESjiihPKv
FKb:__ZN14Texture2DArray13RebuildMipMapEv
Iph:__ZN13Il2CppHashSetIPK17Il2CppGenericInstN6il2cpp8metadata21Il2CppGenericInstHashENS4_24Il2CppGenericInstCompareENSt3__29allocatorI10KeyWrapperIS2_EEEEC2EjRKS5_RKS6_
qpb:__Z18Transfer_BlittableI14SafeBinaryReadLb1EaEvRK29SerializationCommandArgumentsR31RuntimeSerializationCommandInfo
tFb:__ZN9ShaderLab20SerializedSubProgram14AddVectorParamEPKcii15ShaderParamTypei
Gni:_emscripten_glIsFramebuffer__wrapper
Juf:_ResourceSet_ReadResources_m1669023823
lKe:_PKCS12_RemoveCertificate_m1590055870
PMh:__ZN6il2cpp2vm6Thread7SetNameEP12Il2CppThreadP12Il2CppString
lqg:__ZL107Collision_t2876846408_CustomAttributesCacheGenerator_Collision_t2876846408____frictionForceSum_PropertyInfoP21CustomAttributesCache
_W:__ZN13ScreenManager18SetAllowCursorLockEb
Kjb:__ZN30RuntimeInitializeOnLoadManager15ClassMethodInfo8TransferI14SafeBinaryReadEEvRT_
hmb:__ZN9TextAsset8TransferI14SafeBinaryReadEEvRT_
Fz:__ZL22InitializeModule_Audiov
Y$c:__ZN5physx2Sq11PruningPoolD0Ev
VVa:__ZN16MemoryFileSystem8IsLockedERK13FileEntryData
Q7c:__ZN3MBP15removeBoxPrunerEj
szg:_SatelliteContractVersionAttribute__ctor_m2605651717
Ok:_emscripten_glBindRenderbuffer
$2h:_GC_dirty_init
GUd:_Array_Copy_m1969461849
xcf:_MessageFormatter_ReadMethodResponse_m4134629501
YVh:__ZN6il2cpp2vm5Field14GetValueObjectEP9FieldInfoP12Il2CppObject
xBe:_CodePointIndexer_ToIndex_m2133868653
Mge:_Environment_get_OSVersion_m1247315981
P4b:__ZL15SweepBoxCapsulePKN5physx3Cct9SweepTestEPKNS0_11SweptVolumeEPKNS0_11TouchedGeomERKNS_14PxExtendedVec3ERKNS_6PxVec3ERNS0_12SweptContactE
ZT:__ZN6Object17FindObjectsOfTypeEPKN5Unity4TypeER13dynamic_arrayIPS_Lj4EEb
Fmb:__ZN13MonoBehaviour17RemoveFromManagerEv
ujd:__ZN5physx2Sc19ParticlePacketShapeD2Ev
ncb:__ZL11DecodeValuePPKcS0_
jGf:_ShimEnumerator_MoveNext_m2013866013_gshared
VE:__ZN13MemoryManagerC2Ev
wpa:__ZN12SkinMeshInfo10DeallocateEPS_
$wa:__ZN20ArchiveStorageReader28AcquireAndPrefillUnusedBlockEjPNS_11CacheResultE
o3g:__Z78RuntimeInvoker_Il2CppObject_SByte_t454417549_SByte_t454417549_SByte_t454417549PK10MethodInfoPvPS2_
zKb:__Z12NHxRoughnessIA4_tEvP9Texture2DPT_iiii
xU:__ZN18AsyncUploadManagerD2Ev
IGb:__ZN9Transform5ResetEv
Gub:__Z22TransferField_NonArrayI24GenerateTypeTreeTransfer16Converter_StringEvRK23StaticTransferFieldInfoR31RuntimeSerializationCommandInfoRT0_
RW:__Z17MainLoopKeepalivePv
dnc:__ZN5physx7NpScene16addActorInternalERNS_7PxActorE
ptg:_MatchCollection__ctor_m1944681790
XDd:_HMACSHA512__ctor_m1667460019
HNa:__Z24ScheduleCullingAllGroupsR8JobFenceRK22SceneCullingParameters4PPtrI6CameraERK13CullingOutputRK13dynamic_arrayIP12CullingGroupLj4EERKS_
$Ma:__Z14CalcHullBoundsPK8Vector3fPKhhRK5PlaneRK10Matrix4x4fR10MinMaxAABB
saf:_RealProxy__ctor_m2147093603
IFa:__Z19SetupLODFadeKeywordR17ShaderPassContexti
Poa:__ZL25CheckCopyTextureArgumentsRK7ApiGLESP11GLESTextureS3_
rU:__ZN13dynamic_arrayI26EnlightenSystemInformationLj8EE6insertEPS0_PKS0_S4_
hAe:_MulticastNotSupportedException__ctor_m2164514827
U9d:_DateTime_System_IConvertible_ToChar_m2489529194_AdjustorThunk
lub:__Z29Transfer_Blittable_ArrayFieldI24GenerateTypeTreeTransferyEvRT_R9ArrayInfoRK23StaticTransferFieldInfo
sv:__ZN4FMOD7SystemI9playSoundE17FMOD_CHANNELINDEXPNS_5SoundEbPPNS_7ChannelE
tyd:__ZN13PhysicsModule31GetColliderComponentsInChildrenERK10GameObjectbbR13dynamic_arrayIPN5Unity9ComponentELj4EE
aJ:__GLOBAL__sub_I_runtime_graphics_mesh2_lump_cpp
Jrg:__ZL68PreferBinarySerialization_t2472773525_CustomAttributesCacheGeneratorP21CustomAttributesCache
BEc:__ZNK5physx7NpCloth16getStretchConfigENS_22PxClothFabricPhaseType4EnumE
ILh:__ZN6il2cpp2os4File4ReadEPNS0_10FileHandleEPciPi
Qt:__ZN12AudioManager23VirtualRedirectTransferER18StreamedBinaryReadILb0EE
zbi:_realloc
kfi:dynCall_viif
FC:__ZN11UnityEngine15CloudWebService13WWWRestClient21ParseHTTPHeaderStringEN4core12basic_stringIcNS2_20StringStorageDefaultIcEEEERNS0_16WWWRestHeaderMapERjPKc
nid:__ZN5physx2Sc24ConstraintProjectionTree11projectPoseERNS0_19ConstraintGroupNodeE
nsb:__ZL26Transfer_SimpleNativeClassI17RemapPPtrTransfer8GradientLb0EEvRK29SerializationCommandArgumentsR31RuntimeSerializationCommandInfo
Dsh:__ZNK15dense_hashtableINSt3__24pairIK10KeyWrapperI13dynamic_arrayIPK10Il2CppTypeLj4EEEPFvvEEES8_N6il2cpp8metadata19Il2CppSignatureHashEN14dense_hash_mapIS8_SB_SF_NS8_14EqualsComparerINSE_22Il2CppSignatureCompareEEENS0_9allocatorISC_EEE9SelectKeyESJ_SL_E10test_emptyEj
B0a:__ZNSt3__26vectorIN20ArchiveStorageHeader12StorageBlockE13stl_allocatorIS2_L18MemLabelIdentifier54ELi16EEE21__push_back_slow_pathIKS2_EEvRT_
Izh:__ZN6il2cpp6icalls8mscorlib6System8MonoType14get_attributesEP20Il2CppReflectionType
$Za:__Z43DestroyWithoutLoadingButDontDestroyFromFilei
Byd:__ZN13PhysicsModule29GetColliderMaterialInstanceIDER8Collider
eze:_MonoType_GetDefaultConstructor_m925465120
sc:_emscripten_glBlendFuncSeparate
zK:__Z20scripting_string_newPKc
YRe:_CipherSuiteCollection_Add_m3114709461
Ure:_Directory_GetCurrentDirectory_m44486537
omd:__ZThn8_N5physx2Gu11HeightFieldD1Ev
irc:__ZNK5physx19PxArticulationJoint19getConcreteTypeNameEv
et:__ZN17AudioCustomFilterD2Ev
Wna:__ZN18GfxFramebufferGLES18ReleaseFramebufferEP17RenderSurfaceBaseP14GfxContextGLES
ICg:_Context_GetDynamicPropertyCollection_m1987747444
d3e:_X509Certificate2_get_Version_m1927399907
eNb:__ZN13ProduceHelperI6CameraLb0EE7ProduceE18MemLabelIdentifier18ObjectCreationMode
WD:__ZN19CloudServiceHandler34HandleSaveFileWebRequestPlayerLoopEv
Rs:__Z31GetParentSampleClipFromInstancePN11SoundHandle8InstanceE
yPa:__ZN6Camera22StandaloneCustomRenderENS_10RenderFlagEP6ShaderRKN4core12basic_stringIcNS3_20StringStorageDefaultIcEEEEPNS_21PerformRenderFunctionE
SPc:__ZL22addOrRemoveRigidObjectILb0ELb0ELb0ELb1EN5physx3Scb11RigidStaticEEvRNS0_2Sc5SceneERT3_b
_7h:__ZN6il2cpp2os16ThreadLocalValue8GetValueEPPv
Vth:__ZN6il2cpp2vm13MetadataCache14GetGenericInstEPKPK10Il2CppTypej
Cm:FUNCTION_TABLE_iiiiifiif
_Hd:_SHA384Managed_Initialize_m712692291
Uc:_glUniform1uiv
tUb:__Z52Object_CUSTOM_GetOffsetOfInstanceIDInCPlusPlusObjectv
ykc:__ZN5physx6shdfnd4sortIPvNS0_4LessIS2_EENS0_19ReflectionAllocatorINS_2Cm5BlockIS2_Lj8EEEEEEEvPT_jRKT0_RKT1_j
KAc:__ZNK5physx9NpPhysics11getNbShapesEv
Po:setThrew
rKb:__ZL21BuildEmptyCubeTexturePKci11ColorRGBA3217TextureColorSpace
DBb:__ZN14SafeBinaryRead21TransferSTLStyleArrayINSt3__26vectorIN9ShaderLab20SerializedSubProgramENS1_9allocatorIS4_EEEEEEvRT_17TransferMetaFlags
IYb:__Z15Transfer_StringI8JSONReadLb1EEvRK29SerializationCommandArgumentsR31RuntimeSerializationCommandInfo
bSf:_Component_GetComponentsInChildren_TisIl2CppObject_m2862756250_gshared
A4:__ZN6prcoreL17RemapGenericFloatI17TexFormatRGBFloat15TexFormatRGHalfEEvPKNS_9InnerInfoE
iHa:__Z25DoForwardShaderRenderLoopR17RenderLoopContextR13dynamic_arrayI16RenderObjectDataLj4EERK11CullResultsbbbN6Camera10RenderFlagE
uJe:_PKCS12_GetSymmetricAlgorithm_m1812022677
cUf:_UTF8Encoding_GetByteCount_m2372933408
FCg:_Context_get_NeedsContextSink_m1907794755
qOe:_ARC4Managed_GenerateKey_m716135508
H3b:__ZN5physx2Gu20intersectTriangleBoxERKNS_6PxVec3ES3_S3_S3_S3_
Fzc:__ZN5physx10NpMaterial8setFlagsENS_7PxFlagsINS_14PxMaterialFlag4EnumEtEE
lXa:__ZN13BaseAllocator13TryDeallocateEPv
qUd:_Array_CreateInstance_m1054139389
b3a:__ZNSt3__26vectorIN12FlareManager10FlareEntryENS_9allocatorIS2_EEE21__push_back_slow_pathIKS2_EEvRT_
h9h:_sprintf
rHd:_SHA1_Create_m4086509717
jsf:_MonoMethodInfo_GetMethodInfo_m3298558752
Bt:__ZN13AudioListener17RemoveFromManagerEv
nd:_glAttachShader
Utd:__ZN5physx6shdfnd8internal8HashBaseINS0_4PairIKtPKcEEtNS0_4HashItEENS1_11HashMapBaseItS6_S9_NS_7profile26WrapperReflectionAllocatorIS6_EEE6GetKeyESD_Lb1EE6createERS4_Rb
Mya:__ZNK6Camera19GetProjectionMatrixEv
cVc:__ZNK5physx7NpScene24getWakeCounterResetValueEv
hC:__ZN11UnityEngine15CloudWebService10RestClientINS0_16WWWRestHeaderMapEE6SetUrlERKN4core12basic_stringIcNS4_20StringStorageDefaultIcEEEE
Eee:_StackTrace__ctor_m2404985356
vad:__ZN5physx2Gu32PCMConvexVsMeshContactGeneration20generateLastContactsEv
TO:__Z38PreallocateObjectFromPersistentManagerib
gae:_DateTime_System_IConvertible_ToSingle_m3927769066
Pzc:__ZThn12_N5physx10NpMaterialD0Ev
cJ:__GLOBAL__sub_I_runtime_interfaces_lump_cpp
m8a:__ZNK9Texture2D20GetUnscaledTextureIDEv
r8d:_Convert_ToSByte_m883113940
Zpd:__ZN5physx6shdfnd4sortIjNS_19SortBoundsPredicateENS0_19ReflectionAllocatorIjEEEEvPT_jRKT0_RKT1_j
Lki:_glFenceSync__wrapper
Yze:_MonoType_get_ContainsGenericParameters_m3229732653
nCc:__ZN5physx7NpShape14onRefCountZeroEv
bOf:_Array_InternalArray__IndexOf_TisContactPoint_t1376425630_m3651364246_gshared
wpd:__ZL15TestContainmentRKN5physx6PxVec3EPKfjPKNS_2Gu15HullPolygonDataE
r8a:__ZNK9Texture2D26CanReuploadDataToGfxDeviceEv
pAb:__ZN18StreamedBinaryReadILb0EE21TransferSTLStyleArrayI13dynamic_arrayI4AABBLj4EEEEvRT_17TransferMetaFlags
KZf:_UInt16_System_IConvertible_ToDouble_m4100549304_AdjustorThunk
r_g:__Z116RuntimeInvoker_Il2CppObject_Il2CppObject_Il2CppObject_Int32_t2071877448_Int32_t2071877448_MonoIOErrorU26_t1029615899PK10MethodInfoPvPS2_
K7:__Z29ClearRepeatingLogMessageStatev
xmd:__ZN5physx2Gu11HeightField12loadFromDescERKNS_17PxHeightFieldDescEb
_Md:_Single_System_IConvertible_ToInt16_m962677079
LT:__ZN21EnlightenSceneMappingaSERKS_
t8h:__ZNK6il2cpp8metadata21Il2CppGenericInstHashclEPK17Il2CppGenericInst
mNd:_Single_System_IConvertible_ToUInt32_m2447833283
Psa:__ZN7ApiGLESD2Ev
dQa:__ZN9Transform47ClearTransformHierarchyAndApplyToSerializedDataEv
PAf:_InternalEnumerator_1_get_Current_m4083613828_AdjustorThunk
iSc:__ZN5physx6shdfnd8PoolBaseINS_2Gu30LargePersistentContactManifoldENS0_19ReflectionAllocatorIS3_EEE12allocateSlabEv
ATa:__ZN17PersistentManager9AddStreamEv
Dfi:dynCall_fidi
BDh:__ZN15dense_hashtableINSt3__24pairIK10KeyWrapperINS1_IPK9FieldInfoP11Il2CppClassEEEjEES9_17ReflectionMapHashIS8_EN14dense_hash_mapIS9_jSD_NS9_14EqualsComparerINS0_8equal_toIS8_EEEENS0_9allocatorISB_EEE9SelectKeyESI_SK_E12resize_deltaEjj
zed:__ZN5physx20getVertexEdgeIndicesERKNS_2Gu11HeightFieldEjjjPNS_8EdgeDataE
pXc:__ZN5physx6shdfnd5ArrayIPNS_2Sc8BodyCoreENS0_19ReflectionAllocatorIS4_EEE6resizeEjRKS4_
dcc:__ZN5physx3Cct26CharacterControllerManager16createControllerERNS_9PxPhysicsEPNS_7PxSceneERKNS_16PxControllerDescE
W3a:__ZN22RenderingCommandBufferC2ERKS_
ttd:__ZNK12PhysXRaycast12BatchOverlapER13dynamic_arrayI15BatchedOverlapsLj4EEPP8Colliderj
$Qb:__ZNK13MonoBehaviour13GetScriptTypeEv
PY:__ZN13RenderTexture12SetDimensionE16TextureDimension
wlh:_ScriptableObject_CreateInstance_m3921674852
de:_SDL_FreeRW
w_c:__ZN5physx6shdfnd8PoolBaseINS_2Cm5BlockIhLj128EEENS0_19ReflectionAllocatorIS4_EEE15disposeElementsEv
AHd:_SHA1Internal_FillBuff_m891541953
mGh:__ZNK15dense_hashtableINSt3__24pairIK10KeyWrapperINS1_IPK12PropertyInfoP11Il2CppClassEEEjEES9_17ReflectionMapHashIS8_EN14dense_hash_mapIS9_jSD_NS9_14EqualsComparerINS0_8equal_toIS8_EEEENS0_9allocatorISB_EEE9SelectKeyESI_SK_E5beginEv
zKc:__ZN5physx3Scb14ParticleSystem14setRestOffsetsEjRKNS_16PxStrideIteratorIKjEERKNS2_IKfEE
by:__ZN20SoundChannelInstance8getDelayE14FMOD_DELAYTYPEPjS1_
Z_a:__ZN21AssetBundleFileSystemC2EPKc
GXg:__Z61RuntimeInvoker_Void_t1841601450_Il2CppObject_Int64_t909078037PK10MethodInfoPvPS2_
Tba:__ZN10UnitySceneD0Ev
nke:_NumberFormatter_FormatExponential_m3975285307
v:tempBigInt
le:_emscripten_glVertexAttrib1fv
cCb:__ZNSt3__26vectorIN9ShaderLab20SerializedSubProgram12UAVParameterENS_9allocatorIS3_EEE7reserveEj
NSf:_Array_InternalArray__get_Item_TisTypeTag_t141209596_m1747911007_gshared
obh:_AnimationCurve_Init_m1486386337
Qdh:_Component_GetComponents_m3712441745
cWc:__ZN5physx13NpVolumeCacheC2EPNS_2Sq17SceneQueryManagerEjj
ulc:__ZThn24_N5physx2Sc20ArticulationJointSimD1Ev
Dgg:__ZL99Thread_t241561612_CustomAttributesCacheGenerator_Thread_t241561612____ExecutionContext_PropertyInfoP21CustomAttributesCache
gQg:_UnityAction_4_Invoke_m3312096275_gshared
AKc:__ZN5physx2Sc18ParticleSystemCore14setRestOffsetsEjRKNS_16PxStrideIteratorIKjEERKNS2_IKfEE
Y3b:__ZN5physx2Gu16testPolyDataAxisERKNS0_8CapsuleVERKNS0_13PolygonalDataEPNS0_12SupportLocalERKNS_6shdfnd3aos6FloatVERSB_RNSA_5Vec3VE
LOa:__ZN16ReflectionProbes16UpdateSampleDataEv
loc:__ZN5physx2Sc17ParticleSystemSimD0Ev
kob:__ZN14SafeBinaryRead21TransferSTLStyleArrayI10vector_setI4PPtrI10MonoScriptENSt3__24lessIS4_EE13stl_allocatorIS4_L18MemLabelIdentifier76ELi16EEEEEvRT_17TransferMetaFlags
J$g:__Z103RuntimeInvoker_Il2CppObject_Il2CppObject_StreamingContext_t1417235061_ISurrogateSelectorU26_t2635255864PK10MethodInfoPvPS2_
DAg:_SafeHandle_Finalize_m1839546519
g_b:__ZN8JSONRead21TransferSTLStyleArrayINSt3__26vectorI10RectOffset13stl_allocatorIS3_L18MemLabelIdentifier1ELi16EEEEEEvRT_S5_17TransferMetaFlags
oDg:_Context_AllocateNamedDataSlot_m3200404053
waa:__ZN14BatchAllocator6CommitE18MemLabelIdentifier
c2e:_X509EnhancedKeyUsageExtension_Decode_m3866320499
jke:_NumberFormatter_AppendIntegerStringWithGroupSeparator_m1401773574
jNh:__ZNK6il2cpp2vm14TypeNameParser10NextWillBeEcb
Ie:_JS_Sound_Play
kZc:__ZN5physx14NpArticulation9visualizeERNS_2Cm12RenderOutputEPNS_7NpSceneE
eBb:__ZN9ShaderLab16SerializedShader8TransferI14SafeBinaryReadEEvRT_
iLb:__ZN19ShaderPropertySheet16SetVectorIndexedEN9ShaderLab16FastPropertyNameEifRK8Vector4fNS_8SetFlagsE
Zp:__ZN14SafeBinaryRead21TransferSTLStyleArrayIN4core12basic_stringIcNS1_20StringStorageDefaultIcEEEEEEvRT_17TransferMetaFlags
Oaf:_RemotingConfiguration_RegisterWellKnownServiceType_m2491506630
sbg:__ZL55_TypeBuilder_t2783404358_CustomAttributesCacheGeneratorP21CustomAttributesCache
CD:__ZN11UnityEngine15CloudWebService14DataDispatcher4StopEv
eCb:__ZNSt3__26vectorIN9ShaderLab20SerializedSubProgram12UAVParameterENS_9allocatorIS3_EEE8__appendEj
j$:__ZN17ScriptingGCHandle7AcquireE18ScriptingObjectPtr25ScriptingGCHandleWeakness
pCg:_LifetimeServices_set_LeaseTime_m1487876644
Ykf:_ConstructorBuilder_not_supported_m3687319507
dNd:_Single_System_IConvertible_ToInt64_m3555853323_AdjustorThunk
Bei:dynCall_iifiii
j9:__Z21HasAlphaTextureFormat13TextureFormat
Xy:__ZN12AudioManager6UpdateEv
h9:__ZN14ImageReference9BlitImageERKS_NS_8BlitModeE
Y2b:__ZNK5physx2Gu16SupportLocalImplINS0_11ConvexHullVEE9doSupportERKNS_6shdfnd3aos5Vec3VERNS5_6FloatVESA_
Dnb:__ZN23CachedSerializationDataD2Ev
K6a:__ZN14RenderSettings23VirtualRedirectTransferER14SafeBinaryRead
wYh:__ZN6il2cpp2os10ThreadImpl15CurrentThreadIdEv
E3g:__Z72RuntimeInvoker_Il2CppObject_Il2CppObject_Decimal_t724701077_Il2CppObjectPK10MethodInfoPvPS2_
zgb:__ZN12InputManagerD0Ev
s6h:__ZN6il2cpp6icalls8mscorlib6System11Diagnostics10StackTrace9get_traceEP15Il2CppExceptionib
yle:_NumberFormatInfo_set_NumberNegativePattern_m1050626150
JSd:_UnicodeEncoding_GetBytes_m1337660232
Ruc:__ZN5physx2Sc9RigidCore20removeShapeFromSceneERNS0_9ShapeCoreEb
Qtd:__ZN5physx6shdfnd8internal8HashBaseINS0_4PairIKPKcjEES5_NS0_4HashIS5_EENS1_11HashMapBaseIS5_jS9_NS_7profile26WrapperReflectionAllocatorIjEEE6GetKeyESD_Lb1EE15reserveInternalEj
Ebi:_posix_memalign
yLb:__ZN13ProduceHelperI12MeshRendererLb0EE7ProduceE18MemLabelIdentifier18ObjectCreationMode
Upd:__ZN5physx11RTreeCooker18buildFromTrianglesERNS_2Gu5RTreeEPKNS_6PxVec3EjPKtPKjjRNS_6shdfnd5ArrayIjNSB_19ReflectionAllocatorIjEEEEPNS0_13RemapCallbackEfNS_17PxMeshCookingHint4EnumE
apc:__ZN5physx6shdfnd5ArrayIPvNS0_15InlineAllocatorILj256ENS0_19ReflectionAllocatorINS_14NpArticulationEEEEEE15growAndPushBackERKS2_
Cch:_Camera_get_eventMask_m4241372419
WO:__ZNK15MonoScriptCache7ReleaseEv
yoh:__ZN6il2cpp2vm5Class13HasReferencesEP11Il2CppClass
$bd:__ZN5physx9PxTaskMgrC2EPNS_15PxCpuDispatcherEPNS_15PxGpuDispatcherEPNS_15PxSpuDispatcherE
Yf:_glBindTexture
X9h:_snprintf
Enf:_ILGenerator__cctor_m3943061018
m$d:_ArrayListWrapper_Clone_m1506311066
y6:__Z36scripting_liveness_calculation_begin17ScriptingClassPtriPFvPP12Il2CppObjectiPvES3_PFvvES7_
Kqa:__ZN16UniformCacheGLES6CreateERK20GpuProgramParameters
lUf:_UTF8Encoding_Fallback_m811555654
S$f:_UInt64_CompareTo_m3513742483
SRd:_Encoding_GetString_m1894033578
AOg:_Nullable_1_Equals_m3860982732_gshared
hii:_emscripten_glGetProgramInfoLog__wrapper
gWh:__ZN6il2cpp2vm5Field14IsThreadStaticEP9FieldInfo
pUf:_UTF8Encoding_InternalGetChars_m373801468
GR:__ZN17PersistentManager23DestroyFromFileInternalEi
Ege:_Enum_ToString_m2112979707
ZFg:_MonoMethodMessage_get_MethodName_m3580519713
Edf:_ObjectManager_RecordArrayElementFixup_m2602188984
h2c:__ZN5physx19PxsMaterialCombiner24combineIsotropicFrictionERKNS_15PxsMaterialDataES3_
Pbh:_AssetBundleRequest_get_allAssets_m3314852268
b0:__ZN22CreateGpuProgramOutputC2Ev
N4e:_X509Chain__ctor_m2242540866
lue:_MemoryStream_InternalConstructor_m2423667240
bUg:__Z70RuntimeInvoker_Il2CppObject_Il2CppObject_Il2CppObject_SByte_t454417549PK10MethodInfoPvPS2_
g9e:_SoapMethodAttribute_SetReflectionObject_m3431595769
aod:__ZN5physx7Cooking16cookTriangleMeshERKNS_18PxTriangleMeshDescERNS_14PxOutputStreamE
Cxd:__ZN14CompletionTask4InitEPN5physx7PxSceneE
mmc:__ZN5physx2Sc7ElementD0Ev
zqd:__ZN5physx6shdfnd10Foundation7releaseEv
mc:invoke_vidi
LRf:_Array_swap_TisIl2CppObject_TisIl2CppObject_m127996650_gshared
vXh:__ZN6il2cpp5utils11StringUtils15StringDuplicateEPKc
DQa:__Z15CanAddComponentR10GameObjectPKN5Unity4TypeE
w$:__ZNK9ShaderLab21ShaderRasterStateDesc16ToGfxRasterStateEPK19ShaderPropertySheetS3_R14GfxRasterState
wgf:_CspParameters__ctor_m2480441577
q8h:__ZN6il2cpp2os9EventImplC2Ebb
RCg:_DynamicPropertyCollection_NotifyMessage_m840388347
_xg:_Uri_ParseUri_m5711497
sYa:__ZNK5Unity9Component26GetTypeInfoVirtualInternalEv
RL:__Z20IsMatrixBuiltinParamPKcPi
SKb:__ZN8Renderer19PostInitializeClassEv
w4h:__ZN6il2cpp6icalls8mscorlib6System8Delegate23CreateDelegate_internalEP20Il2CppReflectionTypeP12Il2CppObjectP22Il2CppReflectionMethodb
Kjf:_Default_check_type_m2363631305
Qmb:__ZN18DelayedCallManager18CancelCallDelayed2E4PPtrI6ObjectEPF15CallObjectStatePS1_PvES7_
qXa:__ZN25ThreadsafeLinearAllocator10ReallocateEPvji
Oob:__Z18Transfer_BlittableI14SafeBinaryReadLb1E11QuaternionfEvRK29SerializationCommandArgumentsR31RuntimeSerializationCommandInfo
wsc:__ZNK5physx18PxArticulationLink8isKindOfEPKc
Jsf:_MonoProperty_GetAccessors_m3704698731
V_g:__Z146RuntimeInvoker_Il2CppObject_Int32_t2071877448_Il2CppObject_ObjectU5BU5DU26_t3223402458_Il2CppObject_Il2CppObject_Il2CppObject_ObjectU26_t597476745PK10MethodInfoPvPS2_
Nxd:__Z25CreatePxMeshFromUnityMeshP4MeshbbRK10Matrix4x4f13TransformTypef
M3h:_GC_disable
Aeb:__ZN10Matrix4x4f8TransferI14SafeBinaryReadEEvRT_
Pn:FUNCTION_TABLE_vifiiiiiiiiiiiiiiiiii
Bxe:_UnmanagedMemoryStream_ReadByte_m2501145010
Hcf:_ObjectRecord_UnchainFixup_m3025030310
$R:__Z6AppendRKN4core12basic_stringIcNS_20StringStorageDefaultIcEEEEPKc
ywb:__Z18Transfer_BlittableI18StreamedBinaryReadILb1EELb0E8Vector3fEvRK29SerializationCommandArgumentsR31RuntimeSerializationCommandInfo
p_a:__ZN14CachingManager15ClearTempFolderEv
Lja:__ZN7ApiGLES18ClearBufferSubDataEjN2gl12BufferTargetEll
gSb:__Z37Camera_Get_Custom_PropAllCamerasCountv
Fdb:__ZN14Texture2DArray8TransferI18StreamedBinaryReadILb0EEEEvRT_
Svc:__ZN5physx15NpActorTemplateINS_18PxArticulationLinkEED2Ev
ILa:__Z18ApplyOcclusionMaskR19ProbeOcclusionCacheRK17LightProbeContextRK10RenderNodeb
Fte:_FileStreamAsyncResult__ctor_m1096228032
asd:__ZN11BoxCollider8TransferI18StreamedBinaryReadILb0EEEEvRT_
cce:_DBNull_System_IConvertible_ToSByte_m1228193074
RLg:_Collection_1__ctor_m2818834331_gshared
Exd:__Z19ExtractDataFromMeshR4MeshR13dynamic_arrayI8Vector3fLj4EERS1_ItLj2EES6_
yYh:__ZN6il2cpp2os10ThreadImpl22CreateForCurrentThreadEv
mEf:_Comparer_1__cctor_m3801958574_gshared
sLd:_SecurityElement__ctor_m1988489885
ete:_FileStream_FlushBuffer_m2594140542
i0h:__ZN6il2cpp2vm8Profiler12GCHeapResizeEx
Ifi:dynCall_viiifi
Bna:__ZN18GfxFramebufferGLES20ActiveContextChangedEPP17RenderSurfaceBaseS2_
bJa:__ZN19ShaderPropertySheet17UpdateTextureInfoEiN9ShaderLab16FastPropertyNameEPK10TextureRef
xna:__Z19PluginsRenderMarkeri
s8d:_Convert_ToSByte_m1570938941
ARg:_X509CertificateEnumerator_get_Current_m3129374511
eVh:__ZNSt3__214__split_bufferIN6il2cpp2vm5Image20EmbeddedResourceDataERNS_9allocatorIS4_EEEC2EjjS7_
PAa:__ZN5Image13ReformatImageERK14ImageReferenceii13TextureFormatNS0_8BlitModeE
Eag:__ZL57DispIdAttribute_t607560947_CustomAttributesCacheGeneratorP21CustomAttributesCache
nt:__ZN12AudioManager17RemoveAudioSourceEP11AudioSource
Heh:_CullingGroup_Finalize_m3172731580
VSf:_Array_InternalArray__get_Item_TisUInt64_t2909196914_m2580870875_gshared
AVc:__ZN5physx2Sc5Scene22setNbContactDataBlocksEj
VKe:_SecurityParser_OnEndElement_m2909940377
Pz:__ZN5physx14PxLightCpuTask12addReferenceEv
nab:__ZN21EnlightenSceneMapping8TransferI19StreamedBinaryWriteILb0EEEEvRT_
IWh:__ZN6il2cpp2gc16GarbageCollector19InitializeFinalizerEv
Kmc:__ZN5physx2Sc5Scene10removeBodyERNS0_7BodySimE
O0h:_GC_bl_init_no_interiors
EM:__Z20CalculateSqrDistanceRK8Vector3fRK4AABB
fyd:__ZN14PhysicsManager15ProcessContactsEv
C7b:__ZN21BoxTraceSegmentReport7onEventEjPj
dsc:__ZN5physx2Sc21ArticulationJointCore13setSwingLimitEff
jx:__Z32AudioMixerDuckingProcessCallbackP21UnityAudioEffectStatePfS1_jii
n3b:__ZL20HullProjectionCB_BoxRKN5physx2Gu13PolygonalDataERKNS_6PxVec3ERKNS_2Cm8Matrix34ERKNS7_23FastVertex2ShapeScalingERfSE_
zkf:_CustomAttributeTypedArgument_GetHashCode_m999147081_AdjustorThunk
YJb:__ZN26CustomRenderTextureManagerD2Ev
nte:_FileStream_Read_m3880951166
$7c:__ZN5physx14PxsAABBManager21selfCollideAggregatesEPKNS_19AggregateSortedDataE
Vt:__ZN12AudioManager8TransferI24GenerateTypeTreeTransferEEvRT_
d3:__Z25GetBytesFromTextureFormat13TextureFormat
hgd:__ZN5physx12_GLOBAL__N_112innerProductERKNS_14Px1DConstraintERS1_RKNS0_9MassPropsE
YLf:_Array_InternalArray__ICollection_Remove_TisContactPoint_t1376425630_m2242111467_gshared
Aei:dynCall_iifff
Gi:_emscripten_webgl_init_context_attributes
SP:__Z32scripting_class_get_assemblyname17ScriptingClassPtr
LAd:__ZN11UnityEngine15PlatformWrapper15GetVRDeviceNameEv
Zlh:_StackTraceUtility__cctor_m1132099289
n4c:__ZN5physx26PxcFrictionPatchStreamPairC2ERNS_17PxcNpMemBlockPoolE
qXf:_TimeSpan_Equals_m2029123271_AdjustorThunk
zuh:__ZN6il2cpp2vm13MetadataCache23GetInvokerMethodPointerEPK10MethodInfoPK20Il2CppGenericContext
Rra:__ZN9GfxDevice21RegisterNativeTextureE9TextureIDi16TextureDimension
xie:_CultureInfo__ctor_m456863818
L5h:__ZN6il2cpp6icalls8mscorlib6System10Reflection4Emit11TypeBuilder20create_generic_classEP27Il2CppReflectionTypeBuilder
dG:__ZN3WWW20GetCachedErrorStringEv
gKh:__ZN15dense_hashtableINSt3__24pairIK10KeyWrapperINS1_IP11Il2CppClassjEEES4_EES6_N6il2cpp8metadata14ArrayClassHashEN14dense_hash_mapIS6_S4_SB_NS6_14EqualsComparerINSA_17ArrayClassCompareEEENS0_9allocatorIS8_EEE9SelectKeyESF_SH_E13set_empty_keyERKS8_
VFb:__ZN12ScriptMapperD2Ev
Kxc:__ZNK5physx14NpSceneQueries10multiQueryINS_12PxOverlapHitEEEbRKNS_15MultiQueryInputERNS_13PxHitCallbackIT_EENS_7PxFlagsINS_9PxHitFlag4EnumEtEEPKNS_12PxQueryCacheERKNS_17PxQueryFilterDataEPNS_21PxQueryFilterCallbackEPNS_20BatchQueryFilterDataE
tRg:_X509Certificate_PEM_m49854707
f2e:_X509BasicConstraintsExtension__ctor_m3320418592
DQg:_ExtendedKeyUsageExtension_Decode_m901297139
w2h:_GC_check_leaked
DEb:__ZN9ShaderLab20SerializedSubProgram16TextureParameter8TransferI19StreamedBinaryWriteILb0EEEEvRT_
kb:invoke_fiiiiiiiifiiiif
KD:__ZN11UnityEngine15CloudWebService16SessionContainer8AddEventEPNS0_14CloudEventInfoE
Mqa:__Z4TrimRKN4core12basic_stringIcNS_20StringStorageDefaultIcEEEES5_
N5f:__ZL55GuidAttribute_t222072359_CustomAttributesCacheGeneratorP21CustomAttributesCache
kkf:_CustomAttributeNamedArgument_Equals_m2691468532
Dcb:__ZN10VertexData8TransferI14SafeBinaryReadEEvRT_
krc:__ZN5physx19NpArticulationJointD0Ev
Rla:__ZN11TextureData17GetImageReferenceEii
f4d:_Stack__ctor_m2410583781
q3h:_GC_malloc_atomic
qwd:__ZN5physx9NpPhysics14createInstanceEjRNS_12PxFoundationERKNS_17PxTolerancesScaleEbPNS_20PxProfileZoneManagerE
bzd:__Z59Register_UnityEngine_Physics_INTERNAL_CALL_Internal_Raycastv
Ijf:_Default_GetBetterMethod_m4255740863
hlf:_ConstructorBuilder_GetILGenerator_m1731893569
aUc:__ZNK5physx7NpScene17getFilterCallbackEv
gVh:__ZNSt3__214__split_bufferIN6il2cpp2vm5Image20EmbeddedResourceDataERNS_9allocatorIS4_EEED2Ev
VZa:__ZN15dense_hashtableINSt3__24pairIKN4core12basic_stringIcNS2_20StringStorageDefaultIcEEEEP11AssetBundleEES6_20StringHash32FunctionIS6_EN14dense_hash_mapIS6_S9_SC_NS0_8equal_toIS6_EENS0_9allocatorISA_EEE9SelectKeyESF_SH_E4findERS7_
ZN:__ZL20SortItemByInstanceIDRKN18AwakeFromLoadQueue4ItemES2_
Yvd:__ZN5physx6shdfnd5ArrayIPvNS0_15InlineAllocatorILj256ENS0_19ReflectionAllocatorINS_24NpPtrTableStorageManager8PtrBlockILi16EEEEEEEE15growAndPushBackERKS2_
cpf:_TypeBuilder_create_runtime_class_m2719530260
lGd:_RNGCryptoServiceProvider_RngClose_m2921734810
jCd:__ZN20UnityConnectSettings8TransferI24GenerateTypeTreeTransferEEvRT_
SMg:_ReadOnlyCollection_1_Contains_m1227826160_gshared
jCe:_SimpleCollator_IsHalfKana_m4255579023
Jzf:_InternalEnumerator_1_get_Current_m3206960238_AdjustorThunk
fCc:__ZN5physx7NpShape13setRestOffsetEf
Gwa:__Z16FlaggedAsSkippedIN4core12basic_stringIcNS0_20StringStorageDefaultIcEEEEEbRK13FileEntryInfoRKT_19FileEnumerationFlag
BT:__ZL31InitializeRendererUpdateManagerPv
HCc:__ZN5physxL11getTriangleERKNS_2Gu12TriangleMeshEjPNS_6PxVec3EPKS4_PKvRKNS_2Cm8Matrix34Eb
_sd:__ZN14SafeBinaryRead21TransferSTLStyleArrayINSt3__26vectorIjNS1_9allocatorIjEEEEEEvRT_17TransferMetaFlags
lTe:_ClientSessionInfo_Dispose_m2571428025
xWe:_RecordProtocol_decryptRecordFragment_m2510859489
NDc:__ZNK5physx7NpCloth16lockParticleDataEv
ohb:__ZN11TimeManager8TransferI19StreamedBinaryWriteILb0EEEEvRT_
Wte:_DelegatePInvokeWrapper_ReadDelegate_t3184826381
AAd:__ZN11UnityEngine15PlatformWrapper27GetGraphicsCapsSupportFlagsEv
tde:_Decimal_Equals_m1115043331
mZc:__ZN5physx13NpRigidStatic9visualizeERNS_2Cm12RenderOutputEPNS_7NpSceneE
kwb:__ZN12NativeBufferI16Converter_StringE15SetupForWritingER9ArrayInfo
lhi:___cxa_end_catch__wrapper
ej:_emscripten_glVertexAttrib3fv
I$c:__ZN5physx6shdfnd8PoolBaseINS_2Sc35ParticleElementRbElementInteractionENS0_19ReflectionAllocatorIS3_EEE15disposeElementsEv
Rze:_MonoType_get_Module_m3769241394
xQa:__ZN13MonoBehaviour22DoScriptRebuildWarningEv
iSb:__Z38Camera_CUSTOM_INTERNAL_CALL_RaycastTryP12Il2CppObjectRK3Rayfi
ePh:__ZN6il2cpp6icalls8mscorlib6System5Array13ClearInternalEP11Il2CppArrayii
xMb:__ZZL23RegisterLightPropertiesR22GenericPropertyBindingEN22Wrapper_LightSpotAngle13GetFloatValueEPv
Yzg:_GCHandle_get_Target_m2327042781
tdi:_llvm_cttz_i32
z2e:_PublicKey_DecodeDSA_m1169363495
ZOh:__ZN6il2cpp5utils9PathUtils7CombineIcEENSt3__212basic_stringIT_NS3_11char_traitsIS5_EENS3_9allocatorIS5_EEEERKSA_SC_
G_e:_NameObjectCollectionBase_BaseGet_m667273025
j8c:__ZN5physx14PxsAABBManager16processBPResultsERKNS_20PxsComputeAABBParamsE
AYb:__ZN9JSONWrite8TransferI13dynamic_arrayIiLj4EEEEvRT_PKc17TransferMetaFlags
q6c:__ZN5physx23PxsBroadPhaseContextSapD2Ev
$pd:__ZN5physx12SubSortQuickC2EPjPKNS_10PxBounds3VEjf
CK:__Z18ConvertUTF16toUTF8PPKtS0_PPhS2_15ConversionFlags
h$h:__ZN6il2cpp2os20PathErrnoToErrorCodeERKNSt3__212basic_stringIcNS1_11char_traitsIcEENS1_9allocatorIcEEEEi
HYf:_TypeLoadException__ctor_m1903359728
Tmh:__ZL16my_g_bit_nth_msfj
iEd:_KeySizes__ctor_m3526899007
wne:_Int16_System_IConvertible_ToInt32_m191782913_AdjustorThunk
Urg:__ZL69ArgumentCache_t4810721_CustomAttributesCacheGenerator_m_FloatArgumentP21CustomAttributesCache
pRd:_EncoderReplacementFallback__ctor_m2208438262
rEa:__Z23SetupStereoFlareElementP11FlareVertexRK8Vector2fS3_S3_RK11ColorRGBA32RK10Matrix4x4fRK8Vector3fb
ta:invoke_iiiifiiii
XYg:__Z131RuntimeInvoker_Void_t1841601450_Int32_t2071877448_Il2CppObject_Il2CppObject_Il2CppObject_Il2CppObject_Il2CppObject_SByte_t454417549PK10MethodInfoPvPS2_
YTf:_UTF7Decoder_GetChars_m2790530452
A$b:__ZN9rapidjson8internal6u64toaEyPc
lGc:__ZNK5physx2Sc9ClothCore16getRestPositionsEPNS_6PxVec4E
Z2c:__ZN5physx20PxcSweepConvexConvexERKNS_11PxsCCDShapeES2_PKNS_12PxsRigidBodyES5_RKNS_11PxTransformES8_S8_S8_fRNS_6PxVec3ESA_RNS_10PxcNpCacheERNS_18PxcNpThreadContextEf
dse:_Directory_GetFiles_m4036267478
age:_Enum_System_IConvertible_ToType_m2669300536
sJc:__ZN5physx15PxsParticleDataD0Ev
coa:__ZL19BlitFramebufferImplRN4gles23BlitFramebufferDrawQuadER9GfxDevice9TextureIDRK8Vector4f
Snd:__ZN5physx6shdfnd5ArrayIPvNS0_19ReflectionAllocatorIN17PxcPoolMallocData9PoolData8EEEE15growAndPushBackERKS2_
hNg:_ReadOnlyCollection_1_System_Collections_IList_Add_m2333231354_gshared
Uof:_OpCodes__cctor_m939885911
tKb:__ZN14Texture2DArray11InitTextureEiii13TextureFormatb
Urd:__ZN5physx15PxGeometryQuery14getWorldBoundsERKNS_10PxGeometryERKNS_11PxTransformEf
aXe:_RSASslSignatureDeformatter_SetHashAlgorithm_m4048969080
AHc:__ZN5physx2Sc9ClothCore18setSolverFrequencyEf
izg:_UriParser_InitializeAndValidate_m251943319
zUb:__Z26Object_Set_Custom_PropNameP12Il2CppObjectP12Il2CppString
RId:_SymmetricAlgorithm_set_Padding_m3081984460
Zgb:__ZN9InputAxis8TransferI18StreamedBinaryReadILb0EEEEvRT_
oef:_StreamingContext_t1417235061_marshal_pinvoke_back
U2b:__ZN5physx2Gu16buildPartialHullERKNS0_13PolygonalDataEPNS0_12SupportLocalERNS0_14SeparatingAxesERKNS_6shdfnd3aos5Vec3VESC_
A_d:_ArrayList_RemoveAt_m2578928333
ppb:__Z18Transfer_BlittableI14SafeBinaryReadLb0EaEvRK29SerializationCommandArgumentsR31RuntimeSerializationCommandInfo
EJd:_X509Certificate_GetName_m2354987368
KQg:_GeneralNames_get_DNSNames_m2721668874
Sfe:_Enum_System_IConvertible_ToByte_m38374586
Agi:_emscripten_glFrustum__wrapper
yqc:__ZNK5physx2Sc16ArticulationCore17releaseDriveCacheERNS_9PxcFsDataE
PWe:_ReceiveRecordAsyncResult_get_CompletedWithError_m2670396551
ede:_Decimal_Equals_m1798565377
Kec:__ZN5physx11NpAggregate7releaseEv
Mlf:_TypeBuilder_check_created_m2929267877
cBa:__Z20SyncFenceCullResultsR11CullResults
Dpa:__ZN15TextureTFMethod20IsBoneCountSupportedEi
z9e:_ObjRef__ctor_m1486312270
fae:_DateTime_System_IConvertible_ToSByte_m2575078084_AdjustorThunk
Osb:__Z22TransferField_NonArrayI17RemapPPtrTransfer27Converter_SimpleNativeClassI8GUIStyleEEvRK23StaticTransferFieldInfoR31RuntimeSerializationCommandInfoRT0_
$Bc:__ZN5physx7NpShape12setMaterialsEPKPNS_10PxMaterialEt
ZIb:__ZNK17AnimationCurveTplIfE20EvaluateWithoutCacheEfRf
h_h:__ZN6il2cpp2os6Thread12QueueUserAPCEPFvPvES2_
fRd:_EncoderExceptionFallback_Equals_m762170768
uMg:_Collection_1_IsValidItem_m1304951912_gshared
t6d:_Convert_ToDateTime_m4161927553
Slf:_TypeBuilder_GetConstructors_m774120094
tq:__ZN17AnimationCurveTplIfE8TransferI14SafeBinaryReadEEvRT_
whe:_Calendar_get_EraNames_m452820602
Xbb:__ZNSt3__26vectorIN15QualitySettings14QualitySettingENS_9allocatorIS2_EEE6assignIPS2_EENS_9enable_ifIXaasr21__is_forward_iteratorIT_EE5valuesr16is_constructibleIS2_NS_15iterator_traitsIS9_E9referenceEEE5valueEvE4typeES9_S9_
wac:__Z15raycast_capsuleRKN5physx10PxGeometryERKNS_11PxTransformERKNS_6PxVec3ES8_fNS_7PxFlagsINS_9PxHitFlag4EnumEtEEjPNS_12PxRaycastHitEbPFbRSD_PvESG_
rCa:__ZNK19ShaderPropertySheet11HasPropertyERKN9ShaderLab16FastPropertyNameE
S9d:_DateTime_System_IConvertible_ToByte_m2670443498_AdjustorThunk
cR:__Z16AsyncReadRequestP16AsyncReadCommand
ahd:__ZNK5physx34PxsSolverConstraintPostProcessTask7getNameEv
iNe:_BigInteger_op_Addition_m1734797151
F7b:__ZN5physx2Gu16_gjkLocalRayCastINS0_9TriangleVENS0_4BoxVEEEbRT_RT0_RKNS_6shdfnd3aos6FloatVERKNS9_5Vec3VESF_RSA_RSD_SH_f
hwd:__ZN5physx9NpPhysics20MeshDeletionListener28onGuMeshFactoryBufferReleaseEPKNS_6PxBaseEtb
lmf:_EnumBuilder_CreateNotSupportedException_m62763134
J3e:_X509Chain_CheckRevocation_m2480313486
yFd:_RijndaelManagedTransform_TransformBlock_m2558865851
Qgb:__ZN9InputAxis8TransferI14SafeBinaryReadEEvRT_
mO:__ZNK21ExecutionOrderManager30GetCustomAwakeFromLoadQueueForEPKN5Unity4TypeE
vTc:__ZNK5physx7NpScene9getActorsENS_7PxFlagsINS_15PxActorTypeFlag4EnumEtEEPPNS_7PxActorEjj
oDd:__Z27RegisterModule_UnityConnectv
pHh:__ZN6il2cpp2vm10Reflection27GetCustomAttributesCacheForEP25Il2CppReflectionParameter
m$c:__ZN5physx11NodeManagerD0Ev
nWf:_Scheduler_Remove_m1930366072
naf:_RealProxy__ctor_m3041043303
Dje:_NumberFormatter_Init_m2654758994
Iw:__ZN10ObjectPoolIN4FMOD12ChannelGroupENS0_13ChannelGroupIEE7SetSizeEi
cFe:_PrimalityTest_BeginInvoke_m966469054
C$f:_UInt64_System_IConvertible_ToInt16_m2797150165_AdjustorThunk
Uya:__ZN5Image13ReformatImageEii13TextureFormatN14ImageReference8BlitModeE
HSf:_Array_InternalArray__get_Item_TisLabelData_t3712112744_m863115768_gshared
ape:_Int32_Parse_m753946802
_Ih:__ZN14dense_hash_mapI10KeyWrapperINSt3__24pairIPK9EventInfoP11Il2CppClassEEEj17ReflectionMapHashIS8_ENS9_14EqualsComparerINS1_8equal_toIS8_EEEENS1_9allocatorINS2_IKS9_jEEEEE15set_deleted_keyERSH_
zpf:_UnmanagedMarshal_ToMarshalAsAttribute_m3695569337
vEc:__ZNK5physx7NpCloth25getMotionConstraintConfigEv
Jqb:__Z14resize_trimmedINSt3__26vectorI17AnimationCurveTplIfE13stl_allocatorIS3_L18MemLabelIdentifier1ELi16EEEEEvRT_j
kOa:__ZN25CameraStackRenderingState19SetupLastEyeCamerasERK11CameraStack
H0a:__Z12GUIDToStringRK9UnityGUID
HXh:__ZN6il2cpp6icalls8mscorlib6System4Enum12get_hashcodeEP12Il2CppObject
Os:__ZN11SoundHandleC2ERKS_
Cth:__ZNK6il2cpp5utils11collections13ArrayValueMapIPK10Il2CppType17Il2CppInteropData26InteropDataToTypeConverterNS_8metadata14Il2CppTypeLessENS8_26Il2CppTypeEqualityComparerEE10find_firstERKS5_
vnf:_GenericTypeParameterBuilder_GetGenericTypeDefinition_m2936287336
JEe:_BigInteger_op_Addition_m1196561843
vCg:_FormatterData__ctor_m3974986124
xFd:_RijndaelManagedTransform_get_CanReuseTransform_m3735256596
mcc:__ZN5physx3Cct26CharacterControllerManager24setOverlapRecoveryModuleEb
v1d:_Comparer__cctor_m1327316974
_re:_MonoIO_ExistsFile_m1421941572
pbe:_DateTime_op_GreaterThanOrEqual_m3818963848
P6a:__ZN14RenderSettings18TransferDeprecatedI14SafeBinaryReadEEvRT_
gI:__ZN12TLSAllocatorI14StackAllocatorE8AllocateEji
kP:__ZN16ScriptingManager18GetMonoScriptCacheEi
nsh:__ZN13dynamic_arrayIPK10Il2CppTypeLj4EEC2ERKS3_
Rph:__ZN15dense_hashtableINSt3__24pairIK10KeyWrapperIPK11Il2CppClassEPKcEES6_N6il2cpp5utils11PointerHashIS3_EEN14dense_hash_mapIS6_S9_SE_NS6_14EqualsComparerINS0_8equal_toIS5_EEEENS0_9allocatorISA_EEE9SelectKeyESJ_SL_E15set_deleted_keyERKSA_
upb:__Z18Transfer_BlittableI14SafeBinaryReadLb1EyEvRK29SerializationCommandArgumentsR31RuntimeSerializationCommandInfo
oVb:__ZN8JSONRead8TransferIfEEvRT_PKc17TransferMetaFlagsb
$Zc:__ZN5physx2Sc5Scene9addStaticEPNS_7PxActorERNS0_19BatchInsertionStateEPNS_9PxBounds3E
cci:__ZNSt3__212basic_stringIcNS_11char_traitsIcEENS_9allocatorIcEEE6appendEPKcj
Q8f:__ZL54TypeBuilder_t3308873219_CustomAttributesCacheGeneratorP21CustomAttributesCache
gFc:__ZN5physx7NpCloth25setSelfCollisionStiffnessEf
Omf:_GenericTypeParameterBuilder_GetAttributeFlagsImpl_m3338182267
lA:__ZN13Simd4iFactoryIN6detail9FourTupleEEC2Eiiii
twe:_SynchronizedReader__ctor_m1408327515
QTg:_X509Store_LoadCrl_m1146720614
$xa:__ZZ23InitPlayerLoopCallbacksvEN38PostLateUpdateShaderHandleErrorsstruct7ForwardEv
N9a:__ZN15SerializeTraitsI33EnlightenTerrainChunksInformationE8TransferI14SafeBinaryReadEEvRS0_RT_
fLb:__ZNK32RendererMaterialAnimationBinding9BindValueER6ObjectRKN11UnityEngine9Animation14GenericBindingERNS3_10BoundCurveE
qZg:__Z112RuntimeInvoker_Int32_t2071877448_Il2CppObject_Int32_t2071877448_Int32_t2071877448_Il2CppObject_Int32_t2071877448PK10MethodInfoPvPS2_
A9:__ZL18stbir__support_onef
MJg:_List_1_System_Collections_IList_Remove_m2040310137_gshared
mXb:__Z26Transfer_UnityEngineObjectI9JSONWriteLb0EEvRK29SerializationCommandArgumentsR31RuntimeSerializationCommandInfo
OX:__ZN9ShaderLab4Pass9ApplyPassEjPK19ShaderPropertySheetR17ShaderPassContextP6ShaderiPKNS_10GrabPassesEPNS_11SubProgramsE
x1:__ZNSt3__26vectorIN4core12basic_stringIcNS1_20StringStorageDefaultIcEEEE13stl_allocatorIS5_L18MemLabelIdentifier1ELi16EEE6assignINS_11__wrap_iterIPS5_EEEENS_9enable_ifIXaasr21__is_forward_iteratorIT_EE5valuesr16is_constructibleIS5_NS_15iterator_traitsISF_E9referenceEEE5valueEvE4typeESF_SF_
J_f:_UInt32_System_IConvertible_ToInt16_m2251335934_AdjustorThunk
mqh:__ZN14dense_hash_mapI10KeyWrapperIPKcEP11Il2CppClassN6il2cpp5utils11StringUtils12StringHasherIS2_EENS3_14EqualsComparerINS8_21CaseSensitiveComparerEEENSt3__29allocatorINSE_4pairIKS3_S5_EEEEE13set_empty_keyERSH_
TTg:__Z31RuntimeInvoker_Void_t1841601450PK10MethodInfoPvPS2_
dWd:_Boolean_System_IConvertible_ToType_m3990189691
Ba:invoke_vdd
mn:FUNCTION_TABLE_fiii
qfe:_Double_System_IConvertible_ToUInt32_m624993430
lWf:_Scheduler_Add_m376749205
K6h:__ZN6il2cpp6icalls8mscorlib4Mono8Security12Cryptography18KeyPairPersistence19_IsMachineProtectedEP12Il2CppString
oUh:__ZN15dense_hashtableINSt3__24pairIK10KeyWrapperINS1_IPKcS4_EEEiEES6_24NamespaceAndNamePairHashN14dense_hash_mapIS6_iS9_NS6_14EqualsComparerI26NamespaceAndNamePairEqualsEENS0_9allocatorIS8_EEE9SelectKeyESD_SF_E12resize_deltaEjj
hKb:__Z14RandomRotationP9Texture2DPhiiii
Tud:__ZThn132_N5physx7profile8ZoneImplINS_28PxProfileNameProviderForwardEED1Ev
UTc:__ZN5physx7NpScene27setCCDContactModifyCallbackEPNS_26PxCCDContactModifyCallbackE
Dod:__ZNK5physx17ConvexHullBuilder17ComputeGeomCenterERNS_6PxVec3E
Obe:_DateTimeOffset_ToString_m2121173678_AdjustorThunk
S6c:__ZN3MBPD0Ev
$i:_JS_WebRequest_SetResponseHandler
umi:_glDeleteProgram__wrapper
oSb:__Z50Register_UnityEngine_Camera_INTERNAL_get_pixelRectv
f4:__ZN6prcoreL18BlitFloatToIntegerERK14ImageReferenceRS0_
DKe:_X509CertificateCollection_get_Item_m410866272
$Wc:__ZNK5physx10PxsContext18getBounceThresholdEv
aD:__ZN11UnityEngine15CloudWebService14RestDownloader17OnCompleteContentEv
WCh:__ZN15dense_hashtableINSt3__24pairIK10KeyWrapperINS1_IPK14Il2CppAssemblyP11Il2CppClassEEEjEES9_17ReflectionMapHashIS8_EN14dense_hash_mapIS9_jSD_NS9_14EqualsComparerINS0_8equal_toIS8_EEEENS0_9allocatorISB_EEE9SelectKeyESI_SK_E15insert_noresizeERKSB_
bSc:__ZN5physx6shdfnd5ArrayIPvNS0_15InlineAllocatorILj256ENS0_19ReflectionAllocatorINS_2Gu31SpherePersistentContactManifoldEEEEEE15growAndPushBackERKS2_
ijd:__ZN5physx2Cm18DelegateFanoutTaskINS_2Sc5SceneEXadL_ZNS3_17finalizationPhaseEPNS_10PxBaseTaskEEEE11runInternalEv
yL:__ZNSt3__26vectorI20ProcessCallbackGroupNS_9allocatorIS1_EEEC2ERKS4_
Qa:invoke_vifff
rTb:__Z53Register_UnityEngine_Input_INTERNAL_get_mousePositionv
eli:_glGetVertexAttribiv__wrapper
Puc:__ZN5physx6shdfnd15atomicDecrementEPVi
He:_emscripten_request_fullscreen
mH:__ZN20LocalFileSystemWebGL6DeleteER13FileEntryDatab
Sce:_Decimal_System_IConvertible_ToUInt16_m1621568250
Je:_emscripten_glDisableVertexAttribArray
Nm:FUNCTION_TABLE_iiiifiiii
gXf:_TimeSpan_get_TotalMinutes_m1645177229_AdjustorThunk
wv:__ZN4FMOD5Sound15getNumSubSoundsEPi
nka:__ZN4gles23ClearCurrentFramebufferEP7ApiGLESbbbRK10ColorRGBAffi
jod:__ZN5physx2Gu11HeightField13releaseMemoryEb
Ue:_emscripten_glDeleteObjectARB
Qf:_IMG_Load
jxe:_UnexceptionalStreamReader_Read_m3839775235
g5:__ZN6prcoreL17RemapGenericFloatI17TexFormatRGBAHalf18TexFormatARGBFloatEEvPKNS_9InnerInfoE
Yfe:_Enum_System_IConvertible_ToInt32_m2459904362
Ycd:__ZN5physx24PxsParticleSystemBatcher23scheduleShapeGenerationEPPNS_20PxvParticleSystemSimEPNS_28PxvParticleShapesUpdateInputEjRNS_10PxBaseTaskE
hQe:_ContentInfo__ctor_m3871771681
I2d:_Enumerator__cctor_m298562758
Ore:_DirectoryInfo_Initialize_m2216118894
HLd:_WindowsIdentity_Dispose_m2649088337
DUc:__ZN5physx7NpScene17flushQueryUpdatesEv
tze:_MonoType_GetMethodImpl_m593754598
az:__ZZL31InitializeAudioManagerCallbacksvEN33FixedUpdateAudioFixedUpdatestruct7ForwardEv
kDb:__ZNSt3__26vectorIN9ShaderLab20SerializedSubProgramENS_9allocatorIS2_EEE6assignIPS2_EENS_9enable_ifIXaasr21__is_forward_iteratorIT_EE5valuesr16is_constructibleIS2_NS_15iterator_traitsIS9_E9referenceEEE5valueEvE4typeES9_S9_
fZb:__Z18Transfer_BlittableI8JSONReadLb0E8BitFieldEvRK29SerializationCommandArgumentsR31RuntimeSerializationCommandInfo
Abf:_SoapServices_RegisterInteropXmlType_m2949236705
tTa:__ZN17PersistentManagerC2Eii
mxb:__ZL17Transfer_GUIStyleI18StreamedBinaryReadILb1EELb0EEvRK29SerializationCommandArgumentsR31RuntimeSerializationCommandInfo
_Pd:_String_CharCopy_m2550399897
BHb:__ZN11TypeManager20RegisterNonClassTypeEiP4RTTIPKcS3_
VUc:__ZN5physx7NpScene10unlockReadEv
zBb:__ZN9ShaderLab14SerializedPass8TransferI14SafeBinaryReadEEvRT_
Vy:__ZN12AudioManager16SetListenerPauseEb
wPh:__ZN6il2cpp2vm9Exception25RaiseOutOfMemoryExceptionERKNS_5utils10StringViewIDsEE
OLg:_Collection_1_IsValidItem_m2254106115_gshared
$lf:_TypeBuilder_GetEvent_m3876348075
ea:invoke_viiiiiiiiiii
M8h:___syscall_ret
oWf:_Scheduler__ctor_m3716265742
HHe:_MACAlgorithm_Final_m4076939925
bNh:__ZNSt3__212basic_stringIcNS_11char_traitsIcEENS_9allocatorIcEEE6assignINS_11__wrap_iterIPKcEEEENS_9enable_ifIXaasr21__is_forward_iteratorIT_EE5valuesr38__libcpp_string_gets_noexcept_iteratorISC_EE5valueERS5_E4typeESC_SC_
adb:__ZN11ChannelInfo8TransferI19StreamedBinaryWriteILb0EEEEvRT_
Pwf:_InternalEnumerator_1_System_Collections_IEnumerator_get_Current_m3583252352_gshared
ilb:__ZN23ArchiveStorageConverter24ReadHeaderFromMemoryFileEv
Clf:_EnumBuilder_get_FullName_m2818393911
xGc:__ZN5physx2Sc9ClothCore22setFrictionCoefficientEf
mFa:__ZN14qsort_internal13Partition3WayIP17RODataReplacementi19ROSorterReplacementEENSt3__24pairIT_S6_EES6_S6_T0_T1_
vAc:__ZNK5physx9NpPhysics17getNbConvexMeshesEv
qUc:__ZNK5physx7NpScene29getContactCorrelationDistanceEv
kTb:__Z34Register_UnityEngine_Gradient_Initv
WSf:_Array_InternalArray__get_Item_TisUriScheme_t1876590943_m1821482697_gshared
KRf:_Array_Sort_TisIl2CppObject_m1954851512_gshared
lMe:_BigInteger__ctor_m3239748086
JG:__ZN13ScreenManager23SetIsOrientationEnabledE18EnabledOrientationb
_gb:__ZN9InputAxis8TransferI19StreamedBinaryWriteILb0EEEEvRT_
TIb:__ZN13ProduceHelperI9TransformLb0EE7ProduceE18MemLabelIdentifier18ObjectCreationMode
Sdc:__ZN5physx6shdfnd8SyncImpl4waitEj
Zdh:_Component_SendMessageUpwards_m19741277
_Of:_Array_InternalArray__ICollection_Add_TisHitInfo_t1761367055_m2956071622_gshared
YQa:__ZN10GameObject23VirtualRedirectTransferER18StreamedBinaryReadILb0EE
kg:_glFrontFace
vdf:_ObjectRecord_get_IsUnsolvedObjectReference_m2202692850
h6e:_FactoryCache_Cleanup_m4130035987
vIb:__ZN13ProduceHelperI19LowerResBlitTextureLb0EE7ProduceE18MemLabelIdentifier18ObjectCreationMode
iWc:__ZN5physx13NpVolumeCache17getNbCachedShapesEv
wKa:__ZNSt3__26vectorI16ShadowCasterData13stl_allocatorIS1_L18MemLabelIdentifier2ELi16EEE21__push_back_slow_pathIKS1_EEvRT_
Yzh:__ZN6il2cpp6icalls8mscorlib6SystemL16GetFieldFromTypeINS_5utils10functional6FilterINSt3__212basic_stringIcNS7_11char_traitsIcEENS7_9allocatorIcEEEENS4_11StringUtils23CaseInsensitiveComparerEEEEEP21Il2CppReflectionFieldP11Il2CppClassSK_iRKT_
l$f:_UInt32_ToString_m1783596809
kTg:_X509ExtensionCollection_get_Item_m4212651995
nNg:_ReadOnlyCollection_1_System_Collections_IList_RemoveAt_m525136953_gshared
x4:__ZN6prcoreL17RemapGenericFloatI17TexFormatRGBFloat18TexFormatRGBAFloatEEvPKNS_9InnerInfoE
MXc:__ZN5physx2Sc5Scene15getRenderBufferEv
q$f:_UInt64_System_IConvertible_ToBoolean_m3012279573_AdjustorThunk
gZf:_Type_get_IsGenericTypeDefinition_m2147901038
ova:__ZN12HandlerChain10ToAbsoluteEPKc
$ie:_GregorianCalendar__ctor_m3794576475
g$f:_UInt32_TryParse_m4283512434
smb:__ZN13MonoBehaviour23VirtualRedirectTransferER19StreamedBinaryWriteILb0EE
Fs:__ZN9AudioClip11CreateSoundEv
vMg:_Collection_1_ConvertItem_m2185647560_gshared
NXf:_TimeSpan_op_Inequality_m257547441
_Uf:_ExecutionContext_GetObjectData_m1456913356
mJh:__ZN14dense_hash_mapI10KeyWrapperINSt3__24pairIPK9FieldInfoP11Il2CppClassEEEj17ReflectionMapHashIS8_ENS9_14EqualsComparerINS1_8equal_toIS8_EEEENS1_9allocatorINS2_IKS9_jEEEEEC2EjRKSB_RKSF_
Yhh:_Object_set_hideFlags_m2204253440
OEh:__ZNK15dense_hashtableINSt3__24pairIK10KeyWrapperINS1_IPK10MethodInfoP11Il2CppClassEEEjEES9_17ReflectionMapHashIS8_EN14dense_hash_mapIS9_jSD_NS9_14EqualsComparerINS0_8equal_toIS8_EEEENS0_9allocatorISB_EEE9SelectKeyESI_SK_E13find_positionERSA_
Uub:__Z18Transfer_BlittableI19StreamedBinaryWriteILb0EELb0E8Vector2fEvRK29SerializationCommandArgumentsR31RuntimeSerializationCommandInfo
Uke:_DateTimeFormatInfo_get_RoundtripPattern_m562440017
MCd:__ZN11UnityEngine7Connect16PersistentValues13RestoreValuesER8JSONRead
Wwa:__ZN20ArchiveStorageReader31TryToReadDirectoryFromBlockDataEyPKvj
Xee:_Double_System_IConvertible_ToByte_m3004284950_AdjustorThunk
ved:__ZNK5physx2Gu11HeightField17getHeightInternalEff
ESh:__ZN6il2cpp2vmL11GetIdentityEP14Il2CppIUnknown
gHe:_SmallXmlParser_ReadCDATASection_m2558307107
f2h:_GC_push_gc_structures
KTc:__ZNK5physx7NpScene22getClientBehaviorFlagsEh
i$e:_ServicePointManager_get_ServerCertificateValidationCallback_m1409951209
aBc:__ZN5physx9NpFactory14createMaterialEfff
$3d:_Enumerator_get_Current_m1271212567
oA:__ZN5physx5cloth11PhaseConfigC2Et
ryd:__ZN13PhysicsModule21OverlapBoxUserCollectERK8Vector3fS2_RK11Quaternionfi23QueryTriggerInteractionRN8IPhysics12IUserCollectE
Y$e:_IPAddress_ParseIPV6_m2209709575
uSc:__ZThn8_N5physx2Sc19ShapeInstancePairLLD0Ev
v9c:__ZN5physx19PxcContactSphereBoxERKNS_2Gu13GeometryUnionES3_RKNS_11PxTransformES6_RKfRNS_10PxcNpCacheERNS0_13ContactBufferE
YTc:__ZNK5physx7NpScene21getBroadPhaseCallbackEh
vjc:__ZN5physx6shdfnd5ArrayIPNS_12PxConstraintENS0_19ReflectionAllocatorIS3_EEE15growAndPushBackERKS3_
Cqc:__ZNK5physx2Sc15ArticulationSim11checkResizeEv
VM:__ZN8keywords6CreateEPKc
z4b:__ZN5physx2Gu11gjkRelativeINS0_8CapsuleVENS0_11ConvexHullVEEEjRKT_RKT0_RKNS_6shdfnd3aos15PsMatTransformVERNSB_5Vec3VESG_SG_RNSB_6FloatVE
cWg:__Z89RuntimeInvoker_Il2CppObject_Il2CppObject_Int32_t2071877448_Int32_t2071877448_Il2CppObjectPK10MethodInfoPvPS2_
qub:__ZN24GenerateTypeTreeTransfer8TransferINSt3__26vectorI17AnimationCurveTplIfE13stl_allocatorIS4_L18MemLabelIdentifier1ELi16EEEEEEvRT_PKc17TransferMetaFlags
S:Math_imul
jcb:__ZN11PlayerPrefs6GetIntERKN4core12basic_stringIcNS0_20StringStorageDefaultIcEEEEi
ajh:_Physics_Raycast_m2036777053
ggh:_PlayableHandle_Equals_m1435096530
y2d:_Hashtable_ContainsKey_m2716576664
Qtg:_PatternCompiler_EmitCategory_m1696942454
bde:_Decimal_decimalFloorAndTrunc_m3655683429
pPf:_Array_InternalArray__ICollection_CopyTo_TisInt32_t2071877448_m984622488_gshared
rK:__ZN18ScriptingArguments9AddObjectE18ScriptingObjectPtr
NA:__ZN11UnityEngine15CloudWebService16SessionContainerD2Ev
wii:_emscripten_glStencilOpSeparate__wrapper
Aka:__ZN17GenericDynamicVBOC2ER9GfxDevice13GfxBufferModejj
VCg:_Context_get_HasDynamicSinks_m1998518649
$Pc:__ZNK5physx2Sc5Scene7isValidEv
eC:__ZN11UnityEngine15CloudWebService17SessionEventQueue10PurgeItemsEj
$Vc:__ZN5physx2Sq17SceneQueryManager29setDynamicTreeRebuildRateHintEj
xPa:__ZN6Camera16StandaloneRenderENS_10RenderFlagEP6ShaderRKN4core12basic_stringIcNS3_20StringStorageDefaultIcEEEE
tTd:_Array_System_Collections_IList_get_Item_m2088124007
NTd:_Array_GetLength_m2083296647
m0d:_SynchronizedArrayListWrapper_ToArray_m1522185111
Nwb:__Z18Transfer_BlittableI18StreamedBinaryReadILb1EELb1EtEvRK29SerializationCommandArgumentsR31RuntimeSerializationCommandInfo
yfa:__ZN9GfxDevice20DeallocRenderSurfaceEP17RenderSurfaceBase
rpc:__ZN5physx6shdfnd5ArrayIPvNS0_19ReflectionAllocatorINS_18NpArticulationLinkEEEE4copyINS0_15InlineAllocatorILj256ES5_EEEEvRKNS1_IS2_T_EE
e1f:_ValueType_ToString_m3796301715
G0b:__ZNK5physx3Cct10Controller12getKineShapeEv
Lhc:__ZN5physx6shdfnd4sortIPvNS0_4LessIS2_EENS0_19ReflectionAllocatorINS_2Sc18TriggerInteractionEEEEEvPT_jRKT0_RKT1_j
d2a:__ZN12BaseRenderer23RendererBecameInvisibleEv
kOc:__ZNK5physx2Sc8BodyCore14getMaxAngVelSqEv
Hub:__Z29Transfer_Blittable_ArrayFieldI24GenerateTypeTreeTransferfEvRT_R9ArrayInfoRK23StaticTransferFieldInfo
i2g:__Z51RuntimeInvoker_Single_t2076509932_Int16_t4041245914PK10MethodInfoPvPS2_
pSa:__ZN19CustomRenderTexture9AddParentE4PPtrIS_E
zbb:__ZN8Gradient8TransferI14SafeBinaryReadEEvRT_
w1:__ZNSt3__26vectorIN4core12basic_stringIcNS1_20StringStorageDefaultIcEEEE13stl_allocatorIS5_L18MemLabelIdentifier1ELi16EEE7reserveEj
m$e:_FileWebRequest__ctor_m4003648606
_fe:_Enum_System_IConvertible_ToSByte_m3488526280
Lhh:_MonoBehaviour_StopAllCoroutines_m1675795839
uad:__ZN5physx2Gu32PCMConvexVsMeshContactGeneration15processTriangleEPKNS_6PxVec3EjhPKj
fH:__ZNK20LocalFileSystemPosix9IsSymLinkERK13FileEntryData
$0h:_GC_new_free_list_inner
aJf:_DefaultComparer_Equals_m85211180_gshared
lze:_MonoType_InternalGetEvent_m532443236
Ydd:__ZN5physx6shdfnd5ArrayINS_2Cm8Matrix34ENS0_19ReflectionAllocatorIS3_EEE15growAndPushBackERKS3_
Bad:__ZN5physx2Gu32PCMConvexVsMeshContactGeneration31generatePolyDataContactManifoldERNS0_9TriangleVEjjhPNS0_21MeshPersistentContactERjRKNS_6shdfnd3aos6FloatVERNS8_5Vec3VE
eqd:__ZN5physx10SubSortSAH5splitEPjj
RZb:__ZN8JSONRead8TransferI10RectOffsetEEvRT_PKc17TransferMetaFlagsb
OB:__ZN9JSONWrite8TransferIN11UnityEngine15CloudWebService14DataErrorEvent15FileErrorDetailEEEvRT_PKc17TransferMetaFlags
CQd:_Decoder__ctor_m2623573910
$5b:__ZN5physx2Gu3EPA8addFacetEjjjRKNS_6shdfnd3aos6FloatVES6_
Bv:__ZN12SoundManager20RegisterModifiedClipEP10SampleClip
egb:__ZN12MeshRenderer15AddAsRenderNodeER15RenderNodeQueueRK20DeprecatedSourceData
OXg:__Z108RuntimeInvoker_Void_t1841601450_Il2CppObject_Int64_t909078037_Il2CppObject_Int64_t909078037_Int64_t909078037PK10MethodInfoPvPS2_
Jdc:__ZN5physx3Cct9CCTParamsC2Ev
jrh:__ZN15dense_hashtableI10KeyWrapperIPK17Il2CppGenericInstES4_N6il2cpp8metadata21Il2CppGenericInstHashEN14dense_hash_setIS4_S7_NS4_14EqualsComparerINS6_24Il2CppGenericInstCompareEEENSt3__29allocatorIS4_EEE8IdentityESB_SE_E13set_empty_keyERKS4_
YDc:__ZN5physx7NpCloth21setStiffnessFrequencyEf
Y2c:__ZN5physx17PxcSweepBoxConvexERKNS_11PxsCCDShapeES2_PKNS_12PxsRigidBodyES5_RKNS_11PxTransformES8_S8_S8_fRNS_6PxVec3ESA_RNS_10PxcNpCacheERNS_18PxcNpThreadContextEf
qmd:__ZThn8_N5physx2Gu11HeightField14onRefCountZeroEv
cSg:_X501__cctor_m2610532554
dhc:__ZN5physx2Sc5Actor9setActiveEbj
h8a:__ZN7Cubemap23VirtualRedirectTransferER18StreamedBinaryReadILb0EE
RSe:_RecordProtocol_EncodeRecord_m3884270352
iae:_DateTime_System_IConvertible_ToType_m3821835592
zhc:__ZN5physx2Sc10NPhaseCore28reserveContactReportPairDataEjjRj
e9d:_Convert_ToUInt32_m776714429
F4b:__ZN5physx2Gu22barycentricCoordinatesERKNS_6shdfnd3aos5Vec3VES5_S5_RNS2_6FloatVE
Qta:__ZN12FileAccessor4SeekEx10FileOrigin
Htb:__ZL26Transfer_SimpleNativeClassI24GenerateTypeTreeTransfer17AnimationCurveTplIfELb0EEvRK29SerializationCommandArgumentsR31RuntimeSerializationCommandInfo
yod:__ZL18TestUnifiedNormalsjPKN5physx6PxVec3EjPNS_2Gu9TriangleTIjEEb
Hsh:__ZN15dense_hashtableINSt3__24pairIK10KeyWrapperI13dynamic_arrayIPK10Il2CppTypeLj4EEEPFvvEEES8_N6il2cpp8metadata19Il2CppSignatureHashEN14dense_hash_mapIS8_SB_SF_NS8_14EqualsComparerINSE_22Il2CppSignatureCompareEEENS0_9allocatorISC_EEE9SelectKeyESJ_SL_E4swapERSO_
JT:__ZN16LightmapSettings20DidChangeActiveSceneEP10UnitySceneS1_
F4a:__ZNK17InstancedPropInfo15RenderInstancesERK15RenderNodeQueuePK17BatchInstanceDataj17ShaderChannelMask
hzh:__ZN6il2cpp5utils9PathUtils8BasenameIcEENSt3__212basic_stringIT_NS3_11char_traitsIS5_EENS3_9allocatorIS5_EEEERKSA_
Uw:__ZN10AudioMixer11SetupGroupsEv
TBg:_ClientIdentity_CreateObjRef_m3625915063
fIe:_PrivateKeyInfo_DecodeRSA_m1427048948
IPh:__ZN6il2cpp2vm9Exception23GetInvalidCastExceptionERKNS_5utils10StringViewIDsEE
Mif:_Assembly_FillName_m1934025015
uza:_UNITY_png_free
Dgi:_emscripten_glDepthRange__wrapper
OOd:_String_IndexOf_m2126171214
oqe:_Int64_ToString_m1544341651_AdjustorThunk
$kd:__ZNK5physx13GuMeshFactory17getNbConvexMeshesEv
ome:_Guid_CheckNull_m2903986431
bO:__Z63ThreadAndSerializationSafeCheckGetMonoBehaviourBeingTransferredv
L3h:_GC_enable
MUe:_TlsClientCertificateVerify_ProcessAsSsl3_m3377063356
eYg:__Z97RuntimeInvoker_Il2CppObject_Il2CppObject_Int32_t2071877448_Il2CppObject_Il2CppObject_Il2CppObjectPK10MethodInfoPvPS2_
q_f:_UInt16_ToString_m4213290405
qBg:_ChannelServices_RegisterChannel_m3832858065
fge:_Enum_GetName_m1226611481
U$g:__Z113RuntimeInvoker_Il2CppObject_Byte_t3683104436_Il2CppObject_SByte_t454417549_Il2CppObject_Il2CppObject_Il2CppObjectPK10MethodInfoPvPS2_
odb:__ZN14Texture2DArray23VirtualRedirectTransferER18StreamedBinaryReadILb0EE
wwg:_Literal_CompileLiteral_m276843152
UJa:__ZN14qsort_internal30FindAndMovePivotToLastPositionIP20ShadowCasterSortDatai26ShadowCasterSortDataSorterEEvT_S4_T0_T1_
Cob:__Z18Transfer_BlittableI14SafeBinaryReadLb1EiEvRK29SerializationCommandArgumentsR31RuntimeSerializationCommandInfo
lba:__ZN17PersistentManager13GetAllFileIDsERKN4core12basic_stringIcNS0_20StringStorageDefaultIcEEEER13dynamic_arrayIxLj8EE
t1g:__Z72RuntimeInvoker_Il2CppObject_IntPtr_t_Int32_t2071877448_Int32_t2071877448PK10MethodInfoPvPS2_
NUd:_Array_LastIndexOf_m4096535198
q_d:_ArrayList_Add_m1719188324
eyc:__ZN18MultiQueryCallbackIN5physx12PxOverlapHitEE6invokeERfPKNS0_2Sq13PrunerPayloadEj
zfi:dynCall_vifiiiiiiiiiiiiiiiiiiiiiii
lfe:_Double_System_IConvertible_ToSByte_m1653690240_AdjustorThunk
n8b:__ZN5physx2Gu18gjkRelativeRayCastINS0_4BoxVES2_NS0_10ShrunkBoxVES3_EEbRT_RT0_RKNS_6shdfnd3aos15PsMatTransformVERKNS9_6FloatVERKNS9_5Vec3VESI_RSD_RSG_SK_fb
uk:_glGetStringi
Ndb:__ZN18StreamedBinaryReadILb0EE21TransferSTLStyleArrayI13dynamic_arrayI8Vector4fLj4EEEEvRT_17TransferMetaFlags
U3e:_X509Store__ctor_m1573680316
h4e:_X509Chain_get_CertificateCollection_m324631835
sNf:_Array_InternalArray__IndexOf_TisClientCertificateType_t4001384466_m1168139450_gshared
SDa:__ZN9Coroutine16SetCurrentMethodE18ScriptingMethodPtr
oLd:_StringBuilder_Append_m3618697540
Vve:_StreamWriter__ctor_m4232641237
KId:_SymmetricAlgorithm_set_IV_m4262655606
tkf:_CustomAttributeNamedArgument_GetHashCode_m3715408876_AdjustorThunk
m3e:_X509Certificate2_AppendBuffer_m3517242299
RNa:__Z35IntersectSpherePlaneBoundsOptimizedRKN4math7_float4EPS1_i
Mie:_CultureInfo_get_IsNeutralCulture_m3874876470
Rde:_Delegate_CreateDelegate_m3813023227
vfc:__ZN5physx2Sc8ShapeSim20createLowLevelVolumeEjRKNS_9PxBounds3EjNS_9AABBMgrIdE
Hyg:_Uri_get_AbsoluteUri_m2120317928
bEc:__ZNK5physx7NpCloth22getAngularInertiaScaleEv
aac:__ZN26IntersectAnyVsMeshCallbackILi1ELb1EE10processHitERKN5physx12PxRaycastHitERKNS1_6PxVec3ES7_S7_RfPKj
mT:__Z22CleanupLODGroupManagerPv
uXc:__ZN5physx6shdfnd5ArrayINS_2Sc5Scene14SimpleBodyPairENS0_19ReflectionAllocatorIS4_EEE8recreateEj
dl:_glUniform3fv
Wib:__ZNSt3__218__insertion_sort_3IRN15ResourceManager10Dependency6SorterEPS2_EEvT0_S6_T_
Wye:_IntComparer_Compare_m3057931085
BIa:__ZNK16LightmapSettings31GetRealtimeLightmapDecodeValuesEv
px:__ZN5audio5mixer12SetSuspendedERNS0_16AudioMixerMemoryEb
b7:__ZN17PersistentManager21UnloadNonDirtyStreamsEv
qRh:__ZN6il2cpp2vm13LivenessStateC2EP11Il2CppClassjPFvPP12Il2CppObjectiPvES7_PFvvESB_
D1e:_Oid__ctor_m1936781897
pih:_Object_INTERNAL_CALL_Internal_InstantiateSingleWithParent_m1401308849
Buf:_ResourceSet__ctor_m1222864106
Iid:__ZN5physx2Sc5Scene13ccdBroadPhaseEPNS_10PxBaseTaskE
zl:_emscripten_glDepthMask
wad:__ZN5physx2Gu24PCMMeshContactGeneration15processContactsEhb
Fla:__ZN4crnd25static_huffman_data_model22prepare_decoder_tablesEv
aKb:__ZN16ReflectionProbesD2Ev
DRf:_Array_Sort_TisIl2CppObject_TisIl2CppObject_m1915706600_gshared
RMe:_ModulusRing_Difference_m662924064
uJ:__ZL22CleanupUnityWebStreamsPv
ntg:_Regex_get_RightToLeft_m529734879
Tyb:__Z18Transfer_BlittableI18StreamedBinaryReadILb0EELb0E10ColorRGBAfEvRK29SerializationCommandArgumentsR31RuntimeSerializationCommandInfo
j_e:_ListDictionary_Add_m4276262662
OT:__Znaj
ZFd:_RIPEMD160Managed_GGG_m1639995340
Umi:_emscripten_glEnableClientState__wrapper
HJ:__ZN17MessageIdentifierC2EPKcNS_7OptionsEPKN5Unity4TypeES1_
I6h:__ZN6il2cpp6icalls8mscorlib4Mono8Security12Cryptography18KeyPairPersistence15_ProtectMachineEP12Il2CppString
bMf:_Enumerable_Any_TisIl2CppObject_m2208185096_gshared
L4c:__ZN5physxL26solveFriction4_StaticBlockEPKNS_23PxcSolverConstraintDescERNS_16PxcSolverContextE
GTd:_Array_System_Collections_IList_Remove_m2438892375
Wve:_TextWriter__ctor_m2225796097
_Ya:__ZN14SafeBinaryRead8TransferI14ConstantStringEEvRT_PKc17TransferMetaFlags
vlh:_ScriptableObject_Internal_CreateScriptableObject_m1778903390
p9c:__ZN5physx30PxcGetMaterialShapeHeightFieldEPKNS_12PxsShapeCoreES2_RNS_18PxcNpThreadContextEPNS_15PxsMaterialInfoE
D_:__ZNK6Camera16GetStereoEnabledEv
JKb:__ZN12LightManager15InitializeClassEv
rjd:__ZN5physx6shdfnd8PoolBaseINS_2Sc19ParticlePacketShapeENS0_19ReflectionAllocatorIS3_EEE12allocateSlabEv
D$:__ZN9ShaderLab11shaderprops16GetComputeBufferEPK19ShaderPropertySheetS3_NS_16FastPropertyNameE
HP:__ZN23ManagedAttributeManager35CallManagedGetDefaultExecutionOrderE17ScriptingClassPtr
VXf:_TimeZone_IsDaylightSavingTime_m875882154
uii:_emscripten_glBlendFuncSeparate__wrapper
_Wg:__Z52RuntimeInvoker_Single_t2076509932_Decimal_t724701077PK10MethodInfoPvPS2_
GRe:_CipherSuiteCollection_System_Collections_IList_set_Item_m750275607
yDa:__ZNK25CameraStackRenderingState27GetStereoImageEffectTextureEb
sHd:_SHA1CryptoServiceProvider__ctor_m3127563759
vp:__ZN8Vector3f8TransferI14SafeBinaryReadEEvRT_
eo:FUNCTION_TABLE_ii
AD:__ZNSt3__26__treeINS_12__value_typeIN4core12basic_stringIcNS2_20StringStorageDefaultIcEEEES6_EENS_19__map_value_compareIS6_S7_NS_4lessIS6_EELb1EEENS_9allocatorIS7_EEE16__construct_nodeERKNS_4pairIKS6_S6_EE
SWb:__Z18Transfer_BlittableI9JSONWriteLb0E8BitFieldEvRK29SerializationCommandArgumentsR31RuntimeSerializationCommandInfo
k$f:_UInt32_ToString_m3894907091_AdjustorThunk
nb:invoke_diiii
f9b:__ZL17sweepVolumeVsMeshPKN5physx3Cct9SweepTestEPKNS0_11TouchedMeshERNS0_12SweptContactERKNS_6PxVec3ERKNS_10PxGeometryERKNS_11PxTransformEjPKNS_10PxTriangleEj
YGe:_SmallXmlParser_Error_m1832158746
tk:_glDeleteVertexArrays
Kdd:__ZN5physx2Gu31checkOverlapOBB_heightFieldGeomERKNS_10PxGeometryERKNS_11PxTransformERKNS0_3BoxE
pVa:__Z24CreateDirectoryRecursiveRKN4core12basic_stringIcNS_20StringStorageDefaultIcEEEE
fEb:__ZN9ShaderLab20SerializedSubProgram8TransferI18StreamedBinaryReadILb0EEEEvRT_
wve:_StreamAsyncResult_get_AsyncWaitHandle_m4218169359
Sgi:b40
X1b:__ZN5physx2Gu23findRotationMatrixFromZERKNS_6PxVec3E
_9:__ZN9Texture3D8TransferI19StreamedBinaryWriteILb0EEEEvRT_
PEa:__ZNK6Camera22CalculateRenderingPathEv
gYb:__ZN9JSONWrite8TransferI5RectTIfEEEvRT_PKc17TransferMetaFlags
gWc:__ZN5physx13NpVolumeCache10invalidateEv
Bsb:__ZL12InvokeMethodI17RemapPPtrTransferEvRK29SerializationCommandArgumentsR31RuntimeSerializationCommandInfo
uKe:_X509Certificate_get_PublicKey_m714501701
$Od:_String_LastIndexOf_m290475879
rCf:_InternalEnumerator_1_System_Collections_IEnumerator_get_Current_m1658267053_gshared
l4h:__ZN6il2cpp6icalls8mscorlib6System9Threading16NativeEventCalls20CreateEvent_internalEbbP12Il2CppStringPb
Wfc:__ZN5physx6shdfnd5ArrayIPvNS0_19ReflectionAllocatorINS_2Sc10NPhaseCore16ClothListElementEEEE15growAndPushBackERKS2_
u$f:_UInt64_System_IConvertible_ToChar_m1930853313_AdjustorThunk
HUe:_TlsClientCertificate_SendCertificates_m1096074091
h3d:_SyncHashtable_get_Item_m408601391
EYa:__ZNK9Behaviour26GetTypeInfoVirtualInternalEv
zKg:_Stack_1_System_Collections_ICollection_CopyTo_m2104527616_gshared
BSd:_StringBuilder_AppendFormat_m1666670800
TKa:__ZN18DeferredRenderLoop13RenderGBufferEP13RenderTexturePS1_b8JobFencePK25DeferredRenderLoopScratchRi
rOh:__ZN6il2cpp6icalls8mscorlib6System9ThreadingL11ThreadStartEPv
LL:__ZN15DirectorManager12OnSampleTimeEv
$Ke:_AttrListImpl_GetName_m1919558736
f_:__ZN12CachedReader10Align4ReadEv
aQh:__ZN6il2cpp2vm9Exception28GetMarshalDirectiveExceptionEPKc
$ze:_MulticastDelegate_GetObjectData_m3187757658
Myc:__ZN5physx2Sc14ConstraintCore13setBreakForceEff
aGa:__Z21GetScriptingArraySize17ScriptingArrayPtr
qga:__ZN9GfxDevice17ImmediateTexCoordEifff
Oug:_Parser_ParseRegularExpression_m2390577313
J4e:_X509CertificateEnumerator_System_Collections_IEnumerator_Reset_m327358896
fPf:_Array_InternalArray__ICollection_CopyTo_TisKeyValuePair_2_t1174980068_m1818152223_gshared
bLd:_Hash__ctor_m2554411450
_je:_NumberFormatter_AppendDigits_m1308372770
VMd:_Single_System_IConvertible_ToDateTime_m2510003459_AdjustorThunk
hee:_Delegate_RemoveImpl_m3666700529
ugi:_emscripten_glUniform4f__wrapper
C_e:_NameObjectCollectionBase_OnDeserialization_m3478980442
Lgd:__ZN5physx6shdfnd5ArrayINS_25PxcThresholdStreamElementENS0_19ReflectionAllocatorIS2_EEE8recreateEj
uHa:__ZNK6Camera16GetProjectionFarEv
GPa:__Z24InverseTransformRotationRK23TransformAccessReadOnlyRKN4math7_float4E
kfg:__ZL68SecurityCriticalAttribute_t2312050089_CustomAttributesCacheGeneratorP21CustomAttributesCache
Zxe:_MissingFieldException__ctor_m1161042282
daa:__ZN7Texture34CreateFileTextureUploadInstructionE18TextureUploadFlagsj
WBa:__ZN13ComputeShader14SetBufferParamEjRKN9ShaderLab16FastPropertyNameE15ComputeBufferID
cFc:__ZN5physx7NpCloth21setCollisionMassScaleEf
Zdd:__ZN5physx6shdfnd5ArrayINS_7PxPlaneENS0_19ReflectionAllocatorIS2_EEE8recreateEj
vyd:__ZN13PhysicsModule17GetRigidBodyStateERK9RigidbodyPN8IPhysics14RigidBodyStateE
Gia:__ZNK13TranslateGLES6EnableEN2gl10EnabledCapE
Bz:__ZN16BaseVideoTexture19UpdateVideoTexturesEv
I4a:__Z28BuildSingleStreamChannelInfo17ShaderChannelMaskRK20VertexChannelsLayoutS_S2_P11ChannelInfo
I8:__ZNK16LightmapSettings23HasLightProbeTetrahedraEv
UTe:_Context_get_WriteSequenceNumber_m243492531
tcb:__ZN6Sprite23VirtualRedirectTransferER19StreamedBinaryWriteILb0EE
a9f:__ZL51Assembly_t4268412390_CustomAttributesCacheGeneratorP21CustomAttributesCache
UOd:_String_LastIndexOfAny_m1473637802
r1f:_Version_CompareTo_m596235198
RDh:__ZNK15dense_hashtableINSt3__24pairIK10KeyWrapperINS1_IPK9FieldInfoP11Il2CppClassEEEjEES9_17ReflectionMapHashIS8_EN14dense_hash_mapIS9_jSD_NS9_14EqualsComparerINS0_8equal_toIS8_EEEENS0_9allocatorISB_EEE9SelectKeyESI_SK_E5beginEv
V$:__ZNK9ShaderLab7Program19HasMatchingVariantsERK13dynamic_arrayI16ShaderKeywordSetLj4EE
Eja:__ZN14DataBufferGLES11CopySubDataEPKS_jjj
$d:_emscripten_glVertexPointer
Usa:__ZNSt3__26__treeI20DeviceDepthStateGLES11memcmp_lessIS1_S1_ENS_9allocatorIS1_EEE7destroyEPNS_11__tree_nodeIS1_PvEE
uzh:__ZN6il2cpp2vm7Runtime47RaiseExecutionEngineExceptionIfMethodIsNotFoundEPK10MethodInfo
AKa:__Z17GetFrustumPortionPK8Vector3fffPS_
Kic:__ZNK5physx2Gu22SupportMapRelativeImplINS0_4BoxVEE18doWarmStartSupportEiRNS_6shdfnd3aos5Vec3VE
bSh:__ZN15dense_hashtableINSt3__24pairIK10KeyWrapperIP14Il2CppIUnknownEjEES5_N6il2cpp5utils11PointerHashIS3_EEN14dense_hash_mapIS5_jSB_NS5_14EqualsComparerINS0_8equal_toIS4_EEEENS0_9allocatorIS7_EEE9SelectKeyESG_SI_E14squash_deletedEv
Q4a:__ZN5Light13AwakeFromLoadE17AwakeFromLoadMode
x9d:_CultureAwareComparer_Compare_m2587353351
Ahe:_CCGregorianCalendar_is_leap_year_m567513478
LVd:_Attribute_IsDefined_m2118467641
nCa:__ZN14GraphicsHelper8DrawQuadER9GfxDevice17ShaderChannelMaskbRK5RectTIfE
eIe:_PrivateKeyInfo_Normalize_m3959595934
Zwf:_InternalEnumerator_1_System_Collections_IEnumerator_get_Current_m3125080595_gshared
cOb:__ZN16StreamedResource8TransferI24GenerateTypeTreeTransferEEvRT_
scc:__ZN5physx3Cct10Controller13onOriginShiftERKNS_6PxVec3E
Zpa:__ZN10Matrix3x3f15InvertTransposeEv
sLf:_Array_InternalArray__ICollection_Remove_TisKeyValuePair_2_t1174980068_m2768765894_gshared
VRg:_PKCS12_CertificateSafeBag_m3272197807
TUe:_TlsClientCertificateVerify_ProcessAsTls1_m1960818833
t3c:__ZN5physx2Gu19_gjkRelativeRayCastINS0_9TriangleVENS0_11ConvexHullVEEEbRT_RT0_RKNS_6shdfnd3aos15PsMatTransformVERKNS9_6FloatVERKNS9_5Vec3VESI_RSD_RSG_SK_f
trb:__Z29Transfer_Blittable_ArrayFieldI14SafeBinaryRead8Vector3fEvRT_R9ArrayInfoRK23StaticTransferFieldInfo
w_f:_UInt32_System_IConvertible_ToBoolean_m91295134
gVf:_Monitor_Monitor_test_synchronised_m1542589500
DXh:__ZNK6il2cpp5utils11StringUtils23CaseInsensitiveComparerclERKNSt3__212basic_stringIcNS3_11char_traitsIcEENS3_9allocatorIcEEEEPKc
TIe:_SymmetricTransform_TransformFinalBlock_m4192185386
bme:_TextInfo__ctor_m1263401274
G8c:__ZNK5physx19ActorAABBUpdateTask7getNameEv
J1h:_GC_print_finalization_stats
M9a:__ZN15SerializeTraitsI13dynamic_arrayI33EnlightenTerrainChunksInformationLj4EEE19ResizeSTLStyleArrayERS2_i18MemLabelIdentifier
n0e:_IPAddress_ToString_m267966740
Xp:__ZNSt3__26vectorIN4core12basic_stringIcNS1_20StringStorageDefaultIcEEEENS_9allocatorIS5_EEE8__appendEj
_Bh:_il2cpp_gc_collect
tib:__ZN26PlayerSettingsSplashScreen8TransferI17RemapPPtrTransferEEvRT_
gAf:_InternalEnumerator_1_get_Current_m3922357178_gshared
eAh:__ZN6il2cpp6icalls8mscorlib6SystemL17CollectTypeFieldsINS_5utils10functional10TrueFilterEEEvP11Il2CppClassPKS7_iRNSt3__26vectorIP9FieldInfoNSB_9allocatorISE_EEEERKT_
lYf:_Type_get_IsValueType_m1733572463
cUc:__ZN5physx7NpScene14resetFilteringERNS_12PxRigidActorEPKPNS_7PxShapeEj
mHb:__Z13GetTagManagerv
j_g:__Z127RuntimeInvoker_Void_t1841601450_IntPtr_t_Int32_t2071877448_SByte_t454417549_Int32_t2071877448_SByte_t454417549_SByte_t454417549PK10MethodInfoPvPS2_
ULf:_Array_InternalArray__ICollection_Remove_TisUInt16_t986882611_m65494986_gshared
Ymh:__ZL10roundUp128PyS_
xA:__ZN11UnityEngine15CloudWebService17CloudJobSchedulerD0Ev
QNd:_String_System_IConvertible_ToBoolean_m2696751322
k7:__ZN18LoadSceneOperation7PerformEv
FZc:__ZN5physx2Sc5Scene26setSimulationEventCallbackEPNS_25PxSimulationEventCallbackEh
Igh:_GUILayer_INTERNAL_CALL_HitTest_m693512502
y1b:__ZL30GeomMTDCallback_CapsuleCapsuleRN5physx6PxVec3ERfRKNS_10PxGeometryERKNS_11PxTransformES5_S8_
IUc:__ZN5physx7NpScene23forceDynamicTreeRebuildEbb
Dch:_Camera_get_pixelRect_m2084185953
P9b:__ZL18intersectAnyVsMeshILi0EEbPKN5physx2Gu6SphereEPKNS1_7CapsuleEPKNS1_3BoxERKNS1_13RTreeMidphaseERKNS0_11PxTransformERKNS0_11PxMeshScaleEP14LimitedResults
PWf:_TimeSpan__ctor_m1888018443_AdjustorThunk
d3d:_SyncHashtable_get_Count_m3694444082
aqc:__ZN5physx14NpArticulation6wakeUpEv
dDd:__ZN13RuntimeStaticI18UnityConnectClientLb0EE10InitializeEv
sra:__ZN22VertexDeclarationCache5ClearEv
Mli:_emscripten_glUniform2i__wrapper
nTa:__ZN17PersistentManager12SetPathRemapERKN4core12basic_stringIcNS0_20StringStorageDefaultIcEEEES6_
eMa:__ZN6Camera24PrepareCullingParametersERK23CameraCullingParameters13RenderingPathR11CullResults
w7:__ZN19RuntimeSceneManager22EndIntegrateMainThreadEP10UnitySceneNS_11LoadingModeE
Dsb:__Z26Transfer_UnityEngineObjectI17RemapPPtrTransferLb0EEvRK29SerializationCommandArgumentsR31RuntimeSerializationCommandInfo
aPd:_String_IsNullOrEmpty_m2802126737
vYd:_Byte_Parse_m1442736478
Ype:_Int64_Parse_m3258022240
POd:_String_IndexOfOrdinal_m3591623977
pgf:_CryptoConfig_EncodeLongNumber_m2352037787
RYf:_Type_GetMethod_m475234662
OAg:_ActivationServices_get_ConstructionActivator_m1726426854
Aub:__Z29Transfer_Blittable_ArrayFieldI24GenerateTypeTreeTransfer4AABBEvRT_R9ArrayInfoRK23StaticTransferFieldInfo
Ogg:__ZL52Activator_t1850728717_CustomAttributesCacheGeneratorP21CustomAttributesCache
L2h:_GC_adj_bytes_allocd
YOf:_Array_InternalArray__ICollection_Add_TisKeyframe_t1449471340_m887263954_gshared
Gmd:__ZN5physx20InternalTriangleMesh16allocateVerticesEj
$Pf:_Array_InternalArray__Insert_TisDateTime_t693205669_m1484996356_gshared
Jue:_MonoIO_get_ConsoleInput_m2976499023
Qof:_OpCode_get_Size_m481593949_AdjustorThunk
F0d:_BitArrayEnumerator_checkVersion_m3839504595
$Td:_Array_GetUpperBound_m1352329707
fya:__ZZ23InitPlayerLoopCallbacksvEN36UpdateScriptRunBehaviourUpdatestruct7ForwardEv
O6c:__ZN5physx6shdfnd5ArrayINS_17PxcBroadPhasePairENS0_19ReflectionAllocatorIS2_EEE8recreateEj
pSe:_RecordProtocol__ctor_m168945279
Fbe:_DateTimeOffset_Equals_m3728302791_AdjustorThunk
$7b:__ZThn4_N16RayRTreeCallbackILi1ELb0EED1Ev
lKa:__ZN20SphericalHarmonicsL219AddDirectionalLightERKN4math7_float3ERKNS0_7_float4E
old:__ZN5physx13BigConvexDataD2Ev
MXf:_TimeSpan_op_GreaterThanOrEqual_m3997050520
AL:__Z26ScheduleJobForEachInternalR8JobFencePFvPvjES1_iPFvS1_E11JobPriority
s2e:_OidEnumerator_MoveNext_m1889267785
HPb:__ZN9Scripting18RaiseMonoExceptionEPKcz
Y8a:__ZN9Texture2D8TransferI19StreamedBinaryWriteILb0EEEEvRT_
gLb:__ZN9ShaderLab16FastPropertyName15InitBy28BitHashEj
bNd:_Single_System_IConvertible_ToInt32_m3269519527_AdjustorThunk
yHd:_SHA1Internal_ProcessBlock_m4070037334
s4h:__ZN6il2cpp6icalls8mscorlib6System10Reflection14MonoMethodInfo15get_method_infoE12Il2CppIntPtrP16Il2CppMethodInfo
fTd:_UTF32Encoding_GetDecoder_m2714144074
R9e:_ObjRef_GetObjectData_m3081609242
R8c:__ZN5physx20updateBodyShapeAABBsEPKjjS1_PKNS_17PxcAABBDataStaticEPNS_11IntegerAABBEj
ueb:__ZN17PackedFloatVector12UnpackFloatsEPfiiii
xMg:_ReadOnlyCollection_1__ctor_m3671019970_gshared
jha:__ZN13GfxDeviceGLES21DestroyComputeProgramER12ObjectHandleI18ComputeProgram_TagPvE
L6d:_Convert_ToDecimal_m2007036836
pT:__ZN17UniqueIDGenerator16DestroyPureIndexEj
TP:__ZL21AppendNestedClassName17ScriptingClassPtrRN4core17string_with_labelILi1EEE
$Bb:__ZN14SafeBinaryRead21TransferSTLStyleArrayINSt3__26vectorIN9ShaderLab20SerializedSubProgram12UAVParameterENS1_9allocatorIS5_EEEEEEvRT_17TransferMetaFlags
UCg:_Context_NotifyDynamicSinks_m1367144344
GB:__ZN24TextDOMTransferWriteBaseI9JSONWriteE12PushMetaFlagEi
JEc:__ZN5physx7NpCloth22removeCollisionCapsuleEj
vSe:_TlsClientCertificateVerify__ctor_m110646389
A5:__ZN6prcoreL26RemapGenericIntegerToFloatI17TexFormatARGB888815TexFormatRFloatEEvPKNS_9InnerInfoE
Vyh:__ZN6il2cpp2vm10ThreadPool10InitializeEv
bDg:_Context_GetServerContextSinkChain_m390126977
mNh:__ZN6il2cpp2vm17TypeNameParseInfoD2Ev
Sgd:__ZN5physx18PxsSolverStartTask16articulationTaskEv
JRf:_Array_Sort_TisIl2CppObject_m143182644_gshared
pwe:_StringReader_Read_m513112775
Gab:__ZNK8Renderer8GetLayerEv
ukc:__ZN5physx6shdfnd4sortIPvNS0_4LessIS2_EENS0_19ReflectionAllocatorINS_2Cm5BlockIS2_Lj16EEEEEEEvPT_jRKT0_RKT1_j
M3a:__ZN12FlareManager11DeleteFlareEi
xLg:_Collection_1_Add_m2613548553_gshared
JGa:__ZNK6Camera20GetReplacementShaderEv
jyc:__ZN18MultiQueryCallbackIN5physx12PxRaycastHitEE6invokeERfPKNS0_2Sq13PrunerPayloadEj
pce:_Decimal__ctor_m569480123_AdjustorThunk
G$e:_HttpWebRequest__cctor_m3013631978
_5h:__ZNSt3__26__treeINS_12__value_typeINS_12basic_stringIcNS_11char_traitsIcEENS_9allocatorIcEEEEPFvvEEENS_19__map_value_compareIS7_SA_NS_4lessIS7_EELb1EEENS5_ISA_EEE4findIS7_EENS_15__tree_iteratorISA_PNS_11__tree_nodeISA_PvEEiEERKT_
hCb:__ZNSt3__26vectorIN9ShaderLab20SerializedSubProgram14ConstantBufferENS_9allocatorIS3_EEE7reserveEj
q9:__ZL23stbir__calculate_memoryP11stbir__info
God:__ZN5physx18AdjacenciesBuilder4InitERKNS_17ADJACENCIESCREATEE
ujb:__ZNK30RuntimeInitializeOnLoadManager26GetTypeInfoVirtualInternalEv
h$c:__ZN5physx18PxcNpThreadContextD2Ev
k$b:__ZNK9rapidjson12GenericValueINS_4UTF8IcEE13JSONAllocatorE6AcceptINS_12PrettyWriterI16TempBufferWriterS2_S2_S3_EEEEbRT_
oZb:__ZL26Transfer_SimpleNativeClassI8JSONRead10RectOffsetLb1EEvRK29SerializationCommandArgumentsR31RuntimeSerializationCommandInfo
tpd:__ZN5physx2Gu27computeBoundsAroundVerticesERNS_9PxBounds3EjPKNS_6PxVec3E
aBg:_UrlAttribute_Equals_m1587451932
FWb:__Z18Transfer_BlittableI9JSONWriteLb1EsEvRK29SerializationCommandArgumentsR31RuntimeSerializationCommandInfo
iTc:__ZNK5physx7NpScene9getLimitsEv
ooe:_Int16_ToString_m4099416068_AdjustorThunk
rhf:_DSAParameters_t1872138834_marshal_pinvoke_cleanup
Cxa:__ZZ23InitPlayerLoopCallbacksvEN44EarlyUpdateResetFrameStatsAfterPresentstruct7ForwardEv
P3c:__ZNK5physx2Gu29EPASupportMapPairRelativeImplINS0_9TriangleVENS0_8CapsuleVEE9doSupportERKNS_6shdfnd3aos5Vec3VERS7_SA_SA_
QAa:__ZN13RenderManager37RenderCamerasWithScriptableRenderLoopEi
H7c:__ZN3MBP12updateObjectEjRK5IAABB
uFe:_ASN1_Element_m2600236165
YI:__GLOBAL__sub_I_runtime_graphics5_lump_cpp
wnc:__ZN5physx6shdfnd5ArrayINS_6PxVec3ENS0_19ReflectionAllocatorIS2_EEE15growAndPushBackERKS2_
DU:__ZN23InstancedPropInfoStaticL16RegisterCallbackEPv
HTh:__ZN6il2cpp2os19ReleaseSocketHandleEj
hpf:_TypeBuilder_GetPropertyImpl_m1854119335
gXc:__ZN5physx2Sc5Scene20fireTriggerCallbacksEv
slf:_TypeBuilder_get_next_table_index_m1415870184
fdi:___cxa_can_catch
CNe:_SequentialSearchPrimeGeneratorBase_GenerateNewPrime_m296245934
zZd:_Char_GetUnicodeCategory_m4273361321
E0c:__ZN5physx2Sq10AABBPrunerC2Eb
c3c:__ZN5physx2Gu18GJKRelativeRayCastERNS0_8CapsuleVERNS0_4BoxVERKNS_6shdfnd3aos15PsMatTransformVERKNS6_6FloatVERKNS6_5Vec3VESF_RSA_RSD_SH_fb
Yy:__ZN10AudioMixer6UpdateEf
Qxe:_Math_Round_m565516458
LCg:_Identity_get_ClientDynamicProperties_m767245959
E$g:__Z95RuntimeInvoker_Void_t1841601450_SByte_t454417549_Il2CppObject_SByte_t454417549_SByte_t454417549PK10MethodInfoPvPS2_
SXh:__ZN6il2cpp2os5posix15PosixWaitObjectC2ENS2_4TypeE
Xkb:__Z23AppendPathNameExtensionRKN4core12basic_stringIcNS_20StringStorageDefaultIcEEEES5_
_of:_TypeBuilder_create_generic_class_m986834171
lii:_emscripten_glVertexPointer__wrapper
xca:__ZN23ShaderVariantCollection13WarmupShadersEv
HTe:_Context_set_ProtocolNegotiated_m1177527245
A_f:_UInt32_System_IConvertible_ToChar_m1056040486
AP:__Z25GetCommonScriptingClassesv
oZe:_TlsStream_get_Length_m1562309511
M7:__Z27scripting_gc_collect_unsafei
kz:__ZN11AudioModule20SuspendVideoTexturesEv
EKb:__ZN12CubemapArrayC2E18MemLabelIdentifier18ObjectCreationMode
WOc:__ZN5physx13NpRigidStaticC2ERKNS_11PxTransformE
k5d:_Convert_ToByte_m395020137
Ztb:__Z26Transfer_UnityEngineObjectI24GenerateTypeTreeTransferLb0EEvRK29SerializationCommandArgumentsR31RuntimeSerializationCommandInfo
pci:___cxa_get_globals_fast
o3c:__ZN5physxL20PxcSweepBoxTrianglesERKNS_11PxsCCDShapeES2_RKNS_11PxTransformES5_S5_S5_fRNS_6PxVec3ES7_RNS_10PxcNpCacheERNS_18PxcNpThreadContextERKNS_2Cm23FastVertex2ShapeScalingERNS_2Gu9TriangleVEf
cxe:_TextWriter_WriteLine_m1754475888
Icc:__ZN5physx3Cct15ObstacleContextD0Ev
I3a:__ZN15SharedLightData7PrecalcEv
v8:__ZN10Matrix4x4fmLERKS_
ePg:_InvokableCall_1_Invoke_m769918017_gshared
zSf:_Array_InternalArray__get_Item_TisDouble_t4078015681_m2215331088_gshared
vZa:__ZN19StreamedBinaryWriteILb0EE19TransferSTLStyleMapINSt3__28multimapIN4core12basic_stringIcNS4_20StringStorageDefaultIcEEEEN11AssetBundle9AssetInfoENS2_4lessIS8_EENS2_9allocatorINS2_4pairIKS8_SA_EEEEEEEEvRT_17TransferMetaFlags
Iwa:__ZN15ArchiveReadFileD0Ev
MIe:_SymmetricTransform_TransformBlock_m1524716432
yU:__ZN18ConcurrentFreeListI28FileTextureUploadInstructionE7CleanUpEv
GAd:__ZN11UnityEngine15PlatformWrapper18GetOperatingSystemEv
ZXc:__ZN5physx3Scb9Aggregate9syncStateERNS0_5SceneE
tmg:__ZL61ExtensionAttribute_t1840441203_CustomAttributesCacheGeneratorP21CustomAttributesCache
Ode:_Delegate_return_type_match_m4278947849
lAh:__ZN6il2cpp6icalls8mscorlib6System8MonoType19GetGenericArgumentsEP20Il2CppReflectionType
gyg:_Uri_ParseNoExceptions_m1151989845
D4d:_GC_SuppressFinalize_m953228702
iYe:_InternalAsyncResult_get_ProceedAfterHandshake_m552962842
Eka:__ZN10DynamicVBO12ReleaseChunkER21DynamicVBOChunkHandlejj
tMb:__ZZL23RegisterLightPropertiesR22GenericPropertyBindingEN29Wrapper_LightShadowNormalBias13GetFloatValueEPv
G6h:__ZN6il2cpp6icalls8mscorlib4Mono8Security12Cryptography18KeyPairPersistence10_CanSecureEP12Il2CppString
Etc:__ZN5physx7NpActor17resolveReferencesERNS_24PxDeserializationContextE
zLh:__ZN6il2cpp2os4File11GetFileStatERKNSt3__212basic_stringIcNS2_11char_traitsIcEENS2_9allocatorIcEEEEPNS0_8FileStatEPi
Zda:__ZN13GfxDeviceGLES14SetRasterStateEPK17DeviceRasterState
Nia:__ZNK13TranslateGLES11BlendFactorE9BlendMode
Ufc:__ZN5physx6shdfnd8internal8HashBaseINS0_4PairIKPKNS_2Sc8ShapeSimENS4_10NPhaseCore16ClothListElementEEES7_NS0_4HashIS7_EENS1_11HashMapBaseIS7_SA_SD_NS0_9AllocatorEE6GetKeyESF_Lb1EE5eraseERS8_
e2e:_OidCollection_Add_m3712419303
zfc:__ZN5physx5Elems17setStaticAABBDataEjRKNS_17PxcAABBDataStaticE
bTe:_TlsServerHello__ctor_m3032108168
yZ:__ZN14SafeBinaryRead11EndTransferEv
F8f:__ZL98ILGenerator_t99948092_CustomAttributesCacheGenerator_ILGenerator_Mono_GetCurrentOffset_m3553856682P21CustomAttributesCache
Ppb:__ZN14SafeBinaryRead8TransferI8MonoPPtrEEvRT_PKc17TransferMetaFlags
Hpa:__ZN21UniformBufferTFMethod13MapBoneBufferEj
TWe:_RecordProtocol_SendChangeCipherSpec_m3542001341
POh:__ZNSt3__26vectorIcNS_9allocatorIcEEEC2Ej
JGe:_KeyPairPersistence_CanSecure_m2251009700
L8e:_ReturnMessage_get_Properties_m531965085
Lmf:_GenericTypeParameterBuilder_IsSubclassOf_m563999142
lhe:_Exception_ToString_m627574695
Fpf:_AddEventAdapter_Invoke_m3970567975
Ylh:_StackTraceUtility_PostprocessStacktrace_m2866903298
Hlc:__ZN5physx6shdfnd5ArrayIPvNS0_16AlignedAllocatorILj64ENS0_9AllocatorEEEE15growAndPushBackERKS2_
yBg:_CrossAppDomainChannel_RegisterCrossAppDomainChannel_m43456045
aQf:_Array_InternalArray__Insert_TisDecimal_t724701077_m1429254816_gshared
OCh:__ZN6il2cpp2vm10Reflection17GetAssemblyObjectEPK14Il2CppAssembly
Jla:__ZN18AsyncUploadManager17DoScaledPaddedJobEP28FileTextureUploadInstruction
aca:__ZNSt3__218__stable_sort_moveIRN10vector_mapI17ScriptingClassPtrPKN5Unity4TypeENS_4lessIS2_EENS_9allocatorINS_4pairIS2_S6_EEEEE13value_compareENS_11__wrap_iterIPSB_EEEEvT0_SJ_T_NS_15iterator_traitsISJ_E15difference_typeEPNSM_10value_typeE
VAb:__ZN6Shader21AwakeFromLoadThreadedEv
B4:__ZN6prcoreL17RemapGenericFloatI17TexFormatRGBFloat17TexFormatRGBAHalfEEvPKNS_9InnerInfoE
X_b:__ZN8JSONRead21TransferSTLStyleArrayI13dynamic_arrayI8Vector2fLj4EEEEvRT_18MemLabelIdentifier17TransferMetaFlags
Pwd:__ZN5physx24PxcContactBoxHeightFieldERKNS_2Gu13GeometryUnionES3_RKNS_11PxTransformES6_RKfRNS_10PxcNpCacheERNS0_13ContactBufferE
y7h:__ZN6il2cpp2os9SemaphoreC2Eii
Vwf:_InternalEnumerator_1_get_Current_m2960188445_AdjustorThunk
Rpb:__ZNSt3__26vectorI8MonoPPtr13stl_allocatorIS1_L18MemLabelIdentifier1ELi16EEE8__appendEj
oFa:__ZN14qsort_internal30FindAndMovePivotToLastPositionIP17RODataReplacementi19ROSorterReplacementEEvT_S4_T0_T1_
Spa:__ZN15UniformTFMethod20IsBoneCountSupportedEi
x8c:__ZNK5physx23AggregateAABBUpdateTask7getNameEv
BJd:_X509Certificate_GetExpirationDateString_m2351894475
Tjh:_Rect_Contains_m1334685291_AdjustorThunk
gte:_FileStream_get_Position_m465478322
Drh:__ZN14dense_hash_setI10KeyWrapperIPK19Il2CppGenericMethodEN6il2cpp8metadata23Il2CppGenericMethodHashENS4_14EqualsComparerINS6_26Il2CppGenericMethodCompareEEENSt3__29allocatorIS4_EEEC2EjRKS7_RKSA_
Rei:dynCall_viidi
eQf:_Array_InternalArray__Insert_TisInt64_t909078037_m3039874636_gshared
bXe:_RSASslSignatureDeformatter_SetKey_m1150106904
NK:__ZN24ScriptingMethodFiltering17FilterOnSignatureENS_18MethodSearchFilterE
skd:__ZN5physx13NpClothFabric16scaleRestlengthsEf
qG:__ZN18ScreenManagerWebGL13SetLockCursorE14CursorLockMode
rze:_MonoType_GetMethodsByName_m1854415088
rIe:_RSAManaged_EncryptValue_m4089823119
DQc:__ZN5physx6shdfnd5ArrayIPNS_2Sc17ParticleSystemSimENS0_19ReflectionAllocatorIS4_EEE8recreateEj
R_:__ZNK11NamedObject26GetTypeInfoVirtualInternalEv
Xte:_ReadDelegate_Invoke_m2091885836
bmf:_TypeBuilder_GetField_m2112455315
Nii:b58
Qii:b59
whi:b52
xhi:b53
shi:b50
vhi:b51
scd:__ZN5physx9PxTaskMgrD0Ev
xii:b57
yhi:b54
zhi:b55
bWg:__Z67RuntimeInvoker_Void_t1841601450_Int32_t2071877448_Int16_t4041245914PK10MethodInfoPvPS2_
M9d:_DateTime__ctor_m3604679583_AdjustorThunk
GHe:_MACAlgorithm_Core_m2390605245
LHb:__ZN10GameObject12CleanupClassEv
roc:__ZN5physx3Scb5Scene13addRigidNoSimINS0_11RigidStaticELb0ELb1EEEvRT_RNS0_13ObjectTrackerE
S5a:__ZN15SerializeTraitsI13dynamic_arrayI11TetrahedronLj4EEE19ResizeSTLStyleArrayERS2_i18MemLabelIdentifier
Cea:__ZN9GfxDevice25SetShaderPropertiesSharedERK19ShaderPropertySheet
Xka:__ZN18AsyncUploadManager19AsyncResourceUploadER9GfxDeviceii9TextureID
QLb:__ZL25InitializeDefaultMaterialv
k0a:__ZN21ArchiveStorageCreatorD2Ev
p5c:__ZN5physx34solveContact_BStaticBlockWriteBackEPKNS_23PxcSolverConstraintDescEjRNS_16PxcSolverContextEPNS_25PxcThresholdStreamElementEjPi
iba:__ZN17PersistentManager12UnloadStreamERKN4core12basic_stringIcNS0_20StringStorageDefaultIcEEEEb
hG:__ZN13ScreenManager17RequestResolutionEiibi
Mgf:_DESTransform__ctor_m4096028381
jCh:_il2cpp_unity_liveness_calculation_from_statics
gWf:_Scheduler_get_Instance_m1989471839
x1e:_WebRequest_System_Runtime_Serialization_ISerializable_GetObjectData_m3377822910
hbb:__ZN8Renderer8TransferI17RemapPPtrTransferEEvRT_
uhi:_glBlitFramebuffer__wrapper
Hwh:__ZL24UnresolvedVirtualCall_71P12Il2CppObjectS0_S0_iS0_S0_S0_PK10MethodInfo
RFc:__ZNK5physx2Sc9ClothCore16getCollisionDataEPNS_22PxClothCollisionSphereEPjPNS_21PxClothCollisionPlaneES4_PNS_24PxClothCollisionTriangleE
Yah:__Z88RuntimeInvoker_Boolean_t3825574718_DateTimeOffset_t1362988906_DateTimeOffset_t1362988906PK10MethodInfoPvPS2_
lPa:__Z24LookRotationToQuaternionRK8Vector3fS1_P11Quaternionf
jPa:__ZN16ReflectionProbes9GetCameraEv
VLe:_ArgumentException__ctor_m2105824819
INf:_Array_InternalArray__IndexOf_TisInt64_t909078037_m617406809_gshared
PVh:__ZN6il2cpp2vm11MethodStack23CleanupForCurrentThreadEv
WGg:_Enumerator_VerifyState_m825848279_AdjustorThunk
p4a:__ZN20TierGraphicsSettings8TransferI24GenerateTypeTreeTransferEEvRT_
lrb:__ZN14SafeBinaryRead21TransferSTLStyleArrayI13dynamic_arrayI4AABBLj4EEEEvRT_17TransferMetaFlags
_1:__ZN18UnityPropertySheet8TransferI19StreamedBinaryWriteILb0EEEEvRT_
pVe:_TlsServerCertificate_checkServerIdentity_m3836435780
qV:__ZNSt3__26__treeINS_12__value_typeIiN11TypeManager18TypeCallbackStructEEENS_19__map_value_compareIiS4_NS_4lessIiEELb1EEENS_9allocatorIS4_EEE7destroyEPNS_11__tree_nodeIS4_PvEE
tJe:_PKCS12_Decrypt_m2353135969
Nfh:_PersistentCallGroup_Initialize_m3908067069
lrf:_MonoEvent_ToString_m386956596
Dlb:__ZN39AssetBundleLoadFromStreamAsyncOperationC2ERKN4core12basic_stringIcNS0_20StringStorageDefaultIcEEEE
E_:__ZL19GetCameraTargetRectRK6Camerabb
Tne:_Int32_GetFormatException_m1729046182
DXa:__ZN21UnityDefaultAllocatorI17LowLevelAllocatorE10DeallocateEPv
NI:__GLOBAL__sub_I_runtime_camera2_lump_cpp
n5a:__ZN15SharedLightData22UpdateCookieTextureRefEv
zq:__ZN15PackedIntVector8TransferI14SafeBinaryReadEEvRT_
Kpf:_FieldInfo_get_IsLiteral_m267898096
ima:__ZN17SharedTextureDataD0Ev
Jrc:__ZNK5physx19NpArticulationJoint20getTangentialDampingEv
pYe:_SslStreamBase_EndNegotiateHandshake_m1732321201
rGf:_Transform_1_BeginInvoke_m1167293475_gshared
Dt:__ZN13AudioListener8DoUpdateEv
K0b:__ZN5physx3Cct10Controller22setUpDirectionInternalERKNS_6PxVec3E
f5d:__Z13bankers_roundd
zcb:__ZN14SafeBinaryRead8TransferI5RectTIfEEEvRT_PKc17TransferMetaFlags
ki:_emscripten_glGenFramebuffers
q2d:_Hashtable_CopyTo_m2778915805
lV:__ZN17BaseObjectManager16StaticInitializeEPv
Rkf:_ConstructorBuilder_get_IsCompilerContext_m2796899803
njb:__ZN18StreamedBinaryReadILb0EE19TransferSTLStyleMapINSt3__28multimapIN4core12basic_stringIcNS4_20StringStorageDefaultIcEEEE4PPtrI6ObjectENS2_4lessIS8_EE13stl_allocatorINS2_4pairIKS8_SB_EEL18MemLabelIdentifier51ELi16EEEEEEvRT_17TransferMetaFlags
G5d:_DateTime_CoreParse_m2014268103
eXb:__Z18Transfer_BlittableI9JSONWriteLb0EyEvRK29SerializationCommandArgumentsR31RuntimeSerializationCommandInfo
K_:__ZN13RenderTexture15ThreadedCleanupEv
C7a:__ZN12CubemapArray23VirtualRedirectTransferER14SafeBinaryRead
DGc:__ZNK5physx2Sc9ClothCore23getNbCollisionTrianglesEv
ef:___cxa_free_exception
NCc:__ZN5physx7NpShape16setFlagsInternalENS_7PxFlagsINS_11PxShapeFlag4EnumEhEE
Une:_Int32_ProcessTrailingWhitespace_m2812079777
R8b:__ZN5physx2Gu30distanceSegmentTriangleSquaredERKNS_6shdfnd3aos5Vec3VES5_S5_S5_S5_RS3_S6_
l1e:_WebProxy__ctor_m3679722173
cUh:__ZN15dense_hashtableINSt3__24pairIK10KeyWrapperINS1_IPKcS4_EEEiEES6_24NamespaceAndNamePairHashN14dense_hash_mapIS6_iS9_NS6_14EqualsComparerI26NamespaceAndNamePairEqualsEENS0_9allocatorIS8_EEE9SelectKeyESD_SF_E6insertERKS8_
UZ:__ZN24GenerateTypeTreeTransfer18BeginArrayTransferEPKcS1_Ri17TransferMetaFlags
cla:__Z16DecompressCrunchPKhRjR13TextureFormatiiii18MemLabelIdentifier
dm:___syscall51
hm:___syscall54
rUg:__Z107RuntimeInvoker_Boolean_t3825574718_SByte_t454417549_Il2CppObject_Int32_t2071877448_ExceptionU26_t1467204777PK10MethodInfoPvPS2_
hVh:__ZN6il2cpp2vm5Image21GetCachedResourceDataEPK11Il2CppImageRKNSt3__212basic_stringIcNS5_11char_traitsIcEENS5_9allocatorIcEEEE
UOf:_Array_InternalArray__ICollection_Add_TisUInt32_t2149682021_m2629016323_gshared
Pob:__Z18Transfer_BlittableI14SafeBinaryReadLb0E10ColorRGBAfEvRK29SerializationCommandArgumentsR31RuntimeSerializationCommandInfo
ya:invoke_iiiiiiiiii
l7:__ZN18LoadSceneOperation19IntegrateTimeSlicedEi
rWf:_Scheduler_SchedulerThread_m2209572785
yCe:_SortKeyBuffer_GetResultAndReset_m2516956577
ss:__ZN4FMOD7SystemI11createSoundEPKcjP22FMOD_CREATESOUNDEXINFOPPNS_5SoundE
mVa:__ZN10FileSystem19SetCurrentDirectoryERKN4core12basic_stringIcNS0_20StringStorageDefaultIcEEEE
VP:__ZN16ScriptingManager24NotifyScriptCacheReleaseEi
cwf:_InternalEnumerator_1_get_Current_m2151132603_gshared
VRb:__Z47Register_UnityEngine_Coroutine_ReleaseCoroutinev
poc:__ZN10ScSceneFnsIN5physx3Scb11RigidStaticEE6insertERNS0_2Sc5SceneERS2_
pu:__ZN15AudioReverbZone13SetFMODValuesEv
Bdh:_Component_GetComponentInChildren_m3925629424
kN:__ZL19StaticDestroyShaderPv
Wd:_glRenderbufferStorageMultisample
lEh:__ZNK15dense_hashtableINSt3__24pairIK10KeyWrapperIPK10Il2CppTypeEjEES6_N6il2cpp8metadata14Il2CppTypeHashEN14dense_hash_mapIS6_jSB_NS6_14EqualsComparerINSA_26Il2CppTypeEqualityComparerEEENS0_9allocatorIS8_EEE9SelectKeyESF_SH_E10test_emptyEj
yrb:__Z35Transfer_Blittable_SingleValueFieldI14SafeBinaryReadfEvRT_R17GeneralMonoObjectRK23StaticTransferFieldInfo
KVe:_TlsServerHello_processProtocol_m1241336522
i9b:__ZN5physx2Gu20sweepCCTBoxTrianglesEjPKNS_10PxTriangleEbRKNS_13PxBoxGeometryERKNS_11PxTransformERKNS_6PxVec3EfRSA_SD_RfRjPKjfNS_7PxFlagsINS_9PxHitFlag4EnumEtEE
H2b:__ZN5physx2Gu15OBBTriangleTestC2ERKNS0_3BoxE
zDg:_ContextAttribute_IsContextOK_m3281216012
gve:_PathTooLongException__ctor_m3212099251
p4b:__ZN5physx2Gu21computeMTD_SphereMeshERNS_6PxVec3ERfRKNS0_6SphereERKNS_22PxTriangleMeshGeometryERKNS_11PxTransformE
Kq:__ZN17PackedFloatVector8TransferI18StreamedBinaryReadILb0EEEEvRT_
bgc:__ZN5physx2Sc10NPhaseCore15fetchFilterPairEPv
aqd:__ZN5physx12SubSortQuick5sort4EPjjRNS_6shdfnd5ArrayINS_11RTreeNodeNQENS2_19ReflectionAllocatorIS4_EEEERjRNS_10PxBounds3VEj
Lza:_longest_match_fast
Hmc:__ZN5physx6shdfnd5ArrayIPNS_2Sc8BodyCoreENS0_19ReflectionAllocatorIS4_EEE15growAndPushBackERKS4_
VOb:__ZN22BlockMemoryCacheWriter11GetPathNameEv
Hsd:__ZN14PhysicsManager23VirtualRedirectTransferER14SafeBinaryRead
kbe:_DateTime_ToString_m3108726445_AdjustorThunk
ERa:__ZN13dynamic_arrayIN23ReflectionProbesContext23ReflectionProbeCubeInfoELj4EE18resize_initializedEjRKS1_12ResizePolicy
lSf:_Array_InternalArray__get_Item_TisTableRange_t2011406615_m602485977_gshared
Ovc:__ZN5physx7NpActor14onActorReleaseEPNS_7PxActorE
OLe:_ApplicationException__ctor_m1120437222
kcc:__ZN5physx3Cct26CharacterControllerManager19computeInteractionsEfPNS_26PxControllerFilterCallbackE
Lo:stackAlloc
Zkc:__ZN5physx6shdfnd8PoolBaseINS_2Cm5BlockIhLj256EEENS0_19ReflectionAllocatorIS4_EEE12allocateSlabEv
eSb:__Z44Camera_CUSTOM_INTERNAL_CALL_ScreenPointToRayP12Il2CppObjectRK8Vector3fR3Ray
Tua:__ZN25SingleBlockMemoryFileData4LockEPPv
gof:_MethodBuilder_GetHashCode_m1713271764
IBe:_MSCompatUnicodeTable_GetResource_m3816716847
E7e:_Interval_get_IsSingleton_m1888598248_AdjustorThunk
oUd:_Array_CreateInstance_m15016505
jai:_stat
Li:_JS_Eval_ClearTimeout
Wbi:__ZNSt3__212basic_stringIcNS_11char_traitsIcEENS_9allocatorIcEEEaSERKS5_
HPf:_Array_InternalArray__ICollection_CopyTo_TisUInt16_t986882611_m3228377237_gshared
$Df:_DefaultComparer_Compare_m2805784815_gshared
Nca:__ZNSt3__218__insertion_sort_3IRNS_4lessIN22BuiltinResourceManager8ResourceEEEPS3_EEvT0_S7_T_
U9c:__ZN5physx2Gu21findUniqueConvexEdgesEjPNS0_10ConvexEdgeEjPKNS0_15HullPolygonDataEPKh
deh:_Component_BroadcastMessage_m1308086896
dIg:_List_1_get_Item_m4100789973_gshared
ROc:__ZN5physx20NpRigidActorTemplateINS_14PxRigidDynamicEED0Ev
ZEd:_RC2_set_KeySize_m2015782960
ma:invoke_iiiiiiiiiiii
F4c:__ZN5physx43solveContactCoulombPreBlock_WriteBackStaticEPKNS_23PxcSolverConstraintDescEjRNS_16PxcSolverContextEPNS_25PxcThresholdStreamElementEjPi
hJe:_StrongName_get_PublicKey_m3777577320
Xkc:__ZN5physx2Sc5Scene23allocateConstraintBlockEj
hTb:__Z43Register_UnityEngine_GameObject_SendMessagev
LS:__ZNSt3__26__treeINS_12__value_typeIN4core12basic_stringIcNS2_20StringStorageDefaultIcEEEES6_EENS_19__map_value_compareIS6_S7_NS_4lessIS6_EELb1EEE13stl_allocatorIS7_L18MemLabelIdentifier12ELi16EEE7destroyEPNS_11__tree_nodeIS7_PvEE
qoh:__ZN6il2cpp2vm17SetupFieldsLockedEP11Il2CppClassRKNS_2os12FastAutoLockE
Pue:_MonoIOStat_t1621921065_marshal_pinvoke
lmc:__ZN5physx2Sc5Actor15onElementDetachERNS0_7ElementE
OVa:__ZN16MemoryFileSystem4NameEv
Gx:__ZN11AudioSource16UpdateParametersE12SoundChannel
xNe:_PrimeGeneratorBase_get_PrimalityTest_m308005118
rJg:_List_1_CheckIndex_m2328469916_gshared
o0b:__ZN5physx3Cct13BoxController13setHalfHeightEf
_Xc:__ZN5physx3Scb13ObjectTracker5clearEv
tQb:__Z42ScriptingGetComponentsOfTypeFromGameObjectRK26ScriptingGetComponentsArgs
LD:__ZN19CloudServiceHandler11FlushEventsEv
F1b:__ZL23GeomMTDCallback_BoxMeshRN5physx6PxVec3ERfRKNS_10PxGeometryERKNS_11PxTransformES5_S8_
wPg:_InvokableCall_4_Invoke_m1555001411_gshared
K8d:_Convert_ToString_m2915777777
KEc:__ZNK5physx7NpCloth22getNbCollisionCapsulesEv
B2:__ZNSt3__27__sort4IRPFbRKNS_4pairIN9ShaderLab16FastPropertyNameEN18UnityPropertySheet11UnityTexEnvEEES8_EPS6_EEjT0_SD_SD_SD_T_
_ze:_MonoType_GetGenericTypeDefinition_m2363776160
RTe:_Context_set_SentConnectionEnd_m2641458842
be:_emscripten_glBufferSubData
yXd:_Buffer_BlockCopyInternal_m2627156229
Cpc:__ZN5physx6shdfnd5ArrayIPvNS0_15InlineAllocatorILj256ENS0_19ReflectionAllocatorINS_7NpShapeEEEEEE15growAndPushBackERKS2_
H3:__ZN6prcoreL12RemapGenericI15TexFormatRGB88817TexFormatARGB8888EEvPKNS_9InnerInfoE
tr:__Z17CalculateGlobalRS23TransformAccessReadOnly
Hch:_Camera_ScreenPointToRay_m614889538
hEe:_Kernel_multiByteDivide_m735279869
jIf:_Dictionary_2_ToTValue_m542772656_gshared
RVf:_Thread_GetNewManagedId_internal_m3211695465
Uza:_unity_z_deflateReset
Dhc:__ZN5physx2Sc19ContactReportBuffer23reallocateNotThreadSafeEjRjjj
Kka:__ZN17GenericDynamicVBO17DrawChunkInternalERK21DynamicVBOChunkHandle17ShaderChannelMaskS3_P17VertexDeclarationP16DrawBuffersRangeij
hkc:__ZN5physx2Sc5Actor19registerInteractionEPNS0_11InteractionE
IAb:__ZN22MemoryCacherReadBlocks14LockCacheBlockEjPPhS1_
AWd:_Boolean_System_IConvertible_ToChar_m2637404801_AdjustorThunk
LLd:_SecurityContext_Capture_m2535194991
SZf:_UInt16_System_IConvertible_ToSByte_m3044765342_AdjustorThunk
uXh:__ZN4utf88internal15increase_safelyIPKcEENS0_9utf_errorERT_S5_
Gyd:__ZN13PhysicsModule19CreateNxHeightFieldEPv
TEd:__Z21ArrayElementTypeCheckP11Il2CppArrayPv
Fki:_emscripten_glTexSubImage2D__wrapper
W_e:_NameValueCollection_AsSingleString_m10599052
aci:__ZNSt3__212basic_stringIcNS_11char_traitsIcEENS_9allocatorIcEEE6appendEjc
$Ae:_Object_InternalGetHashCode_m1371384246
Hoe:_Int32_System_IConvertible_ToSByte_m1449623243_AdjustorThunk
gLe:_AccessViolationException__ctor_m1270251537
lTg:_X509ExtensionCollection_IndexOf_m3972100651
Opb:__Z14resize_trimmedINSt3__26vectorI8MonoPPtr13stl_allocatorIS2_L18MemLabelIdentifier1ELi16EEEEEvRT_j
Z$a:__ZN39AssetBundleLoadFromStreamAsyncOperation11GetProgressEv
Ke:_TTF_RenderText_Solid
Fnb:__ZN13MonoBehaviour25TransferEngineAndInstanceI24GenerateTypeTreeTransferEEvRT_
M_f:_UInt32_System_IConvertible_ToInt64_m3091851828
hye:_MissingMethodException__ctor_m3898429715
Vaf:_RemotingConfiguration_RegisterClientProviderTemplate_m514821425
dFf:_Enumerator_System_Collections_IEnumerator_Reset_m3085583937_gshared
sIe:_RSAManaged_ExportParameters_m2873993187
lke:_NumberFormatter_Append_m3268121457
nKg:_Enumerator__ctor_m2816143215_AdjustorThunk
eDd:__ZN11UnityEngine7Connect16PersistentValuesC2Ev
c4e:_X509Chain_FindParent_m404663796
fye:_MissingMemberException__ctor_m2164043278
fnh:__ZL7log2_32j
Kkb:__ZN13EmscriptenWWW10OnProgressEPvjj
Isb:__Z19TransferField_ArrayI17RemapPPtrTransfer27Converter_UnityEngineObjectEvRK23StaticTransferFieldInfoR31RuntimeSerializationCommandInfoRT0_
OSc:__ZNK5physx2Sc7BodySim13isConnectedToERKNS0_8RigidSimERb
hqe:_NumberFormatter_InitDecHexDigits_m1612588520
Fsd:__ZN14PhysicsManager23VirtualRedirectTransferER17RemapPPtrTransfer
gw:__ZN4FMOD6System9createDSPEP20FMOD_DSP_DESCRIPTIONPPNS_3DSPE
gf:_JS_SystemInfo_HasCursorLock
os:__ZN4FMOD8ChannelI11EndCallbackEv
$Id:_ToBase64Transform_TransformBlock_m2201454137
emh:_Enumerator_MoveNext_m3980662062
Rof:_OpCode_get_StackBehaviourPop_m3787015663_AdjustorThunk
Ntg:_PatternCompiler_EmitCount_m3609178511
Rbb:__ZN15QualitySettings23VirtualRedirectTransferER24GenerateTypeTreeTransfer
ech:_AttributeHelperEngine__cctor_m1775592582
Gad:__ZN5physx2Gu32PCMConvexVsMeshContactGeneration35generateTriangleFullContactManifoldERNS0_9TriangleVEjPKjhRKNS0_13PolygonalDataEPNS0_16SupportLocalImplIS2_EEPNS0_12SupportLocalEPNS0_21MeshPersistentContactERjRKNS_6shdfnd3aos6FloatVERNSI_5Vec3VE
tLh:__ZN6il2cpp2os10FileHandleC2Ev
VTb:__Z59Register_UnityEngine_MonoBehaviour_Internal_CancelInvokeAllv
$qh:__ZN30dense_hashtable_const_iteratorINSt3__24pairIK10KeyWrapperIPK19Il2CppGenericMethodEPK26Il2CppGenericMethodIndicesEES6_N6il2cpp8metadata23Il2CppGenericMethodHashEN14dense_hash_mapIS6_SA_SE_NS6_14EqualsComparerINSD_26Il2CppGenericMethodCompareEEENS0_9allocatorISB_EEE9SelectKeyESI_SK_EppEv
RZe:_HybridDictionary_Add_m1037587952
D8:__Z37GetBarycentricCoordinatesForOuterCellPPK8Vector3fRK13dynamic_arrayIS_Lj4EERS0_RK11TetrahedronR8Vector4fRf
TRh:__ZN6il2cpp6icalls8mscorlib6System10Reflection10MonoMethod29get_IsGenericMethodDefinitionEP22Il2CppReflectionMethod
JMh:__ZN6il2cpp2vm6Thread21AllocThreadStaticDataEi
I5d:_DateTime_YearMonthDayFormats_m4204607055
O_h:__ZN30dense_hashtable_const_iteratorINSt3__24pairIK10KeyWrapperIPK19Il2CppGenericMethodEP10MethodInfoEES6_N6il2cpp8metadata23Il2CppGenericMethodHashEN14dense_hash_mapIS6_S9_SD_NS6_14EqualsComparerINSC_26Il2CppGenericMethodCompareEEENS0_9allocatorISA_EEE9SelectKeyESH_SJ_EppEv
Ly:__Z13RegisterClassI13AudioListenerEvv
Lkh:_Aes__ctor_m4020215067
uWb:__Z18Transfer_BlittableI9JSONWriteLb0E8Vector3fEvRK29SerializationCommandArgumentsR31RuntimeSerializationCommandInfo
Kf:_emscripten_glUniform4i
Jac:__ZN16RayRTreeCallbackILi0ELb1EED2Ev
Ve:_emscripten_glUniform4f
pba:__ZN6Object22CheckInstanceIDsLoadedEPii
oj:___unlock
M0d:_Comparer_Compare_m4132969818
Sx:__ZN20SoundChannelInstance19setReverbPropertiesEP29FMOD_REVERB_CHANNELPROPERTIES
WPh:__ZN6il2cpp2vm9Exception18GetFormatExceptionEPKc
Nbc:__ZN5physx3Cct17CapsuleController15setClimbingModeENS_21PxCapsuleClimbingMode4EnumE
x2c:__ZN5physx6shdfnd9atomicAddEPVii
I_d:_ArrayList_Sort_m923359189
hZc:__ZN5physx6shdfnd5ArrayINS_3Scb13MaterialEventENS0_19ReflectionAllocatorIS3_EEE6resizeEjRKS3_
Lxf:_InternalEnumerator_1_System_Collections_IEnumerator_get_Current_m3088751576_gshared
t8c:__ZNK5physx14SingleAABBTask25updateNumFastMovingShapesEv
j0g:__Z78RuntimeInvoker_Void_t1841601450_Int64_t909078037_Il2CppObject_Int64_t909078037PK10MethodInfoPvPS2_
gX:__Z11StringToKeyRKN4core12basic_stringIcNS_20StringStorageDefaultIcEEEE
Jrf:_MonoField_CheckGeneric_m1527550038
upd:__ZN5physx17ConvexMeshBuilder16computeGaussMapsEv
JJ:__ZN13RuntimeStaticI15DirectorManagerLb0EE16StaticInitializeEPv
rHe:_AttrListImpl_Add_m130708252
SVf:_Thread_get_ManagedThreadId_m1995754972
lhb:__ZN11TimeManager6UpdateEv
rca:__ZN6Shader18LoadDefaultShadersEv
qqc:__ZNK5physx2Sc16ArticulationCore22computeImpulseResponseERNS0_8BodyCoreERNS_6PxVec3ES5_RKNS_9PxcFsDataERKS4_SA_
Wbd:__ZN5physx21PxsBodyTransformVaultC2Ev
fNg:_ReadOnlyCollection_1_System_Collections_ICollection_CopyTo_m406069566_gshared
$_d:_ArrayListWrapper_Contains_m1158465965
R9c:__ZL6IsInYZffPPK10VertexInfo
oqd:__ZN5physx19TriangleMeshBuilderD0Ev
qai:_fflush
s8:__ZN17LightProbeContext4InitERK16LightmapSettingsRK14RenderSettings
C8h:__GLOBAL__sub_I_Error_cpp
bwg:_Alternation_GetWidth_m4218808325
M8:__ZN9Texture3DD2Ev
Z_e:_TypeConverterAttribute__ctor_m4061167050
ICc:__ZN5physx2CmlsERNS0_12RenderOutputERKNS0_10DebugArrowE
nNa:__Z34ProcessIndexListIsNodeVisibleStep2RK22SceneCullingParametersPK9SceneNodePK4AABBR9IndexList
Elb:__ZN10MonoScriptD2Ev
h1e:_WebHeaderCollection_Get_m3391944907
pJ:__GLOBAL__sub_I_half_cpp
oTb:__Z39Input_CUSTOM_INTERNAL_get_mousePositionP8Vector3f
xya:__ZN9ShaderLab4Pass16SetupPassOptionsEv
xQg:_UnityEvent_4__ctor_m3102731553_gshared
Zg:_JS_Sound_ReleaseInstance
Qea:__ZN13GfxDeviceGLES19DrawBuffersIndirectEP9GfxBufferPK18VertexStreamSourceiP17VertexDeclaration17ShaderChannelMask16GfxPrimitiveType15ComputeBufferIDj
Uid:__ZN5physx16PxsCCDBlockArrayINS_13PxsCCDOverlapELi128EE8pushBackEv
uji:_emscripten_glPixelStorei__wrapper
Vzb:__Z29Transfer_Blittable_ArrayFieldI18StreamedBinaryReadILb0EEaEvRT_R9ArrayInfoRK23StaticTransferFieldInfo
jUb:__Z21Resources_CUSTOM_LoadP12Il2CppStringP12Il2CppObject
um:FUNCTION_TABLE_diddi
iPh:__ZN6il2cpp6icalls8mscorlib6System5Array8FastCopyEP11Il2CppArrayiS5_ii
Vmd:__ZN5physx2Gu12TriangleMesh7releaseEv
Cne:_Int16_System_IConvertible_ToSingle_m3277935657_AdjustorThunk
bch:_AttributeHelperEngine_CheckIsEditorScript_m2980171478
zYe:_SslStreamBase_get_KeyExchangeAlgorithm_m3712013038
$Dg:_InternalRemotingServices__cctor_m3821625125
CSd:_StringBuilder_Insert_m3322917127
A$c:__ZN5physx14PxsAABBManagerD2Ev
k7d:_Convert_ToDouble_m3520060872
Oii:_emscripten_glUniform1f__wrapper
_di:dynCall_di
hXe:_SslCipherSuite_ComputeServerRecordMAC_m1876572367
k$c:__ZN5physx16PxsIslandManagerD2Ev
eWb:__Z28RegisterModule_JSONSerializev
bVf:_Interlocked_CompareExchange_m3227034792
Ihf:_HashAlgorithm_get_Hash_m931854461
lPb:__Z20IsHumanControllingUsv
sBa:__ZNK19RenderEventsContext21ExecuteCommandBuffersEijR17ShaderPassContextR15RenderNodeQueueP19ProfilerInformationi
s_a:__ZN10systeminfo21GetPersistentDataPathEv
Hea:__ZN13GfxDeviceGLES17DestroyGpuProgramEPK10GpuProgram
kle:_GregorianCalendar_GetMonth_m523739832
uob:__Z44InitializeTransferFunctionScriptingTraitsForI18StreamedBinaryReadILb0EEEvR31TransferFunctionScriptingTraits
oJa:__ZNSt3__218__insertion_sort_3IR23CompareReflectionProbesP31RuntimeReflectionProbeBlendInfoEEvT0_S5_T_
Ssb:__ZN12NativeBufferI27Converter_SimpleNativeClassI8GradientEE15SetupForWritingER9ArrayInfo
eW:__ZN12_GLOBAL__N_113StaticDestroyEPv
$me:_Guid_ToString_m51661589
sni:_glUnmapBuffer__wrapper
tae:_DateTime_System_IConvertible_ToUInt32_m1363211018_AdjustorThunk
zjf:_Binder_get_DefaultBinder_m965620943
j_b:__ZN8JSONRead21TransferSTLStyleArrayINSt3__26vectorI8Gradient13stl_allocatorIS3_L18MemLabelIdentifier1ELi16EEEEEEvRT_17TransferMetaFlags
Jhb:__ZNSt3__218__insertion_sort_3IRNS_6__lessINS_4pairIPKN5Unity4TypeE7Hash128EES8_EEPS8_EEvT0_SC_T_
iub:__ZN10RectOffset8TransferI24GenerateTypeTreeTransferEEvRT_
oVd:_SimpleEnumerator_get_Current_m482975946
VPb:__Z18GetResourceManagerv
Wai:_srand
ZBc:__ZN5physx7NpShape18setQueryFilterDataERKNS_12PxFilterDataE
hch:_AudioClip_InvokePCMSetPositionCallback_Internal_m2304858844
sAd:__ZN11UnityEngine15PlatformWrapper25GetGraphicsRendererStringEv
Hdd:__ZN5physx20PxcNpCacheStreamPair5resetEv
ysh:__ZNK15dense_hashtableINSt3__24pairIK10KeyWrapperI13dynamic_arrayIPK10Il2CppTypeLj4EEEPFvvEEES8_N6il2cpp8metadata19Il2CppSignatureHashEN14dense_hash_mapIS8_SB_SF_NS8_14EqualsComparerINSE_22Il2CppSignatureCompareEEENS0_9allocatorISC_EEE9SelectKeyESJ_SL_E13find_positionERS9_
iId:_SHA512_Create_m439875055
Ib:invoke_vi
aId:_SHA384Managed_update_m2629600295
Hta:__ZN15dense_hashtableINSt3__24pairIKN4core12basic_stringIcNS2_20StringStorageDefaultIcEEEEP20ArchiveStorageReaderEES6_20StringHash32FunctionIS6_EN14dense_hash_mapIS6_S9_SC_NS0_8equal_toIS6_EE13stl_allocatorISA_L18MemLabelIdentifier54ELi16EEE9SelectKeyESF_SI_ED2Ev
Gb:invoke_vd
Hb:invoke_vf
tR:__ZNK10GameObject8IsActiveEv
sAe:_NumberFormatter__cctor_m1641464619
vff:_SByte_System_IConvertible_ToUInt32_m4256495110
Cna:__ZN18GfxFramebufferGLES23SetupDefaultFramebufferEPP17RenderSurfaceBaseS2_N2gl6HandleILNS3_10ObjectTypeE9EEE
yai:_mbsinit
Ulc:__ZN5physx2Sq16computeWorldAABBERKNS_3Scb5ShapeERKNS1_5ActorE
Poh:__ZN6il2cpp2vm5Class12SetupMethodsEP11Il2CppClass
b8c:__ZN5physx14PxsAABBManager31updateAggregateBPOverlapRecordsEv
sRb:__Z39DeleteLastPathNameComponentWithAnySlashRKN4core12basic_stringIcNS_20StringStorageDefaultIcEEEE
HE:__ZN13EmscriptenWWW14BlockUntilDoneEv
Mfa:__ZN13GfxDeviceGLES17UploadTextureCubeE9TextureIDPKhiii13TextureFormati18TextureUploadFlags17TextureColorSpace
AEg:_MethodCall__ctor_m4106494862
ovd:__ZN5physx7profile10DataBufferINS_6shdfnd6MutexTINS0_26WrapperReflectionAllocatorIhEEEENS0_14ScopedLockImplIS6_EEED2Ev
Ja:invoke_iiifii
QAh:__ZN6il2cpp6icalls8mscorlib6System8MonoType13IsPointerImplEP20Il2CppReflectionType
W6d:_Convert_ToDecimal_m2284596541
xdb:__ZN14Texture2DArray34UpdateFileTextureUploadInstructionEP28FileTextureUploadInstructionj
Hi:_emscripten_glFramebufferRenderbuffer
oCe:_SimpleCollator_FilterOptions_m4044781893
Upe:_Int64_GetHashCode_m4047499913
bQa:__ZN9Transform30EnsureTransformHierarchyExistsEv
QYc:__ZN5physx2Sc14ConstraintCore15getPxConstraintEv
mrd:__ZNK8Collider12GetRigidbodyEv
MVd:_Attribute_IsDefined_m216577166
Gn:FUNCTION_TABLE_viiiiiiii
NZd:_Char_ToUpper_m109978609
Ozf:_InternalEnumerator_1_get_Current_m1089848479_gshared
ife:_Double_System_IConvertible_ToInt64_m3798425616
lFd:_Rijndael_Create_m113171669
vg:___cxa_find_matching_catch_4
LTb:__ZN13MonoBehaviour13StopCoroutineEPKc
paf:_ProviderData_CopyFrom_m431414335
pFa:__ZN14qsort_internal17MedianOfThreeSwapIP17RODataReplacement19ROSorterReplacementEEvT_S4_S4_T0_
_Lg:_Collection_1_System_Collections_IList_Insert_m3303840316_gshared
Gnh:__ZNK15dense_hashtableINSt3__24pairIK10KeyWrapperIPK22Il2CppGenericParameterEP11Il2CppClassEES6_N6il2cpp5utils11PointerHashIS4_EEN14dense_hash_mapIS6_S9_SE_NS6_14EqualsComparerINS0_8equal_toIS5_EEEENS0_9allocatorISA_EEE9SelectKeyESJ_SL_E3endEv
oRb:__ZN17TransformInternal36OnScaleChangedCalculateTransformTypeE15TransformAccess
b0d:_SynchronizedArrayListWrapper_InsertRange_m709359548
dwa:__ZN17ArchiveFileSystem10ToAbsoluteEPKc
lNe:_BigInteger_op_Modulus_m13450242
b6d:_DateTime__ctor_m3604679583
M7d:_Convert_ToInt32_m2988544165
VGb:__ZL12SetPrefValueRKN4core12basic_stringIcNS_20StringStorageDefaultIcEEEERK9PrefValue
kM:__ZN19ShaderPropertySheet20ReservePropertyCountEj
aXh:__ZN6il2cpp5utils11StringUtils6PrintfEPKcz
MKh:__ZNSt3__26vectorIN6il2cpp8metadata18GenericArrayMethodENS_9allocatorIS3_EEE7reserveEj
O2:__ZN15NameToObjectMapI6ShaderNSt3__23mapI4PPtrIS0_EN4core12basic_stringIcNS5_20StringStorageDefaultIcEEEENS1_4lessIS4_EENS1_9allocatorINS1_4pairIKS4_S9_EEEEEENS1_8multimapIS9_S4_NSA_IS9_EENSC_INSD_IKS9_S4_EEEEEEE4FindERSK_
jnh:__ZN6il2cpp6icalls8mscorlib6System7Decimal13decimal2Int64EP19il2cpp_decimal_reprPx
nih:_Object_INTERNAL_CALL_Internal_InstantiateSingle_m3932420250
Bza:_UNITY_png_zstream_error
Gnf:_ILGenerator_make_room_m373147874
Qvd:__ZN5physx6shdfnd8PoolBaseINS_24NpPtrTableStorageManager8PtrBlockILi16EEENS0_19ReflectionAllocatorIS4_EEED2Ev
IIf:_Dictionary_2_Init_m1045257495_gshared
Qmi:_emscripten_glLinkProgram__wrapper
Koh:__ZN6il2cpp2vm5Class12GetFinalizerEP11Il2CppClass
THe:_PKCS1_Verify_v15_m2571212635
z6a:__ZNSt3__212__deque_baseI18ReflectionProbeJobNS_9allocatorIS1_EEED2Ev
SBb:__ZN15dense_hashtableINSt3__24pairIKiN4core17string_with_labelILi1EEEEEi18SInt32HashFunctionN14dense_hash_mapIiS5_S7_NS0_8equal_toIiEE13stl_allocatorIS6_L18MemLabelIdentifier1ELi16EEE9SelectKeyESA_SD_E13set_empty_keyERKS6_
pwc:__ZN5physx2Sc9ShapeCore23setSimulationFilterDataERKNS_12PxFilterDataE
WQd:_DecoderReplacementFallbackBuffer__ctor_m1305504326
h_b:__Z13TransferFieldI8JSONReadLb0E27Converter_SimpleNativeClassI10RectOffsetEEvRK23StaticTransferFieldInfoR31RuntimeSerializationCommandInfoRT1_
NOd:_String_IndexOf_m570401060
Ufe:_Enum_System_IConvertible_ToDateTime_m2924690746
ZYa:__ZN11AssetBundle9AssetInfo8TransferI14SafeBinaryReadEEvRT_
Dhf:_HashAlgorithm_System_IDisposable_Dispose_m2106335965
QSh:__GLOBAL__sub_I_GenericMetadata_cpp
cAh:__ZN6il2cpp6icalls8mscorlib6System8MonoType18GetFields_internalEP20Il2CppReflectionTypeiS5_
QMa:__Z24CalculateSpotLightBoundsffRK10Matrix4x4fR15SpotLightBounds
KBe:_TailoringInfo__ctor_m2248501932
FA:__ZN23CloudWebServicesManager23VirtualRedirectTransferER14SafeBinaryRead
A$d:_FixedSizeArrayListWrapper_InsertRange_m2690348965
bnb:__Z19ShouldTransferFieldR32SerializationCommandQueueBuilder17ScriptingClassPtriR18TransferField_InfoRK20CoreScriptingClasses
wue:_MemoryStream_Read_m2289595005
lx:__ZN5audio5mixer22UpdateAudioMixerMemoryERKNS0_18AudioMixerConstantERNS0_16AudioMixerMemoryEfPN4FMOD6SystemEf
izd:__ZL21InitializeCachedStripPv
uOh:__ZN6il2cpp6icalls8mscorlib6System9Threading6Thread23GetCachedCurrentCultureEP12Il2CppThread
qFa:__ZNK6Camera22GetWorldToCameraMatrixEv
WTh:__ZN6il2cpp2vm12GenericClass11IsValueTypeEP18Il2CppGenericClass
qmb:__ZN13MonoBehaviour7SetNameEPKc
fQe:_ContentInfo__ctor_m3579805263
K$c:__ZN5physx6shdfnd8PoolBaseINS_2Sc26ActorPairContactReportDataENS0_19ReflectionAllocatorIS3_EEE15disposeElementsEv
A7:__ZN18AwakeFromLoadQueue5ClearEv
Ikd:__ZN5physx6shdfnd5ArrayIfNS0_19ReflectionAllocatorIfEEE8recreateEj
BLa:__ZNSt3__27__sort5IR15ReflProbeSorterPP15ReflectionProbeEEjT0_S6_S6_S6_S6_T_
kk:_glGenTransformFeedbacks
Nba:__ZN13LoadOperationD2Ev
zGe:_KeyPairPersistence__ctor_m1817312194
p4c:__ZN5physx20PxsSolverCoreGeneral6createEv
cLf:_Array_InternalArray__ICollection_Contains_TisMark_t2724874473_m1640201705_gshared
Uhc:__ZL29GeomOverlapCallback_SphereBoxRKN5physx10PxGeometryERKNS_11PxTransformES2_S5_PNS_2Gu12TriggerCacheE
C2:__ZNSt3__27__sort5IRPFbRKNS_4pairIN9ShaderLab16FastPropertyNameEN18UnityPropertySheet11UnityTexEnvEEES8_EPS6_EEjT0_SD_SD_SD_SD_T_
gja:__ZNK7ApiGLES18GetExtensionStringEv
kPf:_Array_InternalArray__ICollection_CopyTo_TisSlot_t2267560602_m1792475781_gshared
Pii:_emscripten_glVertexAttrib1f__wrapper
mva:__ZNK12HandlerChain4SizeERK13FileEntryData
vJf:_DefaultComparer_Equals_m1281232537_gshared
Jo:FUNCTION_TABLE_iiiiiiiii
eEc:__ZN5physx7NpCloth15setInertiaScaleEf
Hgf:_DES_IsSemiWeakKey_m3967392585
ZR:__Z24GetComponentOrScriptNameRN5Unity9ComponentE
Ine:_Int16_System_IConvertible_ToUInt32_m883204517_AdjustorThunk
Fsf:_MonoProperty_get_PropertyType_m1921201152
Vnd:__ZN5physx6shdfnd4sortIPvNS0_4LessIS2_EENS0_19ReflectionAllocatorIN17PxcPoolMallocData10PoolData16EEEEEvPT_jRKT0_RKT1_j
d5b:__Z19sweepBox_SphereGeomRKN5physx10PxGeometryERKNS_11PxTransformERKNS_2Gu3BoxERKNS_6PxVec3EfRNS_10PxSweepHitENS_7PxFlagsINS_9PxHitFlag4EnumEtEEf
i1h:_GC_allochblk
Bzd:__ZN22BaseUnityConnectClient19SendAppRunningEventEv
D7:__Z15UnloadGameScenev
nni:_glCheckFramebufferStatus__wrapper
Old:__ZNK5physx13GuMeshFactory15getHeightFieldsEPPNS_13PxHeightFieldEjj
oRf:_Array_InternalArray__set_Item_TisKeyframe_t1449471340_m2314998918_gshared
jcf:_BinaryCommon_IsPrimitive_m2132448955
_Qc:__ZN5physx2Cm20visualizeJointFramesERNS0_12RenderOutputEfRKNS_11PxTransformES5_
N0d:_CaseInsensitiveHashCodeProvider__ctor_m3775398833
z9c:__ZN5physx22PxcContactPlaneCapsuleERKNS_2Gu13GeometryUnionES3_RKNS_11PxTransformES6_RKfRNS_10PxcNpCacheERNS0_13ContactBufferE
hEh:__ZNK15dense_hashtableINSt3__24pairIK10KeyWrapperIPK10Il2CppTypeEjEES6_N6il2cpp8metadata14Il2CppTypeHashEN14dense_hash_mapIS6_jSB_NS6_14EqualsComparerINSA_26Il2CppTypeEqualityComparerEEENS0_9allocatorIS8_EEE9SelectKeyESF_SH_E13find_positionERS7_
EX:__ZN8Material10SetTextureEN9ShaderLab16FastPropertyNameEP7Texture
htb:__Z18Transfer_BlittableI24GenerateTypeTreeTransferLb0E8Vector2fEvRK29SerializationCommandArgumentsR31RuntimeSerializationCommandInfo
atb:__Z18Transfer_BlittableI24GenerateTypeTreeTransferLb1EhEvRK29SerializationCommandArgumentsR31RuntimeSerializationCommandInfo
Jbc:__ZN5physx3Cct17CapsuleController9setRadiusEf
hNf:_Array_FindLastIndex_TisIl2CppObject_m3885928623_gshared
pei:dynCall_iiifii
eU:__ZnwjRKSt9nothrow_t
Ijb:__ZNSt3__26vectorIi13stl_allocatorIiL18MemLabelIdentifier12ELi16EEE8__appendEj
E2e:_X500DistinguishedName_Decode_m3070515374
T0:__ZN14SafeBinaryRead19TransferSTLStyleMapINSt3__23mapI39DeprecatedFastPropertyNameSerializationN18UnityPropertySheet11UnityTexEnvENS1_4lessIS3_EENS1_9allocatorINS1_4pairIKS3_S5_EEEEEEEEvRT_17TransferMetaFlags
_Tb:__Z45Register_UnityEngine_MonoBehaviour_IsInvokingv
E0g:__Z65RuntimeInvoker_Void_t1841601450_Int64_t909078037_Int64_t909078037PK10MethodInfoPvPS2_
o0e:_IPv6Address_set_ScopeId_m1442934355
Adf:_ObjectManager_RaiseOnDeserializedEvent_m512850179
SAc:__ZN5physx9NpPhysics26unregisterDeletionListenerERNS_18PxDeletionListenerE
fQb:__Z35UnregisterSerializationCacheBuilderPFv17ScriptingClassPtrR23CachedSerializationDataRbE
t$:__Z30GetBuiltinVectorParamArraySize24BuiltinShaderVectorParam
wBe:_CodePointIndexer__ctor_m797342079
vbb:__ZN21RendererUpdateManager11AddRendererER8Renderer
dIb:__Z13RegisterClassI15ResourceManagerEvv
ttc:__ZNK5physx18NpArticulationLink15getArticulationEv
Eeb:__ZN14SafeBinaryRead21TransferSTLStyleArrayI13dynamic_arrayIfLj4EEEEvRT_17TransferMetaFlags
bXh:__ZN6il2cpp5utils11StringUtils11Utf16ToUtf8EPKDs
grf:_MonoEventInfo_GetEventInfo_m2331957186
JAd:__ZN11UnityEngine15PlatformWrapper20IsRootedOrJailbrokenEv
e3e:_X509Certificate2_GetNameInfo_m402390219
LMa:__Z33IntersectAABBPlaneBoundsOptimizedRK4AABBPKN4math7_float4Ei
tVd:_Swapper_BeginInvoke_m2652511022
iUf:_UTF8Encoding_GetBytes_m2973831055
Uea:__ZN9GfxDevice19EndGeometryJobFrameEv
Xsb:__ZN27Converter_SimpleNativeClassI17AnimationCurveTplIfEE17ScriptingToNativeER18ScriptingObjectPtrPS1_
Gae:_DateTime_get_UtcNow_m1309841468
Wtc:__ZN5physx2Sc15CoreInteraction17isCoreInteractionEPNS0_11InteractionE
q7h:__ZN6il2cpp8metadata24Il2CppGenericInstCompare7CompareERK10KeyWrapperIPK17Il2CppGenericInstES8_
Uud:__ZThn132_N5physx7profile8ZoneImplINS_28PxProfileNameProviderForwardEED0Ev
p0b:__ZN5physx3Cct13BoxController17setHalfSideExtentEf
Yqh:__ZNK15dense_hashtableINSt3__24pairIK10KeyWrapperIPK19Il2CppGenericMethodEPK26Il2CppGenericMethodIndicesEES6_N6il2cpp8metadata23Il2CppGenericMethodHashEN14dense_hash_mapIS6_SA_SE_NS6_14EqualsComparerINSD_26Il2CppGenericMethodCompareEEENS0_9allocatorISB_EEE9SelectKeyESI_SK_E5beginEv
Ura:__ZN9GfxDevice22UploadTextureCubeArrayE9TextureIDPKhjii13TextureFormati18TextureUploadFlags17TextureColorSpace
XIb:__ZNK17AnimationCurveTplIfE8EvaluateEfPNS0_5CacheE
nxa:__Z31ManagerContextInitializeClassesv
MY:__ZNSt3__26vectorIP10MemoryPool13stl_allocatorIS2_L18MemLabelIdentifier72ELi16EEE21__push_back_slow_pathIKS2_EEvRT_
dP:__ZN9Scripting30SetCachedPtrOnScriptingWrapperE18ScriptingObjectPtrP6Object
Ot:__ZNK12AudioManager26GetTypeInfoVirtualInternalEv
Evb:__Z18Transfer_BlittableI19StreamedBinaryWriteILb0EELb0EdEvRK29SerializationCommandArgumentsR31RuntimeSerializationCommandInfo
oQd:_ASCIIEncoding_GetBytes_m3649277167
YCg:_Context_GetProperty_m1664740450
X7e:_IntervalCollection_Normalize_m538796191
h1f:_Version__ctor_m2972638031
GEc:__ZN5physx7NpCloth19setCollisionSpheresEPKNS_22PxClothCollisionSphereEj
OEe:_Kernel_MultiplyByDword_m155008287
Udb:__ZN4MeshD0Ev
NDd:__ZL42RequestRecreateEyeTexturesBeforeNextUpdatev
J_:__ZNK6Camera20IsCurrentlyRenderingEv
UYe:_SslStreamBase_Read_m1036897444
gXb:__Z18Transfer_BlittableI9JSONWriteLb0EdEvRK29SerializationCommandArgumentsR31RuntimeSerializationCommandInfo
L2a:__ZN6Camera8TransferI19StreamedBinaryWriteILb0EEEEvRT_
MNg:_ReadOnlyCollection_1_System_Collections_IList_Insert_m3679749778_gshared
t9h:_wctomb
hSb:__Z27Camera_CUSTOM_GetAllCamerasP11Il2CppArray
H4d:_Convert_InternalFromBase64String_m3682756716
Pc:___cxa_rethrow
Jmd:__ZN5physx20InternalTriangleMesh17allocateFaceRemapEv
EYb:__Z18Transfer_BlittableI8JSONReadLb1EhEvRK29SerializationCommandArgumentsR31RuntimeSerializationCommandInfo
Vii:_glBindRenderbuffer__wrapper
Kvg:_Regex_System_Runtime_Serialization_ISerializable_GetObjectData_m4035555909
iXf:_TimeSpan_Add_m3228293154
wQa:__ZN13MonoBehaviour8SetClassE17ScriptingClassPtr18ScriptingObjectPtr
MPe:_RC4__cctor_m523650203
nUc:__ZNK5physx7NpScene26getBounceThresholdVelocityEv
O_c:__ZN5physx6shdfnd8PoolBaseINS_2Sc12SimStateDataENS0_19ReflectionAllocatorIS3_EEE15disposeElementsEv
EDg:_CrossContextDelegate_Invoke_m2908136830
aKa:__ZNSt3__211__sift_downIRN23ForwardShaderRenderLoop18RenderObjectSorterILb0EEEP21ForwardRenderPassDataEEvT0_S7_T_NS_15iterator_traitsIS7_E15difference_typeES7_
yxe:_UnmanagedMemoryStream_get_Position_m4093669769
Gmb:__ZN13MonoBehaviour5DoGUIENS_13GUILayoutTypeEii
_Wa:__ZNK12TLSAllocatorI14StackAllocatorE8ContainsEPKv
nhb:__ZN11TimeManager8TransferI18StreamedBinaryReadILb0EEEEvRT_
Amd:__ZNK5physx13GuMeshFactory19getNbTriangleMeshesEv
iGb:__ZN15SerializeTraitsINSt3__23mapI4PPtrI6ShaderEN4core12basic_stringIcNS5_20StringStorageDefaultIcEEEENS0_4lessIS4_EENS0_9allocatorINS0_4pairIKS4_S9_EEEEEEE8TransferI24GenerateTypeTreeTransferEEvRSH_RT_
Sgf:_DESTransform__cctor_m1179482644
geb:__ZN14BlendShapeData8TransferI14SafeBinaryReadEEvRT_
E5b:__ZN5physx2Gu15getPolygonIndexERKNS0_13PolygonalDataEPNS0_12SupportLocalERKNS_6shdfnd3aos5Vec3VE
dge:_Enum_Format_m2294492821
Hfd:__ZN5physx36normalizePartitionsWithArticulationsERNS_6shdfnd5ArrayIjNS0_19ReflectionAllocatorIjEEEEPNS_23PxcSolverConstraintDescEPKNS_13PxcSolverBodyEjjS5_Pjj
O7a:__ZN7Texture25ReloadFromStorageIfNeededEPvb
bkb:__ZN24GenerateTypeTreeTransfer8TransferINSt3__26vectorIN30RuntimeInitializeOnLoadManager15ClassMethodInfoE13stl_allocatorIS4_L18MemLabelIdentifier12ELi16EEEEEEvRT_PKc17TransferMetaFlags
AW:__Z20RegisterLogToConsolePFvRKN4core12basic_stringIcNS_20StringStorageDefaultIcEEEEiPKciiiiPFvRK11CppLogEntryEE
JXc:__ZN5physx2Sq17SceneQueryManager17processSimUpdatesEv
YFf:_ShimEnumerator_get_Entry_m2332479818_gshared
$ae:_DateTime_CheckDateTimeKind_m329345155_AdjustorThunk
igh:_PlayableHandle_Equals_m1435096530_AdjustorThunk
rPh:__ZN6il2cpp6icalls8mscorlib6SystemL15ThrowNoWideningEv
opc:__ZN5physx6shdfnd5ArrayIPvNS0_19ReflectionAllocatorINS_13NpRigidStaticEEEE15growAndPushBackERKS2_
fJb:__ZNK23TransformChangeDispatch24GetChangeMaskForInterestENS_12InterestTypeE
Mdi:dynCall_viiiiiiiiiii
QWc:__ZN5physx10PxsContext25setVisualizationParameterENS_24PxVisualizationParameter4EnumEf
DWa:__ZL10KeyHandleriPK23EmscriptenKeyboardEventPv
$sh:__ZN14dense_hash_mapI10KeyWrapperI13dynamic_arrayIPK10Il2CppTypeLj4EEEPFvvEN6il2cpp8metadata19Il2CppSignatureHashENS6_14EqualsComparerINSA_22Il2CppSignatureCompareEEENSt3__29allocatorINSF_4pairIKS6_S8_EEEEEC2EjRKSB_RKSE_
q1:__ZNSt3__26__treeINS_12__value_typeI39DeprecatedFastPropertyNameSerializationfEENS_19__map_value_compareIS2_S3_NS_4lessIS2_EELb1EEENS_9allocatorIS3_EEE7destroyEPNS_11__tree_nodeIS3_PvEE
usd:__ZN8Collider16TransformChangedEi
v5b:__ZN24ConvexVsHeightfieldSweepC2ERN5physx2Gu15HeightFieldUtilERKNS1_14ConvexHullDataERKNS0_11PxMeshScaleERKNS0_11PxTransformESC_RKNS0_6PxVec3EfNS0_7PxFlagsINS0_9PxHitFlag4EnumEtEEfbb
Zbh:_AsyncOperation_get_allowSceneActivation_m2825451182
JXf:_TimeSpan_op_Addition_m3421801803
psb:__ZL26Transfer_SimpleNativeClassI17RemapPPtrTransfer10RectOffsetLb0EEvRK29SerializationCommandArgumentsR31RuntimeSerializationCommandInfo
VMb:__ZN16GraphicsSettings12CleanupClassEv
Qld:__ZN5physx13GuMeshFactory17createHeightFieldERNS_13PxInputStreamE
bae:_DateTime_System_IConvertible_ToInt32_m2789391054_AdjustorThunk
wFe:_ASN1Convert_FromInt32_m1541043489
o5d:_Convert_ToByte_m1008221737
NOe:_MD2Managed_MD2Transform_m3825201358
L9a:__ZN21EnlightenSceneMapping16BuildRemapTablesEv
jdc:__ZNK5physx2Cm12RenderBuffer8getTextsEv
SCb:__ZNSt3__26vectorIN9ShaderLab20SerializedSubProgram13BufferBindingENS_9allocatorIS3_EEEC2ERKS6_
lob:__ZNSt3__26vectorI4PPtrI10MonoScriptE13stl_allocatorIS3_L18MemLabelIdentifier76ELi16EEE8__appendEj
v$:__ZNK9ShaderLab20ShaderBlendStateDesc15ToGfxBlendStateEPK19ShaderPropertySheetS3_R13GfxBlendState
V0c:__ZN5physx2Sq8AABBTree11shiftOriginERKNS_6PxVec3E
UFb:__ZN9ShaderLab9IntShaderC2Ev
XAh:__ZN6il2cpp6icalls8mscorlib6SystemL9IsPrivateEPK9EventInfo
O5h:__ZN6il2cpp6icalls8mscorlib6System10Reflection4Emit11TypeBuilder20setup_internal_classEP27Il2CppReflectionTypeBuilderS7_
Lod:__ZN5physx11AdjacenciesD2Ev
pRc:__ZN5physx6shdfnd8PoolBaseINS_2Sc24ElementInteractionMarkerENS0_19ReflectionAllocatorIS3_EEE12allocateSlabEv
o0c:__ZN5physx2Sq16BucketPrunerCore11shiftOriginERKNS_6PxVec3E
Vvf:_ArrayReadOnlyList_1_IndexOf_m1809425308_gshared
bCh:_il2cpp_gc_disable
Q3e:_X509Chain_GetSubjectKeyIdentifier_m4232927227
z2d:_Hashtable_Clone_m165405752
cXc:__ZN5physx6shdfnd5ArrayIPNS_3Scb5ShapeENS0_19ReflectionAllocatorIS4_EEE6resizeEjRKS4_
Hcc:__ZN5physx3Cct15ObstacleContextD2Ev
feh:_Component_BroadcastMessage_m444672650
cAd:__ZN11UnityEngine15PlatformWrapper19GetPhysicalMemoryMBEv
SH:__Z15CreateDirectoryRKN4core12basic_stringIcNS_20StringStorageDefaultIcEEEE
F8:__Z21CalculateGlobalMatrix23TransformAccessReadOnly
R5f:__ZL70InternalsVisibleToAttribute_t1037732567_CustomAttributesCacheGeneratorP21CustomAttributesCache
cse:_MonoIO_GetCurrentDirectory_m1509324201
iTd:_UTF32Encoding_GetHashCode_m4205784236
z1c:__ZN5physx2Cm10FanoutTaskC2EPKc
YZc:__ZNK5physx2Sc5Scene17prefetchForRemoveERKNS0_8BodyCoreE
bIb:__Z13RegisterClassI14RenderSettingsEvv
GXf:_TimeSpan_Subtract_m3597791685_AdjustorThunk
Nmc:__ZN5physx2Sc8RigidSimD2Ev
dyb:__Z29Transfer_Blittable_ArrayFieldI18StreamedBinaryReadILb1EE5RectTIfEEvRT_R9ArrayInfoRK23StaticTransferFieldInfo
Ueh:_Logger__ctor_m3834134587
pWc:__ZNK5physx13NpVolumeCache7raycastERKNS_6PxVec3ES3_fRNS_13PxHitCallbackINS_12PxRaycastHitEEENS_7PxFlagsINS_9PxHitFlag4EnumEtEERKNS_17PxQueryFilterDataEPNS_21PxQueryFilterCallbackE
rfa:__ZNK9GfxDevice27GetActiveRenderSurfaceWidthEv
MYa:__ZNK11AssetBundle26GetTypeInfoVirtualInternalEv
MRg:_PKCS12_get_Keys_m1312614820
Vbd:__ZN5physx16PxsIslandManagerC2EjRNS_19PxcScratchAllocatorEPNS_2Cm13EventProfilerE
uAd:__ZN11UnityEngine15PlatformWrapper28GetCleanGraphicsFixedVersionEv
w:tempBigIntP
kgh:_PlayableHandle_GetHashCode_m1257452282_AdjustorThunk
M8c:__ZN5physx13ActorAABBTask11runInternalEv
yVd:_AssemblyLoadEventHandler_Invoke_m108373765
Mwh:__ZL24UnresolvedVirtualCall_76P12Il2CppObjectPK10MethodInfo
I4:__ZN6prcoreL17RemapGenericFloatI18TexFormatRGBAFloat17TexFormatRGBAHalfEEvPKNS_9InnerInfoE
HNc:__ZN5physx14NpRigidDynamic18setKinematicTargetERKNS_11PxTransformE
Pmh:_WebRequestUtils__cctor_m893658947
D9a:__ZN10GISettings8TransferI14SafeBinaryReadEEvRT_
jn:FUNCTION_TABLE_vifff
cjh:_Physics_Raycast_m4027183840
dZ:__ZN13RenderTexture13ApplySettingsEv
Oe:_JS_Sound_SetListenerPosition
an:FUNCTION_TABLE_fiffi
Gof:_ModuleBuilderTokenGenerator_GetToken_m3427457873
Qlb:__ZN9TextAsset9SetScriptERKN4core12basic_stringIcNS0_20StringStorageDefaultIcEEEEb
_Dc:__ZN5physx7NpCloth21setLinearInertiaScaleENS_6PxVec3E
I0f:_UnauthorizedAccessException__ctor_m3480402128
LEe:_BigInteger_op_Modulus_m3788401748
eEg:_ArgInfo_GetInOutArgs_m3184132151
N6:__ZNK8Material16MarkDependenciesER27GarbageCollectorThreadState
iXb:__ZL17Transfer_GUIStyleI9JSONWriteLb0EEvRK29SerializationCommandArgumentsR31RuntimeSerializationCommandInfo
CEa:__Z28GetHaloVertexPositionsStereoP8Vector3fRKS_S2_f
hyd:__ZN17TriggerStayStates20executeDeferredEraseEv
y5:__ZN6prcoreL27StretchGenericFloatBilinearI15TexFormatRGHalfEEvPKNS_9InnerInfoE
iHg:_Enumerator_MoveNext_m598197344_AdjustorThunk
afh:_DisplaysUpdatedDelegate_Invoke_m3646339243
d8c:__ZN5physx14PxsAABBManager22processAggregateSingleERKNS_19AggregateSortedDataERKNS_9AggregateEjPNS_2Cm10BitMapBaseINS_6shdfnd9AllocatorEEE
tPd:_String_JoinUnchecked_m1880555587
M$:__ZNK9ShaderLab7Program21GetMatchingSubProgramEPK6ShaderPKNS_4PassERK16ShaderKeywordSetjPS7_R19ShaderSnippetResult
VPf:_Array_InternalArray__Insert_TisKeyValuePair_2_t1174980068_m2464431954_gshared
Qcd:__ZN5physx2Sc17ParticleSystemSim20scheduleCollisionCpuERNS0_16InteractionSceneERKNS_6shdfnd5ArrayIPS1_NS4_19ReflectionAllocatorIS6_EEEERNS_10PxBaseTaskE
mIf:_Dictionary_2_U3CCopyToU3Em__0_m1479035402_gshared
u0d:_BitArray_set_Item_m3801461194
Unh:__ZN15dense_hashtableINSt3__24pairIK10KeyWrapperIPK22Il2CppGenericParameterEP11Il2CppClassEES6_N6il2cpp5utils11PointerHashIS4_EEN14dense_hash_mapIS6_S9_SE_NS6_14EqualsComparerINS0_8equal_toIS5_EEEENS0_9allocatorISA_EEE9SelectKeyESJ_SL_E3endEv
dPd:_String_Remove_m3580114465
AEb:__ZN9ShaderLab22SerializedBindChannels8TransferI19StreamedBinaryWriteILb0EEEEvRT_
$0e:_WebHeaderCollection_AddWithoutValidate_m1479880592
j0f:_UIntPtr__ctor_m2737768530
XUb:__Z50Register_UnityEngine_Object_FindSceneObjectsOfTypev
R0:__ZNSt3__26__treeINS_12__value_typeIN4core12basic_stringIcNS2_20StringStorageDefaultIcEEEES6_EENS_19__map_value_compareIS6_S7_NS_4lessIS6_EELb1EEE13stl_allocatorIS7_L18MemLabelIdentifier1ELi16EEE7destroyEPNS_11__tree_nodeIS7_PvEE
uOg:_Nullable_1__ctor_m796575255_gshared
h0h:__ZN6il2cpp2vm8Profiler7GCEventE13Il2CppGCEvent
lae:_DateTimeUtils_ToString_m3878360633
qPh:__ZN6il2cpp6icalls8mscorlib6SystemL16ThrowInvalidCastEPK11Il2CppClassS5_
pib:__ZN12AspectRatios8TransferI24GenerateTypeTreeTransferEEvRT_
qec:__Z12FormatBufferPciPKcz
I2b:__ZN37ConvexVsMeshContactGenerationCallback10processHitERKN5physx12PxRaycastHitERKNS0_6PxVec3ES6_S6_RfPKj
Ff:_emscripten_glUniform1fv
Znf:_MethodBuilder_Invoke_m1874904900
eoh:__ZN6il2cpp2vm5Class13GetArrayClassEP11Il2CppClassj
Zu:__ZN4FMOD7Channel7setModeEj
qZe:_TlsStream_SetLength_m1460039587
hb:invoke_difi
rji:_glDeleteSamplers__wrapper
DT:__ZL50StaticRegisterSceneLoadedCallback_LightmapSettingsPv
Fm:FUNCTION_TABLE_iiffi
xEc:__ZNK5physx7NpCloth24getSeparationConstraintsEPNS_35PxClothParticleSeparationConstraintE
l0g:__Z81RuntimeInvoker_Boolean_t3825574718_SByte_t454417549_Il2CppObject_SByte_t454417549PK10MethodInfoPvPS2_
Zja:__ZN21GLESGpuProgramApplier11ApplyVectorERKN20GpuProgramParameters14ValueParameterEPK8Vector4ft
lMa:__Z17PrepareSceneNodesP11CullResults
KN:__ZN19RuntimeSceneManager19UnloadSceneInternalEP10UnityScene
Gxg:_Parser_IsIgnoreCase_m4155598997
yfd:__ZN5physx6shdfnd5ArrayINS_17PxcSolverBodyDataENS0_16AlignedAllocatorILj128ENS0_19ReflectionAllocatorIS2_EEEEE6resizeEjRKS2_
X0b:__ZN5physx2Cm12RenderOutputlsEj
ESa:__ZN6Camera34UpdatePreviousViewProjectionMatrixEv
P$:__ZN9ShaderLab11ShaderState25RemoveUnsupportedProgramsEPK6Shader
lFb:__ZL23AddGpuProgramParametersR20GpuProgramParametersRKNSt3__26vectorIN9ShaderLab20SerializedSubProgram15MatrixParameterENS1_9allocatorIS5_EEEERKNS2_INS4_15VectorParameterENS6_ISB_EEEEiP16PropertyNamesSet
PUb:__Z44Register_UnityEngine_Object_DestroyImmediatev
NSb:__Z47Register_UnityEngine_Component_BroadcastMessagev
Hq:__ZN18StreamedBinaryReadILb0EE21TransferSTLStyleArrayI13dynamic_arrayI4PPtrI6ObjectELj4EEEEvRT_17TransferMetaFlags
cbg:__ZL62_ConstructorBuilder_t1236878896_CustomAttributesCacheGeneratorP21CustomAttributesCache
wQb:__Z26scripting_class_has_parent17ScriptingClassPtrS_
zpe:_Int64_System_IConvertible_ToInt16_m2022633688_AdjustorThunk
mBe:_OrdinalComparer__ctor_m2952942058
p8h:__ZN6il2cpp8metadata25Il2CppGenericClassCompare7CompareEPK18Il2CppGenericClassS4_
qMd:_Encoding_get_Unicode_m1382741113
qCg:_LifetimeServices_set_SponsorshipTimeout_m1403222216
DZg:__Z64RuntimeInvoker_Single_t2076509932_Il2CppObject_Int32_t2071877448PK10MethodInfoPvPS2_
SZd:_Char_ToString_m1401375624_AdjustorThunk
lOf:_Array_InternalArray__ICollection_Add_TisTableRange_t2011406615_m147373358_gshared
u6d:_Convert_ToDateTime_m1251728572
SDc:__ZN5physx7NpCloth13setTargetPoseERKNS_11PxTransformE
nOf:_Array_InternalArray__ICollection_Add_TisBoolean_t3825574718_m1009318882_gshared
adf:_ObjectReader_ReadObjectContent_m3949770110
beh:_Component_SendMessage_m4199581575
$ca:__ZZ19InitializeGfxDevice20GfxCreateDeviceFlagsEN38PreLateUpdateEndGraphicsJobsLatestruct7ForwardEv
Eph:__ZN6il2cpp2vm5Class40GetInterfaceInvokeDataFromVTableSlowPathEPK12Il2CppObjectPK11Il2CppClassj
w4a:__ZN20TierGraphicsSettings8TransferI18StreamedBinaryReadILb0EEEEvRT_
jMh:__GLOBAL__sub_I_Thread_cpp
a1:__ZN14SafeBinaryRead8TransferINSt3__24pairIN9ShaderLab16FastPropertyNameE10ColorRGBAfEEEEvRT_PKc17TransferMetaFlags
Umh:__ZL9rshift128PyS_
Wcf:_ObjectReader_RecordFixup_m1893348030
Ylf:_EnumBuilder_GetElementType_m1228393631
fJh:__ZN14dense_hash_mapI10KeyWrapperINSt3__24pairIPK12PropertyInfoP11Il2CppClassEEEj17ReflectionMapHashIS8_ENS9_14EqualsComparerINS1_8equal_toIS8_EEEENS1_9allocatorINS2_IKS9_jEEEEE13set_empty_keyERSH_
Xj:_glRenderbufferStorage
kUh:__ZNK15dense_hashtableINSt3__24pairIK10KeyWrapperINS1_IPKcS4_EEEiEES6_24NamespaceAndNamePairHashN14dense_hash_mapIS6_iS9_NS6_14EqualsComparerI26NamespaceAndNamePairEqualsEENS0_9allocatorIS8_EEE9SelectKeyESD_SF_E13find_positionERS7_
yAd:__ZN11UnityEngine15PlatformWrapper28GetTextureFormatSupportFlagsEv
JOd:_String_CompareOrdinalCaseInsensitiveUnchecked_m2002640463
nXd:_Boolean_GetHashCode_m1894638460
wVc:__ZNK5physx2Sc5Scene29getMaxNbContactDataBlocksUsedEv
NTf:_UTF7Encoding_InternalGetChars_m4157428055
y8:__Z33InterpolateLightProbeCoefficientsRK17LightProbeContextRK29LightProbeSamplingCoordinatesR20SphericalHarmonicsL2
XGe:_SmallXmlParser_HandleBufferedContent_m3397096753
Tg:_glDisable
Ab:invoke_vffff
wXh:__ZN6il2cpp5utils11StringUtils15StringDuplicateEPKDsj
Q5e:_BaseMachine_Scan_m122450399
C_d:_ArrayList_CopyTo_m2353632788
v6b:__ZN5physx10getInverseERNS_7PxMat33ERNS_6PxVec3ERKS0_RKS2_
zT:__ZNSt3__26vectorINS_4pairIyP17VertexDeclarationEENS_9allocatorIS4_EEE6assignIPS4_EENS_9enable_ifIXaasr21__is_forward_iteratorIT_EE5valuesr16is_constructibleIS4_NS_15iterator_traitsISB_E9referenceEEE5valueEvE4typeESB_SB_
RJg:_List_1_Add_m943275925_gshared
soi:b119
XHa:__ZNK8Material12GetPassCountEv
W3d:_Enumerator__cctor_m3784927209
boi:b110
coi:b111
doi:b112
ldi:_bitshift64Ashr
foi:b114
goi:b115
hoi:b116
D0:__ZNK8Material26GetTypeInfoVirtualInternalEv
O1c:__ZN5physx6shdfnd5ArrayIPhNS0_19ReflectionAllocatorIS2_EEE8recreateEj
zla:__ZN4crnd12crn_unpacker22decode_alpha_endpointsEv
lNa:__Z23CullDynamicObjectsUmbraPK4AABBPKN5Umbra15OcclusionBufferER9IndexList
XSf:_Array_InternalArray__get_Item_TisContactPoint_t1376425630_m3234597783_gshared
uL:__ZN17DirectorFrameTime14ResetDSPValuesEv
MQg:_GeneralNames_ToString_m800435094
nVe:_TlsServerCertificate_validateCertificates_m1988583701
h_f:_UInt16_Parse_m3560204090
L_b:__ZN8JSONRead21TransferSTLStyleArrayI13dynamic_arrayIsLj2EEEEvRT_18MemLabelIdentifier17TransferMetaFlags
Lu:__ZN4FMOD7Channel11setPositionEjj
Lh:_glBindSampler
CU:__Z22CreateMutexLockedQueuev
euc:__ZN5physx2Sc8BodyCore20clearSpatialVelocityEbb
Oh:_glGetVertexAttribiv
pOf:_Array_InternalArray__ICollection_Add_TisChar_t3454481338_m422084244_gshared
e_c:__ZN5physx6shdfnd5ArrayINS_9PxBounds3ENS0_15InlineAllocatorILj192ENS0_19ReflectionAllocatorIS2_EEEEE8recreateEj
SZb:__ZN8JSONRead8TransferIbEEvRT_PKc17TransferMetaFlagsb
Fhc:__ZN5physx6shdfnd5ArrayIPvNS0_19ReflectionAllocatorINS_2Sc24ElementInteractionMarkerEEEE4copyINS0_15InlineAllocatorILj256ES6_EEEEvRKNS1_IS2_T_EE
Qgh:_DefaultValueAttribute_Equals_m3216982933
_1e:_X509KeyUsageExtension_Decode_m3292847033
PT:__ZN26SharedLightmapSettingsDataD2Ev
Iqf:_Module_filter_by_type_name_ignore_case_m3574895736
n9a:__ZN26CustomRenderTextureManager19PreAllocateMaterialEP19CustomRenderTexture
Ccf:_ObjectReader_ReadObject_m397855326
S0h:_GC_promote_black_lists
D_b:__Z29Transfer_Blittable_ArrayFieldI8JSONRead8Vector4fEvRT_R9ArrayInfoRK23StaticTransferFieldInfo
$n:FUNCTION_TABLE_vd
SYf:_Type_GetMethod_m1930231379
bo:FUNCTION_TABLE_vi
Obf:_WellKnownServiceTypeEntry_ToString_m493996021
WPb:__ZN10systeminfo24GetRuntimePlatformStringEv
s5c:__ZN5physxL25solveContact4_StaticBlockEPKNS_23PxcSolverConstraintDescERNS_16PxcSolverContextE
lCe:_SimpleCollator_GetContraction_m1391584430
qXd:_CultureInfo_get_InvariantCulture_m398972276
SWd:_Boolean_System_IConvertible_ToInt64_m4142756949_AdjustorThunk
BOe:_HMAC_initializePad_m3828610671
nbc:__ZNK5physx3Cct17CapsuleController15getFootPositionEv
sTc:__ZN5physx7NpScene15removeAggregateERNS_11PxAggregateEb
YGd:_RSAParameters_t1462703416_marshal_pinvoke_cleanup
Xbh:_AsyncOperation_get_priority_m966065939
ua:invoke_iiifiii
CPh:__ZN6il2cpp2vm9Exception11FromNameMsgEPK11Il2CppImagePKcS6_S6_
EYf:_Type_internal_from_name_m1506974323
z5c:__ZN5physx25solveContact_BStaticBlockEPKNS_23PxcSolverConstraintDescEjRNS_16PxcSolverContextE
JL:__Z14GetTimeManagerv
K6g:__Z67RuntimeInvoker_Void_t1841601450_Scene_t1684909666_Int32_t2071877448PK10MethodInfoPvPS2_
I0a:__Z12GUIDToStringRK9UnityGUIDPc
k_a:__ZN15FileSystemEntry4LockE12FileLockModeP12FileAccessor
wKf:_Array_get_swapper_TisIl2CppObject_m1701356863_gshared
a4b:__ZL4facejjjRN5physx6PxVec3ERKS0_S3_S3_PfRf
oXc:__ZN5physx6shdfnd5ArrayIPNS_2Sc14ConstraintCoreENS0_19ReflectionAllocatorIS4_EEE6resizeEjRKS4_
tXh:__ZN4utf88internal20is_overlong_sequenceIiEEbjT_
Q$d:_SynchronizedArrayListWrapper_get_Count_m4104930530
pgd:__ZL18getFrictionPatchesRN5physx26PxcFrictionPatchStreamPairERNS_20PxcCorrelationBufferEPKhjRKNS_11PxTransformES8_f
hKd:_SecurityPermission_IsSubsetOf_m1087302418
CIa:__Z14SetupLightmapsRK8Vector4fS1_R17ShaderPassContext
A7e:_Interval_get_Empty_m3170923997
WIb:__Z20DestroyObjectDelayedP6Objectf
eF:__ZN20DynamicHeapAllocatorI17LowLevelAllocatorED0Ev
Srd:__ZN8Collider16RecreateColliderEPK9Rigidbody
tDe:_PreviousInfo__ctor_m1442166472_AdjustorThunk
RFa:__ZN9DepthPassD2Ev
Ft:__ZN11AudioFilter6GetDSPEv
Kph:__ZN13Il2CppHashMapIPKcP11Il2CppClassN6il2cpp5utils11StringUtils12StringHasherIS1_EENS6_21CaseSensitiveComparerENSt3__29allocatorINSA_4pairIK10KeyWrapperIS1_ES3_EEEEEC2EjRKS8_RKS9_
Tyc:__ZN5physx2Sc14ConstraintCore9setBodiesEPNS0_9RigidCoreES3_
JN:__ZN19RuntimeSceneManager14CanUnloadSceneEP10UnityScene
fGa:__Z22ExtractRenderNodeQueueRK11CullResults15ExtractionFlagsR15RenderNodeQueue
bwd:__ZN5physx6shdfnd8PoolBaseINS_24NpPtrTableStorageManager8PtrBlockILi64EEENS0_19ReflectionAllocatorIS4_EEE12allocateSlabEv
Ts:__ZN24AudioScriptBufferManagerC2Ev
ICd:__ZN13RuntimeStaticI19UnityConnectServiceLb0EE13StaticDestroyEPv
mXd:_Boolean_Equals_m294106711_AdjustorThunk
WWf:_TimeSpan_get_Hours_m3804628138_AdjustorThunk
qWb:__Z18Transfer_BlittableI9JSONWriteLb0EfEvRK29SerializationCommandArgumentsR31RuntimeSerializationCommandInfo
qZ:__Z21GetAsyncUploadManagerv
zj:_emscripten_glDetachShader
xne:_Int16_System_IConvertible_ToInt64_m733340257
o0f:_UIntPtr__cctor_m889490270
tBe:_SafeHandleZeroOrMinusOneIsInvalid_get_IsInvalid_m2033528032
$qc:__ZNK5physx2Sc15ArticulationSim16createDriveCacheEfj
Lka:__ZN17GenericDynamicVBO20ReleaseChunkInternalERK21DynamicVBOChunkHandlejj
I9a:__ZN14SafeBinaryRead21TransferSTLStyleArrayI13dynamic_arrayI7Hash128Lj8EEEEvRT_17TransferMetaFlags
sBe:_SafeHandleZeroOrMinusOneIsInvalid__ctor_m3340306667
R9h:_fmodl
V9e:_SerializationInfo_AddValue_m902275108
cai:_fmodf
ffc:__ZN5physx6shdfnd5ArrayIPNS_3Scb5ActorENS0_19ReflectionAllocatorIS4_EEE6resizeEjRKS4_
n_:__ZN12CachedWriter11Align4WriteEv
hHa:__Z20DoDeferredRenderLoopR17RenderLoopContextR13dynamic_arrayI16RenderObjectDataLj4EES4_RK11CullResultsRP13RenderTextureSA_Pb
Vba:__ZN19RuntimeSceneManager11CreateSceneEv
cJa:__Z27SetupBakedOcclusionForLightbRK15SharedLightDataR17ShaderPassContext
U6h:__ZN6il2cpp2os5Mutex6UnlockEv
Xzc:__ZN5physx7NpScene14removeMaterialERNS_10NpMaterialE
plc:__ZN5physx16PxsIslandManager24setEdgeArticulationJointERKNS_20PxsIslandManagerHookIjLj4294967295EEE
Ytc:__ZN5physx2Sc10NPhaseCore25addToDirtyInteractionListEPNS0_15CoreInteractionE
mHf:_Dictionary_2_CopyToCheck_m1638253305_gshared
qBa:__Z18RenderImageFiltersR10RenderLoopb
SE:__Z19free_alloc_internalPv18MemLabelIdentifier
d0a:__ZNK23ArchiveStorageConverter16GetDirectoryInfoEv
OQa:__ZN10GameObjectD2Ev
ENg:_ReadOnlyCollection_1_System_Collections_Generic_IListU3CTU3E_set_Item_m25653560_gshared
uhd:__ZN5physx2Cm12DelegateTaskINS_2Sc5SceneEXadL_ZNS3_19islandGenSecondPassEPNS_10PxBaseTaskEEEE11runInternalEv
Qqf:_MonoCMethod_Invoke_m931478014
Zfh:_UnityEventBase_RebuildPersistentCallsIfNeeded_m1583202007
pzc:__ZN5physx6shdfnd4sortIPvNS0_4LessIS2_EENS0_19ReflectionAllocatorINS_10NpMaterialEEEEEvPT_jRKT0_RKT1_j
BQe:_CertificateSelectionCallback_Invoke_m2902629105
dT:__ZN10InputEventD2Ev
Xke:_DateTimeFormatInfo_GetAllDateTimePatternsInternal_m1587126173
lmh:_Vector2_ToString_m775491729_AdjustorThunk
kYf:_Type_get_IsInterface_m3583817465
THh:__ZNK15dense_hashtableINSt3__24pairIK10KeyWrapperIPK14Il2CppAssemblyEPK16MonoAssemblyNameEES6_N6il2cpp5utils11PointerHashIS4_EEN14dense_hash_mapIS6_SA_SF_NS6_14EqualsComparerINS0_8equal_toIS5_EEEENS0_9allocatorISB_EEE9SelectKeyESK_SM_E3endEv
wGd:_RSA_ToXmlString_m4145056574
aX:__Z20SetPlayerPauseDirect11PlayerPause
tfe:_Double_System_IConvertible_ToUInt64_m1318285078_AdjustorThunk
tcc:__ZN5physx3Cct15ObstacleContext13onOriginShiftERKNS_6PxVec3E
A9h:_isalpha
hSc:__ZN5physx6shdfnd8PoolBaseINS_2Gu31SpherePersistentContactManifoldENS0_19ReflectionAllocatorIS3_EEE12allocateSlabEv
Nlc:__ZN5physx6shdfnd5ArrayIPNS_2Sc7BodySimENS0_19ReflectionAllocatorIS4_EEE8recreateEj
nae:_DateTimeUtils_ZeroPad_m86470512
Hyh:__ZN6il2cpp2vmL17IsSocketAsyncCallEP14Il2CppDelegate
Gch:_Camera_get_clearFlags_m1743144302
jhh:_Logger_IsLogTypeAllowed_m1750132386
s$h:__ZN6il2cpp2vm6String6NewLenEPKcj
v2a:__ZN6Camera23VirtualRedirectTransferER19StreamedBinaryWriteILb0EE
Pk:_time
Agc:__ZNK5physx2Sc8ShapeSim15getPxsRigidCoreEv
Ehc:__ZN5physx2Sc20ContactStreamManager28fillInContactReportExtraDataEPNS_17PxContactPairPoseEjRKNS0_8RigidSimEb
TEc:__ZN5physx7NpCloth23removeCollisionTriangleEj
gO:__ZN15dense_hashtableINSt3__24pairIKiP6ObjectEEi21InstanceIDHashFunctorN14dense_hash_mapIiS4_S6_NS0_8equal_toIiEE13stl_allocatorIS5_L18MemLabelIdentifier65ELi16EEE9SelectKeyES9_SC_E12resize_deltaEjj
x3c:__ZNK5physx2Gu29EPASupportMapPairRelativeImplINS0_9TriangleVENS0_11ConvexHullVEE9doSupportERKNS_6shdfnd3aos5Vec3VERS7_SA_SA_
xDh:__ZN15dense_hashtableINSt3__24pairIK10KeyWrapperINS1_IPK9FieldInfoP11Il2CppClassEEEjEES9_17ReflectionMapHashIS8_EN14dense_hash_mapIS9_jSD_NS9_14EqualsComparerINS0_8equal_toIS8_EEEENS0_9allocatorISB_EEE9SelectKeyESI_SK_E4findERSA_
Mmi:_glDeleteSync__wrapper
T6d:_Decimal_op_Implicit_m623319612
u8:__ZNK9Transform21GetLocalToWorldMatrixEv
UVf:_ThreadAbortException__ctor_m1623816114
KJb:__ZN13ProduceHelperI30RuntimeInitializeOnLoadManagerLb0EE7ProduceE18MemLabelIdentifier18ObjectCreationMode
ZOa:__ZN13RenderTexture19SetAutoGenerateMipsEb
f3:__Z20GetTextureFormatInfo13TextureFormat
_Lb:__Z40InitializeLightAnimationBindingInterfacev
xoh:__ZN6il2cpp2vm5Class4InitEP11Il2CppClass
FLg:_Collection_1_InsertItem_m1391780791_gshared
h5h:__ZN6il2cpp5utils10MemoryPool6MallocEj
ks:__ZN11SoundHandle8InstanceD2Ev
hV:__ZN31CanvasBatchIntermediateRenderer13StaticDestroyEPv
PTg:_X509Store_BuildCrlsCollection_m52567568
jVc:__ZN5physx13NpVolumeCache13onOriginShiftERKNS_6PxVec3E
OVc:__ZNK5physx2Sc5Scene20getBroadPhaseRegionsEPNS_22PxBroadPhaseRegionInfoEjj
cge:_Enum_ToString_m662345249
Rji:_emscripten_glBindProgramARB__wrapper
QSb:__Z41Register_UnityEngine_CullingGroup_Disposev
_vc:__ZN5physx14NpShapeManagerD2Ev
g8a:__ZN7Cubemap23VirtualRedirectTransferER19StreamedBinaryWriteILb0EE
zua:__ZN25MultiBlocksMemoryFileData5WriteEyyPKv
FXg:__Z78RuntimeInvoker_Il2CppObject_Int64_t909078037_Int64_t909078037_Int64_t909078037PK10MethodInfoPvPS2_
BIh:__ZN14dense_hash_mapI10KeyWrapperIPK10Il2CppTypeEjN6il2cpp8metadata14Il2CppTypeHashENS4_14EqualsComparerINS6_26Il2CppTypeEqualityComparerEEENSt3__29allocatorINSB_4pairIKS4_jEEEEE13set_empty_keyERSE_
CSb:__Z35Component_CUSTOM_SendMessageUpwardsP12Il2CppObjectP12Il2CppStringS0_i
Jma:__ZL17ProgramUniform2fvPK7ApiGLESjiihPKv
nvc:__ZN5physx2Sc5Scene16removeConstraintERNS0_14ConstraintCoreE
Qai:_htonl
Xha:__Z20GetBufferManagerGLESv
Jzb:__ZN18StreamedBinaryReadILb0EE21TransferSTLStyleArrayI31ArrayOfManagedObjectsTransfererEEvRT_17TransferMetaFlags
fZc:__ZN5physx2Sc18ParticleSystemCore18addDeltaVelocitiesERKNS_2Cm10BitMapBaseINS_6shdfnd9AllocatorEEEPKNS_6PxVec3Ef
XYb:__Z18Transfer_BlittableI8JSONReadLb0EtEvRK29SerializationCommandArgumentsR31RuntimeSerializationCommandInfo
_dd:__ZN5physx6shdfnd8PoolBaseINS_2Sc16ActorElementPairENS0_19ReflectionAllocatorIS3_EEE12allocateSlabEv
zAc:__ZNK5physx9NpPhysics17getNbClothFabricsEv
mXh:__ZNSt3__212basic_stringIDsNS_11char_traitsIDsEENS_9allocatorIDsEEE9__grow_byEjjjjjj
ou:__ZN12AudioManager21FixMasterGroupRoutingEv
MId:_SymmetricAlgorithm_set_Key_m2973350820
b1e:_WebHeaderCollection_IsHeaderValue_m1723393133
_1d:_Hashtable__ctor_m4280223555
CYh:__ZN6il2cpp2os10ThreadImpl33UnregisterCurrentThreadForCleanupEv
Ood:__ZL10UpdateLinkjjjjPN5physx11AdjTriangleERKNS_17ADJACENCIESCREATEE
gkc:__ZN5physx2Sc16InteractionScene19registerInteractionEPNS0_11InteractionEb
Sob:__Z18Transfer_BlittableI14SafeBinaryReadLb1E4AABBEvRK29SerializationCommandArgumentsR31RuntimeSerializationCommandInfo
X4c:__ZN5physx19solveContactCoulombERKNS_23PxcSolverConstraintDescERNS_16PxcSolverContextE
BVg:__Z67RuntimeInvoker_Void_t1841601450_Int16_t4041245914_Int32_t2071877448PK10MethodInfoPvPS2_
w8h:__ZN6il2cpp8metadata26Il2CppGenericMethodCompare6EqualsEPK19Il2CppGenericMethodS4_
shc:__ZNK5physx2Sc9ActorPair23createContactReportDataEv
Zs:__ZN9AudioClip7WWWOpenEPKciPjPPvS4_
etc:__ZN5physx18NpArticulationLink18setAngularVelocityERKNS_6PxVec3Eb
n4g:__Z79RuntimeInvoker_Void_t1841601450_Il2CppObject_Int32_t2071877448_Int64_t909078037PK10MethodInfoPvPS2_
Lob:__Z18Transfer_BlittableI14SafeBinaryReadLb0E8Vector2fEvRK29SerializationCommandArgumentsR31RuntimeSerializationCommandInfo
Gc:_emscripten_glVertexAttrib2f
xCb:__ZN15SerializeTraitsIN9ShaderLab20SerializedSubProgram16TextureParameterEE8TransferI14SafeBinaryReadEEvRS2_RT_
SXd:_Byte_System_IConvertible_ToInt16_m1575115635_AdjustorThunk
M$c:__ZN5physx6shdfnd8PoolBaseINS_2Sc19ShapeInstancePairLLENS0_19ReflectionAllocatorIS3_EEE15disposeElementsEv
q7b:__ZN5physx2Gu14sweepTriSphereERKNS_10PxTriangleERKNS_6PxVec3ES6_fS6_Rf
KCe:_SimpleCollator_CompareQuick_m619038530
NYe:_SslStreamBase_EndRead_m1072850679
$c:_SDL_GetTicks
FKe:_X509CertificateEnumerator_System_Collections_IEnumerator_get_Current_m1643583406
qFh:__ZN15dense_hashtableINSt3__24pairIK10KeyWrapperINS1_IPK11Il2CppImageP11Il2CppClassEEEjEES9_17ReflectionMapHashIS8_EN14dense_hash_mapIS9_jSD_NS9_14EqualsComparerINS0_8equal_toIS8_EEEENS0_9allocatorISB_EEE9SelectKeyESI_SK_E6insertERKSB_
SMa:__Z21CreateShadowCullerJobP30CreateUmbraShadowCullerJobData
YEc:__ZNK5physx7NpCloth21getNbVirtualParticlesEv
Kgd:__ZN5physx17PxcNpMemBlockPool23releaseConstraintBlocksERNS_6shdfnd5ArrayIPNS_13PxcNpMemBlockENS1_19ReflectionAllocatorIS4_EEEE
Bma:__ZL18ProgramUniform2uivPK7ApiGLESjiihPKv
rli:_glUniform4iv__wrapper
SJa:__Z33GenerateShadowCasterPartsSortDataRK16ShadowCasterDatajRK15RenderNodeQueueRKNSt3__26vectorI20ShadowCasterPartData13stl_allocatorIS7_L18MemLabelIdentifier2ELi16EEEERK10Matrix4x4fRjP20ShadowCasterSortData
VIf:_Dictionary_2_ToTKey_m4209561517_gshared
$tc:__ZN5physx2Sq17SceneQueryManager13markForUpdateEPNS0_10ActorShapeE
UI:__GLOBAL__sub_I_runtime_gfxdevice_lump_cpp
Ybh:_AsyncOperation_set_priority_m3581020444
m1h:_GC_expand_hp_inner
zsh:__ZNK15dense_hashtableINSt3__24pairIK10KeyWrapperI13dynamic_arrayIPK10Il2CppTypeLj4EEEPFvvEEES8_N6il2cpp8metadata19Il2CppSignatureHashEN14dense_hash_mapIS8_SB_SF_NS8_14EqualsComparerINSE_22Il2CppSignatureCompareEEENS0_9allocatorISC_EEE9SelectKeyESJ_SL_E12test_deletedEj
wTh:__ZNK15dense_hashtableI10KeyWrapperIP18Il2CppGenericClassES3_N6il2cpp8metadata22Il2CppGenericClassHashEN14dense_hash_setIS3_S6_NS3_14EqualsComparerINS5_25Il2CppGenericClassCompareEEENSt3__29allocatorIS3_EEE8IdentityESA_SD_E12test_deletedEj
iXh:__ZN4utf812find_invalidIPKcEET_S3_S3_
v5e:_X509ExtensionCollection_System_Collections_ICollection_CopyTo_m3421329346
G0h:_GC_err_printf
Imf:_FieldBuilder_SetValue_m3109503557
n3e:_X509Certificate2_Verify_m1574874641
O3d:_SortedList_GetEnumerator_m1318483481
nUd:_Array_CreateInstance_m3327690220
EZg:__Z64RuntimeInvoker_Double_t4078015681_Il2CppObject_Int32_t2071877448PK10MethodInfoPvPS2_
bQ:__ZN14SerializedFile7ReleaseEv
zVa:__ZN16MemoryFileSystem4OpenER13FileEntryData14FilePermission16FileAutoBehavior
VU:__ZN13RuntimeStaticI13RendererSceneLb0EE13StaticDestroyEPv
Gtb:__Z18Transfer_BlittableI24GenerateTypeTreeTransferLb1E12PropertyNameEvRK29SerializationCommandArgumentsR31RuntimeSerializationCommandInfo
XLb:__ZN5Light15InitializeClassEv
Bhb:__ZN14SafeBinaryRead21TransferSTLStyleArrayI10vector_mapIPKN5Unity4TypeE7Hash128NSt3__24lessIS5_EENS7_9allocatorINS7_4pairIS5_S6_EEEEEEEvRT_17TransferMetaFlags
Ys:__ZN9AudioClip18GetQueuedAudioDataEPPvj
ZXh:__ZN6il2cpp2os5posix15PosixWaitObject13InterruptWaitEv
WEc:__ZNK5physx7NpCloth16getCollisionDataEPNS_22PxClothCollisionSphereEPjPNS_21PxClothCollisionPlaneES3_PNS_24PxClothCollisionTriangleE
CFa:__Z18SetShadowsKeywordsR17ShaderPassContext9LightType10ShadowType16ShadowProjectionbb
eJh:__ZN14dense_hash_mapI10KeyWrapperINSt3__24pairIPK12PropertyInfoP11Il2CppClassEEEj17ReflectionMapHashIS8_ENS9_14EqualsComparerINS1_8equal_toIS8_EEEENS1_9allocatorINS2_IKS9_jEEEEEC2EjRKSB_RKSF_
MLb:__ZN17CollisionMeshDataC2Ev
Tif:_Assembly_GetModule_m2064378601
p0c:__ZN5physx2Sq11PruningPool11preallocateEj
u9a:__ZN16LightmapSettings23VirtualRedirectTransferER19StreamedBinaryWriteILb0EE
gih:_MessageTypeSubscribers__ctor_m743474932
gli:_glTexParameteriv__wrapper
Maa:__ZN18IDCollectorFunctor18GenerateInstanceIDEi17TransferMetaFlags
DQf:_Array_InternalArray__set_Item_TisTableRange_t2011406615_m2386708730_gshared
wke:_NumberFormatter_ToDecHex_m1474793296
Auc:__ZN5physx2Sc17ParticleSystemSim15onRbShapeChangeERKNS0_19ParticlePacketShapeERKNS0_8ShapeSimE
OWa:__ZN14StackAllocatorD0Ev
IMh:__ZN6il2cpp2vm6Thread8SetStateEP12Il2CppThreadNS0_11ThreadStateE
jBe:_OperatingSystem_Clone_m1943707477
jWf:_Scheduler_Change_m4063588742
Ahd:__ZN5physx27updateIslandsSecondPassMainEjRNS_2Cm10BitMapBaseINS_6shdfnd9AllocatorEEEPKjjRNS_11NodeManagerERNS_11EdgeManagerERNS_13IslandManagerERNS_23ArticulationRootManagerERNS_33ProcessSleepingIslandsComputeDataERNS_30IslandManagerUpdateWorkBuffersEPNS0_13EventProfilerE
CC:__ZN11UnityEngine15CloudWebService13WWWRestClientD0Ev
Mlh:_HitInfo_SendMessage_m3368777144_AdjustorThunk
Fib:__ZN15ResourceManagerD2Ev
tSb:__Z41Register_UnityEngine_Camera_GetAllCamerasv
cFd:_RC2Transform__ctor_m492910827
tla:__ZN4crnd12crn_unpacker10unpack_dxnEPPhjjjjjj
iCd:__ZN28PerformanceReportingSettings8TransferI14SafeBinaryReadEEvRT_
m7d:_Double_Parse_m2344589511
m8g:__Z122RuntimeInvoker_Int32_t2071877448_Il2CppObject_CustomAttributeTypedArgument_t1498197914_Int32_t2071877448_Int32_t2071877448PK10MethodInfoPvPS2_
Mzc:__ZN5physx10NpMaterial17resolveReferencesERNS_24PxDeserializationContextE
cPh:__ZN6il2cpp2vm22EmbeddedResourceRecordC2ERKS1_
b8a:__ZN9Texture2D13AwakeFromLoadE17AwakeFromLoadMode
bCe:_MSCompatUnicodeTableUtil__cctor_m1479836795
Exg:_PositionAssertion__ctor_m3703837499
Xve:_StreamWriter_Initialize_m1707678624
uVh:__ZN6il2cpp2vm3RCW14QueryInterfaceILb0EEEP14Il2CppIUnknownP15Il2CppComObjectRK10Il2CppGuid
k4:__ZN6prcoreL17RemapGenericFloatI15TexFormatRFloat18TexFormatARGBFloatEEvPKNS_9InnerInfoE
rbg:__ZL50_Thread_t1894135853_CustomAttributesCacheGeneratorP21CustomAttributesCache
Qyc:__ZN5physx7NpActor15removeConnectorERNS_7PxActorENS_15NpConnectorType4EnumEPNS_6PxBaseEPKc
Yzf:_InternalEnumerator_1_get_Current_m1047712960_gshared
H8c:__ZN5physx19ActorAABBUpdateTask11runInternalEv
QI:__GLOBAL__sub_I_runtime_camera_renderlayers_lump_cpp
VBd:__ZN11UnityEngine15PlatformWrapper20GetPlayerPrefsUInt64ERKN4core12basic_stringIcNS1_20StringStorageDefaultIcEEEEy
rJa:__ZN20ReflectionProbeCacheC2ER13BatchRendererR15RenderLoopStats
JV:__ZN18AssetBundleManagerC2Ev
Ova:__ZNK12HandlerChain6ExistsERK13FileEntryData
Mhd:__ZN5physx10PxsContext28runModifiableContactManagersEv
K7d:_Convert_ToInt32_m2734833291
hKa:__Z30FindDirectAttenuationFromProbeP18ForwardLightsBlockbiRK10RenderNodeRK23FindForwardLightsParamsf
NGb:__ZN9Transform23VirtualRedirectTransferER24GenerateTypeTreeTransfer
ded:__ZN5physx21PxsBodyTransformVault7addBodyERKNS_11PxsBodyCoreE
zFb:__ZNSt3__26vectorIN9ShaderLab20SerializedSubProgram12UAVParameterENS_9allocatorIS3_EEE21__push_back_slow_pathIKS3_EEvRT_
TFc:__ZN5physx6shdfnd5ArrayINS_35PxClothParticleSeparationConstraintENS0_19ReflectionAllocatorIS2_EEE6resizeEjRKS2_
f5e:_X509ChainElement_Count_m228862214
UXf:_TimeZone_IsDaylightSavingTime_m1840774423
nzd:__GLOBAL__sub_I_runtime_ui_lump_cpp
Iua:__ZN10MemoryFile4ReadEyyPvPy
lea:__ZN13GfxDeviceGLES26UpdateViewProjectionMatrixEv
mMb:__ZZL23RegisterLightPropertiesR22GenericPropertyBindingEN22Wrapper_LightIntensity13SetFloatValueEPvf
Ar:__ZN4FMOD3DSP12setParameterEif
pW:__ZN13MemoryManager16StaticInitializeEv
rgf:_CryptographicException__ctor_m1012314467
uv:__ZN4FMOD22FakeModChannelCallbackEPv
lf:_emscripten_glValidateProgram
JBa:__ZN4Mesh10CreateMeshEv
yGh:__ZN6il2cpp2gc19AppendOnlyGCHashMapINSt3__24pairIPK9EventInfoP11Il2CppClassEEP21Il2CppReflectionEvent17ReflectionMapHashIS9_ENS2_8equal_toIS9_EEE3AddERKS9_SB_
r5c:__ZN5physx36solveContactPreBlock_WriteBackStaticEPKNS_23PxcSolverConstraintDescEjRNS_16PxcSolverContextEPNS_25PxcThresholdStreamElementEjPi
$Ze:_ListDictionary_FindEntry_m1690278153
USg:_X509Chain__ctor_m1113875360
lei:dynCall_viiiiiiiiiiiiiiiiiiiiiiiiiiiiiiiiii
Vee:_Double_System_IConvertible_ToBoolean_m4251806534_AdjustorThunk
aGf:_ShimEnumerator_Reset_m2247049027_gshared
_Oa:__ZN7Texture13SetAnisoLevelEi
y3e:_X509Chain_Process_m2508784250
n1b:__ZL28GeomMTDCallback_SphereSphereRN5physx6PxVec3ERfRKNS_10PxGeometryERKNS_11PxTransformES5_S8_
GU:__ZN33InstancedMeshIntermediateRenderer13StaticDestroyEPv
Wne:_Int16_Parse_m3012618547
RTc:__ZN5physx7NpScene26setSimulationEventCallbackEPNS_25PxSimulationEventCallbackEh
ZRh:__ZN14dense_hash_mapI10KeyWrapperIP14Il2CppIUnknownEjN6il2cpp5utils11PointerHashIS1_EENS3_14EqualsComparerINSt3__28equal_toIS2_EEEENS9_9allocatorINS9_4pairIKS3_jEEEEE13set_empty_keyERSF_
G4d:_Convert__cctor_m926133987
$2a:__Z21DestroyShadowMapCacheP14ShadowMapCache
w1h:_GC_hblk_fl_from_blocks
bHg:_Enumerator_VerifyState_m739025304_gshared
EIh:__ZN15dense_hashtableINSt3__24pairIK10KeyWrapperIPK10Il2CppTypeEjEES6_N6il2cpp8metadata14Il2CppTypeHashEN14dense_hash_mapIS6_jSB_NS6_14EqualsComparerINSA_26Il2CppTypeEqualityComparerEEENS0_9allocatorIS8_EEE9SelectKeyESF_SH_E14squash_deletedEv
vRh:__ZN6il2cpp2vm13LivenessState5ResetEv
pgc:__ZN5physx6shdfnd4sortIPvNS0_4LessIS2_EENS0_19ReflectionAllocatorINS_2Sc16ActorElementPairEEEEEvPT_jRKT0_RKT1_j
rVb:__ZN9JSONWrite8TransferI11KeyframeTplIfEEEvRT_PKc17TransferMetaFlags
r3g:__Z71RuntimeInvoker_Double_t4078015681_Double_t4078015681_Double_t4078015681PK10MethodInfoPvPS2_
ydh:_GameObject_GetComponent_m306258075
Tod:__ZN5physx2Gu15EdgeListBuilder18ComputeActiveEdgesEjPKjPKtPKNS_6PxVec3Ef
zPh:__ZN6il2cpp2vm9Exception27RaiseNullReferenceExceptionEv
$sa:__ZN24BuiltinShaderParamValuesC2Ev
iWb:__ZL41CreateJSONTransferFunctionScriptingTraitsv
_se:_FileStream_get_CanWrite_m775322953
jya:__Z23GetLateBehaviourManagerv
Edc:__ZN5physx6shdfnd5ArrayIPNS_7PxShapeENS0_15InlineAllocatorILj64ENS0_19ReflectionAllocatorIS3_EEEEE6resizeEjRKS3_
ER:__ZN10MemoryPool10DeallocateEPv
Qie:_CultureInfo_set_NumberFormat_m1618950525
ole:_NumberFormatInfo__ctor_m2752806684
ZYe:_SslStreamBase_get_CanRead_m3061866682
N2b:__ZN5physx6shdfnd19optimizeBoundingBoxERNS_7PxMat33E
jug:_PatternCompiler_EmitFastRepeat_m1175707353
sSf:_Array_InternalArray__get_Item_TisKeyValuePair_2_t3716250094_m3120861630_gshared
D3c:__ZN5physx2Gu22gjkRelativePenetrationINS0_9TriangleVENS0_10ShrunkBoxVEEEjRKT_RKT0_RKNS_6shdfnd3aos15PsMatTransformVERKNSB_6FloatVERNSB_5Vec3VESJ_SJ_RSF_PhSL_Rh
Nqd:__ZN5physx6shdfnd10Foundation19AlignCheckAllocator10deallocateEPv
j$b:__ZNK9rapidjson12GenericValueINS_4UTF8IcEE13JSONAllocatorE6AcceptINS_6WriterI16TempBufferWriterS2_S2_S3_EEEEbRT_
Mei:dynCall_vif
Nei:dynCall_vid
Oei:dynCall_vii
zzb:__Z18Transfer_BlittableI18StreamedBinaryReadILb0EELb0EdEvRK29SerializationCommandArgumentsR31RuntimeSerializationCommandInfo
Atg:_Enumerator_System_Collections_IEnumerator_MoveNext_m3313126804
GFa:__ZNK17InstancedPropInfo14IsInstanceableERK19ShaderPropertySheet
VXa:__ZN5Unity9Component16CheckConsistencyEv
rna:__ZN7ApiGLES11CheckShaderERjb
xvb:__ZL26Transfer_SimpleNativeClassI19StreamedBinaryWriteILb0EE10RectOffsetLb1EEvRK29SerializationCommandArgumentsR31RuntimeSerializationCommandInfo
rSf:_Array_InternalArray__get_Item_TisKeyValuePair_2_t1174980068_m964958642_gshared
D9c:__ZN5physx20PxcContactCapsuleBoxERKNS_2Gu13GeometryUnionES3_RKNS_11PxTransformES6_RKfRNS_10PxcNpCacheERNS0_13ContactBufferE
cEh:__ZN15dense_hashtableINSt3__24pairIK10KeyWrapperIPK10Il2CppTypeEjEES6_N6il2cpp8metadata14Il2CppTypeHashEN14dense_hash_mapIS6_jSB_NS6_14EqualsComparerINSA_26Il2CppTypeEqualityComparerEEENS0_9allocatorIS8_EEE9SelectKeyESF_SH_E3endEv
jKa:__Z28GetNonInterpolatedLightProbeRK17LightProbeContextjR20SphericalHarmonicsL2
xOf:_Array_InternalArray__ICollection_Add_TisDateTime_t693205669_m3559987213_gshared
Mga:__ZN13GfxDeviceGLES17SetGpuProgramNameEP10GpuProgramPKc
cvh:__ZN6il2cpp2vm13MetadataCache28GetMethodDefinitionFromIndexEi
g$h:__ZN6il2cpp2os20FileErrnoToErrorCodeEi
V0:__ZN14SafeBinaryRead19TransferSTLStyleMapINSt3__23mapI39DeprecatedFastPropertyNameSerialization10ColorRGBAfNS1_4lessIS3_EENS1_9allocatorINS1_4pairIKS3_S4_EEEEEEEEvRT_17TransferMetaFlags
Ukb:__ZN14CachingManager13WriteInfoFileERKN4core12basic_stringIcNS0_20StringStorageDefaultIcEEEERKNSt3__26vectorIS4_NS7_9allocatorIS4_EEEE
poa:__ZN7ApiGLES18CreateRenderbufferEiN2gl9TexFormatEii
Wg:_atexit
G0d:_BitArrayEnumerator_Reset_m3218489242
dYd:_Byte_System_IConvertible_ToUInt16_m2275325191
gTc:__ZNK5physx7NpScene8getFlagsEv
fHh:__ZN6il2cpp2vmL31GetObjectForMissingDefaultValueEj
Fbc:__ZN5physx3Cct17CapsuleController6resizeEf
iAa:_UNITY_png_write_info_before_PLTE
_kc:__ZN5physx6shdfnd8PoolBaseINS_2Cm5BlockIhLj384EEENS0_19ReflectionAllocatorIS4_EEE12allocateSlabEv
B2c:__Z13sweepAABBAABBRKN5physx6PxVec3ES2_S2_S2_S2_S2_
eDb:__ZN9ShaderLab14SerializedPassC2ERKS0_
Nxf:_InternalEnumerator_1_System_Collections_IEnumerator_get_Current_m3088751576_AdjustorThunk
ctc:__ZN5physx18NpArticulationLink17setLinearVelocityERKNS_6PxVec3Eb
GAc:__ZN5physx9NpPhysics20createParticleSystemEjb
l:STACKTOP
wva:__ZNK12HandlerChain8IsHiddenERK13FileEntryData
rpd:__ZN5physx17ConvexHullBuilder14CreateEdgeListEv
BOb:__ZN17TransformInternal27UpdateDeepChildCountUpwardsER18TransformHierarchyii
wci:__ZNK10__cxxabiv117__class_type_info16search_above_dstEPNS_19__dynamic_cast_infoEPKvS4_ib
n3c:__ZN5physxL24PxcSweepCapsuleTrianglesERKNS_11PxsCCDShapeES2_RKNS_11PxTransformES5_S5_S5_fRNS_6PxVec3ES7_RNS_10PxcNpCacheERNS_18PxcNpThreadContextERKNS_2Cm23FastVertex2ShapeScalingERNS_2Gu9TriangleVEf
A:tempBigIntD
ANd:_Single_Equals_m3359827399_AdjustorThunk
lOa:__ZNK25CameraStackRenderingState25CalculateCameraTargetTypeEv
z:tempBigIntI
XOg:_CachedInvokableCall_1__ctor_m127496184_gshared
INe:_PrimalityTests_RabinMillerTest_m2029846965
y:tempBigIntR
x:tempBigIntS
fn:FUNCTION_TABLE_viffi
rbf:_ServerIdentity_CreateObjRef_m1056204803
qR:__ZN6Object18RegisterInstanceIDEPS_
qtb:__Z18Transfer_BlittableI24GenerateTypeTreeTransferLb1EsEvRK29SerializationCommandArgumentsR31RuntimeSerializationCommandInfo
$Wh:__ZN15dense_hashtableINSt3__24pairIK10KeyWrapperIP12Il2CppObjectEN6il2cpp2gc9CachedCCWEEES5_NS7_5utils11PointerHashIS3_EEN14dense_hash_mapIS5_S9_SD_NS5_14EqualsComparerINS0_8equal_toIS4_EEEENS0_9allocatorISA_EEE9SelectKeyESI_SK_E11set_deletedER30dense_hashtable_const_iteratorISA_S5_SD_SM_SI_SK_E
mea:__ZNK9GfxDevice18GetWorldViewMatrixEv
Zqd:__ZNK11BoxCollider26GetTypeInfoVirtualInternalEv
GSe:_TlsServerKeyExchange__ctor_m247733406
k0h:__ZN6il2cpp6icalls8mscorlib6System7Convert17Base64ToByteArrayEPDsib
Gbd:__ZN5physx2Gu18pcmContactPlaneBoxERKNS0_13GeometryUnionES3_RKNS_11PxTransformES6_RKfRNS0_5CacheERNS0_13ContactBufferE
ish:__ZNSt3__218__insertion_sort_3IRN6il2cpp5utils11collections13ArrayValueMapIPK10Il2CppType17Il2CppInteropData26InteropDataToTypeConverterNS1_8metadata14Il2CppTypeLessENSA_26Il2CppTypeEqualityComparerEE12SortComparerEPS8_EEvT0_SH_T_
auc:__ZN5physx6shdfnd5ArrayIPNS_2Sq10ActorShapeENS0_19ReflectionAllocatorIS4_EEE15growAndPushBackERKS4_
qea:__ZNK9GfxDevice25GetDeviceProjectionMatrixEv
F$e:_HttpWebRequest__ctor_m1248252412
na:invoke_iidiii
utb:__Z18Transfer_BlittableI24GenerateTypeTreeTransferLb1EtEvRK29SerializationCommandArgumentsR31RuntimeSerializationCommandInfo
pif:_RankException__ctor_m2119191472
q$b:__ZN9rapidjson12PrettyWriterI16TempBufferWriterNS_4UTF8IcEES3_13JSONAllocatorE11WriteIndentEv
r6b:__ZL13midPhaseQueryRKN5physx22PxTriangleMeshGeometryERKNS_11PxTransformERNS_2Gu3BoxERNS6_9ContainerE
oYb:__ZN9JSONWrite8TransferI13dynamic_arrayI4AABBLj4EEEEvRT_PKc17TransferMetaFlags
Qz:__ZN5physx14PxLightCpuTask15removeReferenceEv
V0e:_SPKey_Equals_m1112627532
ES:__ZN13RuntimeStaticI13ModuleManagerLb0EE13StaticDestroyEPv
mve:_Stream_Close_m1499612649
dEg:_ArgInfo__ctor_m3787931268
eTg:_X509Chain_Build_m175470596
Mfd:__ZN5physx6shdfnd5ArrayINS_24PxsConstraintBatchHeaderENS0_19ReflectionAllocatorIS2_EEE8recreateEj
kyd:__ZN14PhysicsManagerC2E18MemLabelIdentifier18ObjectCreationMode
dY:__ZN9ShaderLab6TexEnvC2ERKNS_25SerializedTexturePropertyE
Rih:_Object_Instantiate_m2489341053
o$:__ZN19ShaderPropertySheet38CopyTextureWithAuxiliaryPropertiesFromERKN9ShaderLab16FastPropertyNameERKS_
cTe:_TlsServerCertificate__ctor_m3697944709
ryh:__ZN6il2cpp2vm19SocketPollingThread14DequeueRequestEv
QYh:__ZL10RevealLinkPv
gRf:_Array_InternalArray__set_Item_TisSingle_t2076509932_m4273663642_gshared
xhc:__ZN5physx6shdfnd8PoolBaseINS_2Sc26ActorPairContactReportDataENS0_19ReflectionAllocatorIS3_EEE12allocateSlabEv
yi:___cxa_end_catch
iof:_MethodBuilder_MakeGenericMethod_m303913412
jjf:_AssemblyName_InternalGetPublicKeyToken_m3706025887
S$e:_HttpWebRequest_GetObjectData_m1200570677
ITc:__ZN5physx7NpScene12createClientEv
OWe:_ReceiveRecordAsyncResult_get_AsyncWaitHandle_m1602093076
Kzb:__Z19TransferField_ArrayI18StreamedBinaryReadILb0EE27Converter_UnityEngineObjectEvRK23StaticTransferFieldInfoR31RuntimeSerializationCommandInfoRT0_
f5a:__ZN5Light8TransferI24GenerateTypeTreeTransferEEvRT_
T3b:__ZN26ContactCapsuleMeshCallback10processHitERKN5physx12PxRaycastHitERKNS0_6PxVec3ES6_S6_RfPKj
aN:__Z33InitializeBuiltinShaderParamNamesv
iLe:_ActivationContext_System_Runtime_Serialization_ISerializable_GetObjectData_m775951299
zyd:__ZN13PhysicsModule24CapsuleColliderSetHeightER15CapsuleColliderf
o8c:__ZN5physx14PxsAABBManager25removeAggregateSinglePairEjPNS_9AggregateEPNS_2Cm10BitMapBaseINS_6shdfnd9AllocatorEEE
IZ:__ZNK16TypeTreeIterator4TypeEv
bEg:_LeaseManager__ctor_m2166901364
kta:__ZN10FileSystem25MountDataFolderFileSystemERKN4core12basic_stringIcNS0_20StringStorageDefaultIcEEEES6_
fj:_glGetUniformLocation
zfa:__ZN13GfxDeviceGLES32CreateColorRenderSurfacePlatformEP17RenderSurfaceBase19RenderTextureFormat
Is:__ZN12AudioManager24CreateFMODSoundFromMovieEP9AudioClip
s$b:__ZN9rapidjson6WriterI16TempBufferWriterNS_4UTF8IcEES3_13JSONAllocatorE8WriteIntEi
JQc:__ZN5physx2Sc10NPhaseCore9visualizeERNS_2Cm12RenderOutputE
ind:__ZN5physx2Gu12TriangleMesh15exportExtraDataERNS_22PxSerializationContextE
Xth:__ZN6il2cpp2vm13MetadataCache24GetGenericInstanceMethodEPK10MethodInfoPK20Il2CppGenericContext
_Be:_MSCompatUnicodeTable_get_IsReady_m562849792
dCe:_SimpleCollator_SetCJKTable_m1356471502
Awb:__Z18Transfer_BlittableI18StreamedBinaryReadILb1EELb0E8Vector2fEvRK29SerializationCommandArgumentsR31RuntimeSerializationCommandInfo
Roe:_Int32_System_IConvertible_ToUInt64_m2888588559_AdjustorThunk
QH:__Z24ConvertSeparatorsToUnityPc
Tgb:__ZNSt3__213__vector_baseI9InputAxisNS_9allocatorIS1_EEED2Ev
qMh:__ZN6il2cpp2vm6Thread20FreeThreadStaticDataEP12Il2CppThread
x4d:_Console_SetEncodings_m342145566
ehe:_Exception_get_ClassName_m2189012117
Jre:_IOException__ctor_m613517077
vmc:__ZN5physx2Sc8BodyCore17setupSimStateDataEPNS_6shdfnd4PoolINS0_12SimStateDataENS2_19ReflectionAllocatorIS4_EEEEbb
e4d:_Stack__ctor_m521896492
sEa:__Z20LookRotationToMatrixRK8Vector3fS1_P10Matrix3x3f
FJc:__Z25computePacketSizeMultLog2ff
djb:__ZNSt3__26vectorIN15ResourceManager10DependencyE13stl_allocatorIS2_L18MemLabelIdentifier51ELi16EEE6assignINS_11__wrap_iterIPS2_EEEENS_9enable_ifIXaasr21__is_forward_iteratorIT_EE5valuesr16is_constructibleIS2_NS_15iterator_traitsISC_E9referenceEEE5valueEvE4typeESC_SC_
oYf:_Type_GetTypeFromHandle_m432505302
kLh:__ZN15dense_hashtableINSt3__24pairIK10KeyWrapperINS1_IP11Il2CppClassjEEES4_EES6_N6il2cpp8metadata14ArrayClassHashEN14dense_hash_mapIS6_S4_SB_NS6_14EqualsComparerINSA_17ArrayClassCompareEEENS0_9allocatorIS8_EEE9SelectKeyESF_SH_E12maybe_shrinkEv
bAg:_GCHandle_FreeHandle_m2466807271
LRc:__ZN5physx16PxsIslandManager18setEdgeUnconnectedERKNS_20PxsIslandManagerHookIjLj4294967295EEE
ZA:__ZN11UnityEngine15CloudWebService14DataDispatcher25OnDataBlockConsumedStaticEPv
x1b:__ZL27GeomMTDCallback_PlaneConvexRN5physx6PxVec3ERfRKNS_10PxGeometryERKNS_11PxTransformES5_S8_
lbg:__ZL54_MethodInfo_t3642518830_CustomAttributesCacheGeneratorP21CustomAttributesCache
uWg:__Z46RuntimeInvoker_Il2CppObject_Decimal_t724701077PK10MethodInfoPvPS2_
QSf:_Array_InternalArray__get_Item_TisSingle_t2076509932_m1495809753_gshared
ppe:_Int64_System_IConvertible_ToByte_m3027162116_AdjustorThunk
SNg:_ReadOnlyCollection_1_Contains_m1895759124_gshared
H:Math_pow
XGc:__ZNK5physx2Sc9ClothCore16getStretchConfigENS_22PxClothFabricPhaseType4EnumE
ZRc:__ZN5physx6shdfnd5ArrayIPvNS0_15InlineAllocatorILj256ENS0_19ReflectionAllocatorINS_2Gu30LargePersistentContactManifoldEEEEEE15growAndPushBackERKS2_
f_d:_ArrayList__cctor_m2090802806
fci:__ZNSt3__212basic_stringIcNS_11char_traitsIcEENS_9allocatorIcEEE6insertEjPKcj
kWb:__Z44InitializeTransferFunctionScriptingTraitsForI8JSONReadEvR31TransferFunctionScriptingTraits
LFc:__ZN5physx2Sc13ClothBulkData15exportExtraDataERNS_22PxSerializationContextE
qTa:__ZNSt3__26vectorINS_4pairIN4core12basic_stringIcNS2_20StringStorageDefaultIcEEEES6_EE13stl_allocatorIS7_L18MemLabelIdentifier37ELi16EEE6insertENS_11__wrap_iterIPKS7_EERSD_
Lca:__ZNSt3__27__sort4IRNS_4lessIN22BuiltinResourceManager8ResourceEEEPS3_EEjT0_S7_S7_S7_T_
wY:__ZN15dense_hashtableINSt3__24pairIKPK17RenderSurfaceBaseP13RenderTextureEES4_19PointerHashFunctionIS4_EN14dense_hash_mapIS4_S7_SA_NS0_8equal_toIS4_EE13stl_allocatorIS8_L18MemLabelIdentifier65ELi16EEE9SelectKeyESD_SG_E12resize_deltaEjj
rla:__ZN4crnd12crn_unpacker11unpack_dxt5EPPhjjjjjj
Y_f:_UInt32_System_IConvertible_ToUInt64_m4083788326_AdjustorThunk
Zgc:__ZN5physx6shdfnd4sortIPvNS0_4LessIS2_EENS0_19ReflectionAllocatorINS_2Sc19ShapeInstancePairLLEEEEEvPT_jRKT0_RKT1_j
Ugf:_DESTransform_Permutation_m4174035780
Rre:_Path_IsDsc_m1314465747
Vse:_MonoIO_Seek_m3461199288
oAb:__Z29Transfer_Blittable_ArrayFieldI18StreamedBinaryReadILb0EE4AABBEvRT_R9ArrayInfoRK23StaticTransferFieldInfo
rN:__ZNSt3__26__treeINS_12__value_typeINS_4pairIPcS3_EENS_3setIS3_15compare_tstringIPKcENS_9allocatorIS3_EEEEEENS_19__map_value_compareIS4_SD_20smaller_tstring_pairIS8_ELb1EEENSA_ISD_EEE7destroyEPNS_11__tree_nodeISD_PvEE
Ynh:__ZN15dense_hashtableINSt3__24pairIK10KeyWrapperIPK22Il2CppGenericParameterEP11Il2CppClassEES6_N6il2cpp5utils11PointerHashIS4_EEN14dense_hash_mapIS6_S9_SE_NS6_14EqualsComparerINS0_8equal_toIS5_EEEENS0_9allocatorISA_EEE9SelectKeyESJ_SL_E15insert_noresizeERKSA_
dTb:__Z52Register_UnityEngine_GameObject_GetComponentInParentv
Mhb:__ZN15SerializeTraitsINSt3__24pairIPKN5Unity4TypeE7Hash128EEE8TransferI14SafeBinaryReadEEvRS7_RT_
YX:__ZN19ShaderPropertySheet37CreateTextureAuxPropertyUninitializedEN9ShaderLab16FastPropertyNameEPKc
RMa:__Z37GenerateCombinedDynamicVisibleListJobP11CullResults
ZI:__GLOBAL__sub_I_runtime_graphics_billboard_lump_cpp
xG:__ZNK13ScreenManager21GetCursorInsideWindowEv
AZh:__ZN6il2cpp2vmL22RaiseOverflowExceptionEv
OOf:_Array_InternalArray__ICollection_Add_TisSByte_t454417549_m46595441_gshared
jtg:_Match_get_Empty_m3581361913
RJa:__Z20IntersectAABBFrustumRK4AABBPK5Planej
qPd:_String_Concat_m626692867
$Mb:__ZN13RenderManager15InitializeClassEv
Rqb:__ZN15SerializeTraitsI12PropertyNameE8TransferI14SafeBinaryReadEEvRS0_RT_
m1:__ZN18UnityPropertySheet11UnityTexEnvC2Ev
jE:__ZNSt3__23mapIN19CloudServiceHandler11ServiceTypeEPS1_NS_4lessIS2_EE13stl_allocatorINS_4pairIKS2_S3_EEL18MemLabelIdentifier85ELi16EEEixERS8_
Ytd:__ZN5physx7profile8ZoneImplINS_28PxProfileNameProviderForwardEED0Ev
Xei:dynCall_iiiiiiiiiiffffii
UD:__ZN11UnityEngine15CloudWebService17WebFileDownloaderINS0_13WWWRestClientENS0_16WWWRestHeaderMapEED0Ev
bYb:__ZN9JSONWrite8TransferI11ColorRGBA32EEvRT_PKc17TransferMetaFlags
k_b:__Z22TransferField_NonArrayI8JSONRead27Converter_SimpleNativeClassI8GradientEEvRK23StaticTransferFieldInfoR31RuntimeSerializationCommandInfoRT0_
ITa:__ZNSt3__26__treeIN4core12basic_stringIcNS1_20StringStorageDefaultIcEEEENS_4lessIS5_EE13stl_allocatorIS5_L18MemLabelIdentifier37ELi16EEE7destroyEPNS_11__tree_nodeIS5_PvEE
_ma:__ZNSt3__26vectorI15ComputeShaderCBNS_9allocatorIS1_EEE21__push_back_slow_pathIKS1_EEvRT_
KIb:__ZN13ProduceHelperI11MonoManagerLb0EE7ProduceE18MemLabelIdentifier18ObjectCreationMode
gpa:__ZNK18GfxFramebufferGLES15DiscardContentsER12ObjectHandleI17RenderSurface_TagP17RenderSurfaceBaseE
Yuh:__ZN6il2cpp2vm13MetadataCache27GetEventDefinitionFromIndexEi
IGe:_KeyPairPersistence_IsUserProtected_m37342608
rai:___fflush_unlocked
hXb:__Z18Transfer_BlittableI9JSONWriteLb1EdEvRK29SerializationCommandArgumentsR31RuntimeSerializationCommandInfo
eji:_glGetIntegerv__wrapper
vje:_NumberFormatter_ResetCharBuf_m3823516989
v$c:__ZN5physx23ArticulationRootManagerD0Ev
ief:_SerializationInfo_GetInt16_m3549836657
Wlh:_StackTraceUtility_IsSystemStacktraceType_m506502194
Z8a:__ZN9Texture2DD2Ev
TI:__GLOBAL__sub_I_runtime_geometry_lump_cpp
z_d:_ArrayList_Remove_m3941780739
etd:__ZN14PhysicsManager8TransferI19StreamedBinaryWriteILb0EEEEvRT_
Dyh:__ZN6il2cpp2vm21ThreadPoolCompartment12DetachThreadEP12Il2CppThread
gc:invoke_iiiifiiiii
JZc:__ZN5physx2Sc5Scene31setClothInterCollisionStiffnessEf
Skf:_ConstructorBuilder_not_created_m2150488017
vr:__ZNSt3__26vectorIiNS_9allocatorIiEEE6insertENS_11__wrap_iterIPKiEERS5_
Vyg:_Uri_AppendQueryAndFragment_m2358658590
fq:__ZN13dynamic_arrayIhLj1EE18resize_initializedEjRKh12ResizePolicy
Zaa:__ZN17PersistentManager27GetLoadErrorMessageFromPathERKN4core12basic_stringIcNS0_20StringStorageDefaultIcEEEE
_Qd:_DecoderReplacementFallbackBuffer_Fallback_m1790184670
Tl:_glGenRenderbuffers
QQh:__ZN6il2cpp6icalls8mscorlib6System2IO6MonoIO19GetCurrentDirectoryEPi
pid:__ZN5physx2Sc13ConstraintSim11projectPoseEPNS0_7BodySimE
vPd:_String_GetHashCode_m931956593
m_a:__ZN14CachingManager7DisposeEv
F9c:__ZN5physx21PxcContactCapsuleMeshERKNS_2Gu13GeometryUnionES3_RKNS_11PxTransformES6_RKfRNS_10PxcNpCacheERNS0_13ContactBufferE
Pfb:__ZN12MeshRenderer16UpdateCachedMeshEv
Lyd:__ZN9Rigidbody11SetPositionERK8Vector3f
xqb:__Z19TransferField_ArrayI14SafeBinaryRead27Converter_SimpleNativeClassI8GradientEEvRK23StaticTransferFieldInfoR31RuntimeSerializationCommandInfoRT0_
v_e:_NameObjectCollectionBase_System_Collections_ICollection_CopyTo_m810189168
tPa:__ZN6Camera15SetOrthographicEb
wea:__ZN13GfxDeviceGLES14DisableScissorEv
g$c:__ZN5physx17PxcNpMemBlockPool23releaseConstraintMemoryEv
y_a:__Z22GetFolderSizeRecursiveRKN4core12basic_stringIcNS_20StringStorageDefaultIcEEEE
vag:__ZL71ReliabilityContractAttribute_t1625655220_CustomAttributesCacheGeneratorP21CustomAttributesCache
afd:__ZNK5physx10PxsContext25getManagerTouchEventCountEPiS1_S1_
N8d:_Decimal_op_Explicit_m1986696267
Wje:_NumberFormatter_AppendDecimalString_m3532330813
vc:_glVertexAttrib4f
jlf:_ILGenerator__ctor_m3365621387
Qge:_Environment_GetFolderPath_m1849163024
e7:__ZN13LoadOperationC2Ev
kFe:_ASN1_Add_m2540239672
BLf:_Array_InternalArray__ICollection_Remove_TisInt16_t4041245914_m3380378727_gshared
r2c:__ZN5physx6shdfnd4sortIPNS_10PxsCCDPairENS_13ToiPtrCompareENS0_19ReflectionAllocatorIS3_EEEEvPT_jRKT0_RKT1_j
LBg:_SinkProviderData__ctor_m1828480392
Zzg:_GCHandle_GetTarget_m2056570211
v2h:_GC_set_hdr_marks
HBa:__Z17SetupObjectMatrixRK10Matrix4x4fi
FMd:_SecurityFrame_ToString_m1282306399
$Ce:_SimpleCollator_MatchesBackwardCore_m1884994267
wXf:_TimeSpan_From_m1249538749
Loc:__ZN5physx6shdfnd8PoolBaseINS_11NpAggregateENS0_19ReflectionAllocatorIS2_EEE17releaseEmptySlabsEv
vCe:_SimpleCollator_GetSortKey_m1317491197
HUb:__Z43Object_CUSTOM_DoesObjectWithInstanceIDExisti
wmd:__ZN5physx13GuMeshFactory17createHeightFieldERKNS_17PxHeightFieldDescE
oN:__ZN13RuntimeStaticINSt3__23mapINS0_4pairIPcS3_EEPFbPvR14SafeBinaryReadE20smaller_tstring_pairIPKcENS0_9allocatorINS2_IKS4_S9_EEEEEELb0EE13StaticDestroyES5_
orf:_MonoEvent_GetCustomAttributes_m3899596098
JDd:__GLOBAL__sub_I_VRGfxHelpers_cpp
$Kb:__ZZL31RegisterOtherRendererPropertiesR22GenericPropertyBindingEN30Wrapper_RendererReceiveShadows13SetFloatValueEPvf
Bjd:__ZN5physx2Sc17ParticleSystemSim19unlinkParticleShapeEPNS0_19ParticlePacketShapeE
Nch:_Camera_FireOnPreRender_m24116662
yZf:_TypeLoadException_GetObjectData_m2885802706
gfa:__ZN9GfxDevice24CreateRenderDepthSurfaceE9TextureIDiiii16TextureDimension17DepthBufferFormat18SurfaceCreateFlags
sdf:_ObjectManager_DoFixups_m835924385
Paf:_RemotingServices_CreateWellKnownServerIdentity_m3390048085
As:__ZN4FMOD5Sound11setUserDataEPv
lBb:__ZN14SafeBinaryRead21TransferSTLStyleArrayINSt3__26vectorIN9ShaderLab19SerializedSubShaderENS1_9allocatorIS4_EEEEEEvRT_17TransferMetaFlags
lOe:_ARC4Managed_KeySetup_m73384687
Yua:__ZNK25SingleBlockMemoryFileData4SizeEv
L0a:__ZNK23ArchiveStorageConverter26GetUncompressedArchiveSizeEv
Zae:_DateTime_Equals_m2562884703
fbd:__ZN5physx2Gu22GJKRelativePenetrationERKNS0_10ShrunkBoxVES3_RKNS_6shdfnd3aos15PsMatTransformVERKNS5_6FloatVERNS5_5Vec3VESD_SD_RS9_PhSF_Rh
m2c:__ZN5physx2Cm12DelegateTaskINS_13PxsCCDContextEXadL_ZNS2_12postCCDSweepEPNS_10PxBaseTaskEEEE11runInternalEv
OAa:_UNITY_png_zfree
yxd:__ZZN8Collider15InitializeClassEvEN32FunctorImpl_786kTransformChanged4CallEPviR11MessageData
yWh:__ZNK15dense_hashtableINSt3__24pairIK10KeyWrapperIP12Il2CppObjectEN6il2cpp2gc9CachedCCWEEES5_NS7_5utils11PointerHashIS3_EEN14dense_hash_mapIS5_S9_SD_NS5_14EqualsComparerINS0_8equal_toIS4_EEEENS0_9allocatorISA_EEE9SelectKeyESI_SK_E3endEv
HXa:__ZN17LowLevelAllocator4FreeEPvj
Y2d:_KeyMarker__cctor_m2057880225
qud:__ZN5physx7profile8ZoneImplINS_28PxProfileNameProviderForwardEE10eventValueEtyx
Bnh:__ZN15dense_hashtableINSt3__24pairIK10KeyWrapperIPK22Il2CppGenericParameterEP11Il2CppClassEES6_N6il2cpp5utils11PointerHashIS4_EEN14dense_hash_mapIS6_S9_SE_NS6_14EqualsComparerINS0_8equal_toIS5_EEEENS0_9allocatorISA_EEE9SelectKeyESJ_SL_E9copy_fromERKSO_j
eme:_TextInfo_get_ListSeparator_m3426465394
Dte:_FileStream_BeginWrite_m3895959548
jUe:_Context_set_RecordProtocol_m1968834768
GJ:__ZL19StaticCleanupPlayerPv
o4e:_X509Certificate2Enumerator_MoveNext_m1861665712
S4c:__ZN5physx24writeBackContactCoulomb4EPKNS_23PxcSolverConstraintDescERNS_16PxcSolverContextEPPKNS_17PxcSolverBodyDataES8_
HV:__ZN15dense_hashtableINSt3__24pairIKN4core12basic_stringIcNS2_20StringStorageDefaultIcEEEEP11AssetBundleEES6_20StringHash32FunctionIS6_EN14dense_hash_mapIS6_S9_SC_NS0_8equal_toIS6_EENS0_9allocatorISA_EEE9SelectKeyESF_SH_ED2Ev
jVf:_Monitor_Monitor_wait_m3813798368
NQd:_DecoderExceptionFallbackBuffer_Fallback_m3457210607
MKf:_Array_InternalArray__ICollection_Contains_TisDouble_t4078015681_m2262383923_gshared
YXa:__ZN9Behaviour10DeactivateE19DeactivateOperation
O9:__ZN13StreamingInfo8TransferI14SafeBinaryReadEEvRT_
KBb:__ZN15dense_hashtableINSt3__24pairIKiN4core17string_with_labelILi1EEEEEi18SInt32HashFunctionN14dense_hash_mapIiS5_S7_NS0_8equal_toIiEE13stl_allocatorIS6_L18MemLabelIdentifier1ELi16EEE9SelectKeyESA_SD_E15insert_noresizeERKS6_
Cjb:__ZN14SafeBinaryRead21TransferSTLStyleArrayINSt3__26vectorIN4core12basic_stringIcNS3_20StringStorageDefaultIcEEEE13stl_allocatorIS7_L18MemLabelIdentifier12ELi16EEEEEEvRT_17TransferMetaFlags
B_g:__Z87RuntimeInvoker_Boolean_t3825574718_IntPtr_t_Int64_t909078037_MonoIOErrorU26_t1029615899PK10MethodInfoPvPS2_
cec:__GLOBAL__sub_I_runtime_dynamics_lump_cpp
nr:__Z23CalculateGlobalRotation23TransformAccessReadOnly
iVd:_Array_obj_swapper_m2156282294
s4e:_X509Store_Close_m2412711366
$Sf:_AttributeHelperEngine_GetCustomAttributeOfType_TisIl2CppObject_m581732473_gshared
x_c:__ZN5physx2Cm10FanoutTaskD0Ev
Ktc:__ZN5physx14NpShapeManager26markAllSceneQueryForUpdateERNS_2Sq17SceneQueryManagerE
Ojc:__ZN5physx2Sc21ConstraintInteractionD2Ev
YKb:__Z43InitializeRendererAnimationBindingInterfacev
BR:__ZL26DestroyGameObjectRecursiveR10GameObjectR11BatchDelete
M2h:_GC_allochblk_nth
oVf:_Mutex_ReleaseMutex_m2143813124
P_f:_UInt32_System_IConvertible_ToSByte_m604037412_AdjustorThunk
Cod:__ZNK5physx2Gu9Container8ContainsEjPj
gCc:__ZNK5physx7NpShape13getRestOffsetEv
lKb:__Z7HaloTexP9Texture2DPhiiii
Rfi:dynCall_i
pjh:_Physics_RaycastAll_m410413656
Ey:__ZN17AudioCustomFilter4InitEv
eSg:_X509Certificate__cctor_m2984068893
frb:__ZN14SafeBinaryRead21TransferSTLStyleArrayI13dynamic_arrayIxLj8EEEEvRT_17TransferMetaFlags
Cei:dynCall_v
eve:_Path__cctor_m3685888661
Ece:_Decimal_System_IConvertible_ToDateTime_m4247760250_AdjustorThunk
GFe:_BitConverterLE_ULongFromBytes_m2583105400
oWa:__ZNSt3__26__treeINS_12__value_typeIN4core12basic_stringIcNS2_20StringStorageDefaultIcEEEEPN16MemoryFileSystem4NodeEEENS_19__map_value_compareIS6_SA_NS_4lessIS6_EELb1EEE13stl_allocatorISA_L18MemLabelIdentifier54ELi16EEE7destroyEPNS_11__tree_nodeISA_PvEE
xHf:_Dictionary_2_ToTKey_m965425080_gshared
z2a:__ZN6Camera23VirtualRedirectTransferER14SafeBinaryRead
I7h:__ZNSt3__26vectorINS_12basic_stringIDsNS_11char_traitsIDsEENS_9allocatorIDsEEEENS4_IS6_EEE8__appendEj
vXf:_TimeSpan_FromDays_m2859053398
bBd:__ZN11UnityEngine7Connect13ConnectConfig11ConfigValueD2Ev
nia:__ZNSt3__26__treeINS_12__value_typeIjP14DataBufferGLESEENS_19__map_value_compareIjS4_NS_4lessIjEELb1EEENS_9allocatorIS4_EEE7destroyEPNS_11__tree_nodeIS4_PvEE
Ipc:__ZN5physx14NpArticulationD0Ev
lb:invoke_viiiiiiii
bye:_MissingMemberException__ctor_m2869542203
$Og:_CachedInvokableCall_1__ctor_m3238306320_gshared
oNa:__ZNK6Camera16GetCullingMatrixEv
mNf:_Array_IndexOf_TisIl2CppObject_m1815604637_gshared
syg:_Uri_EnsureAbsoluteUri_m1892758054
s9a:__ZN16LightmapSettings5ResetEv
Vta:__ZN12FileAccessor4ReadEyPvPy
Hya:__Z12IsFirstFramev
d_d:_ArrayList_ThrowNewArgumentOutOfRangeException_m3795973535
Jug:_Regex_Init_m1873144192
KFe:_BitConverterLE_ToDouble_m516016818
TH:__ZNK15FileSystemEntry6ExistsEv
pgb:__ZNK9Transform21GetLocalToWorldMatrixER10Matrix4x4f
bld:__ZN5physx2Gu10ConvexMesh4loadERNS_13PxInputStreamE
tt:__ZN13AudioListener23VirtualRedirectTransferER19StreamedBinaryWriteILb0EE
Und:__ZN5physx6shdfnd5ArrayIPvNS0_19ReflectionAllocatorIN17PxcPoolMallocData10PoolData16EEEE15growAndPushBackERKS2_
Sfa:__ZN13GfxDeviceGLES11CopyTextureE9TextureIDS0_
ARb:__Z72Register_UnityEngine_AssetBundleCreateRequest_DisableCompatibilityChecksv
qii:_emscripten_glViewport__wrapper
zCg:_Context__cctor_m3895126354
pB:__ZN11UnityEngine15CloudWebService17SessionEventQueue15RestoreFromFileER12FileAccessorPvy
Shb:__ZN14PlayerSettingsD2Ev
ate:_FileStream_get_Length_m2265080501
LYf:_Type_type_is_assignable_from_m1620694099
A1h:_GC_reclaim_all
aK:__ZN13PlayableGraph14DestroyOutputsEv
yDg:_ContextAttribute_GetPropertiesForNewContext_m4007241045
jkf:_CustomAttributeTypedArgument_Equals_m1555989603
Q7b:__ZN16RayRTreeCallbackILi1ELb1EED0Ev
L9c:__ZL18PxcContactHullHullRKN5physx2Gu13PolygonalDataES3_RKNS_9PxBounds3ES6_RKNS_11PxTransformES9_fRNS0_13ContactBufferERKNS_2Cm23FastVertex2ShapeScalingESF_bb
Zyh:__ZN6il2cpp2vm10ThreadPool5QueueEP14Il2CppDelegatePPvS3_P12Il2CppObject
yuf:_ResourceSet__ctor_m2566914412
qFc:__ZN5physx7NpCloth16setContactOffsetEf
oFc:__ZN5physx7NpCloth23setSimulationFilterDataERKNS_12PxFilterDataE
a1b:__ZN5physx3Cct26CharacterControllerManager21resetObstaclesBuffersEv
eOe:_ASN1Convert_ToDateTime_m2305963290
nLg:_Collection_1_System_Collections_IList_Add_m2954354104_gshared
Zid:__ZN5physx6shdfnd5ArrayIPNS_10PxsCCDBodyENS0_19ReflectionAllocatorIS3_EEE8recreateEj
EId:_SymmetricAlgorithm_Finalize_m1665128997
RQf:_Array_InternalArray__set_Item_TisDouble_t4078015681_m24756265_gshared
kMe:_BigInteger__ctor_m2991182310
wph:__ZN6il2cpp2vm5Class6IsEnumEPK11Il2CppClass
uSb:__Z52Register_UnityEngine_Camera_INTERNAL_CALL_RaycastTryv
oTa:__ZN13sorted_vectorINSt3__24pairIN4core12basic_stringIcNS2_20StringStorageDefaultIcEEEES6_EEN10vector_mapIS6_S6_27compare_tstring_insensitiveIS6_E13stl_allocatorIS7_L18MemLabelIdentifier37ELi16EEE13value_compareESD_E10insert_oneERKS7_
Yai:_mkdir
eed:__ZN5physx6shdfnd8PoolBaseINS_21PxsBodyTransformVault13PxsBody2WorldENS0_19ReflectionAllocatorIS3_EEE12allocateSlabEv
r5d:_Convert_ToByte_m791636053
xfi:dynCall_iifi
jNb:__Z16CreateRenderLoopR6Camera
m4c:__ZN5physx20PxcNpCacheStreamPairC2ERNS_17PxcNpMemBlockPoolE
PF:_tlsf_create
tmb:__ZN13MonoBehaviour23VirtualRedirectTransferER18StreamedBinaryReadILb0EE
PCb:__ZN9ShaderLab20SerializedSubProgramC2ERKS0_
Omi:_emscripten_glCompileShader__wrapper
QHd:_SHA256Managed_ProcessBlock_m1064908669
bE:__ZN11UnityEngine15CloudWebService17WebFileDownloaderINS0_13WWWRestClientENS0_16WWWRestHeaderMapEE24ExtractResponseEtagValueEv
Zci:__ZNK10__cxxabiv121__vmi_class_type_info27has_unambiguous_public_baseEPNS_19__dynamic_cast_infoEPvi
l9d:_Convert_ToUInt64_m2215781574
zSg:_X509Certificate_VerifySignature_m4020723406
vZf:_TypeInitializationException_GetObjectData_m2244451030
qie:_CompareInfo_LastIndexOf_m2978196696
eGe:_DSAManaged_Generate_m3166917081
YEf:_Enumerator_VerifyCurrent_m3330382363_AdjustorThunk
BLb:__ZZN12MeshRenderer15InitializeClassEvEN29FunctorImpl_133kDidDeleteMesh4CallEPviR11MessageData
jl:_emscripten_glGetActiveUniform
xHa:__Z20RenderFullScreenQuadR9GfxDeviceRK6Camera17ShaderChannelMaskRK5RectTIfEf21MonoOrStereoscopicEye
$nd:__ZN5physx7Cooking16platformMismatchEv
F_:__ZN16RenderTextureMap5QueryEPK17RenderSurfaceBase
P4a:__ZN5Light17MainThreadCleanupEv
qxe:_UnexceptionalStreamWriter_Write_m186237617
Qli:_emscripten_glUniform4iv__wrapper
Rfd:__ZN5physx28solveParallelCouloumFrictionERNS_18PxsDynamicsContextEjjPNS_13PxcSolverBodyEPNS_17PxcSolverBodyDataEjjPNS_25PxcArticulationSolverDescEjPNS_23PxcSolverConstraintDescEjS9_jPiSA_SA_SA_SA_SA_PNS_25PxcThresholdStreamElementEjSA_PNS_2Cm13SpatialVectorEPKPNS_11PxsBodyCoreERNSD_10BitMapBaseINS_6shdfnd9AllocatorEEEPKPNS_15PxsArticulationEjPViRNSL_5ArrayINS_24PxsConstraintBatchHeaderENSL_19ReflectionAllocatorISW_EEEES10_RNSV_IjNSX_IjEEEES13_PPNS_12PxsRigidBodyEj
kXd:_Boolean_CompareTo_m1086129598_AdjustorThunk
kLb:__ZN8Material8GetFloatEN9ShaderLab16FastPropertyNameE
B3c:__ZN5physx2Gu18gjkRelativeRayCastINS0_9TriangleVENS0_4BoxVES2_NS0_10ShrunkBoxVEEEbRT_RT0_RKNS_6shdfnd3aos15PsMatTransformVERKNSA_6FloatVERKNSA_5Vec3VESJ_RSE_RSH_SL_fb
eg:_pthread_key_create
bwc:__ZN5physx2Sc8BodyCoreD2Ev
r_d:_ArrayList_Clear_m3834604134
c1:__ZN15SerializeTraitsI10ColorRGBAfE8TransferI14SafeBinaryReadEEvRS0_RT_
KS:__ZN22BuiltinResourceManager13StaticDestroyEPv
ARf:_Array_Resize_TisCustomAttributeTypedArgument_t1498197914_m3055365808_gshared
uR:__ZN10GameObject17GetComponentIndexEPN5Unity9ComponentE
rEc:__ZN5physx7NpCloth20setMotionConstraintsEPKNS_31PxClothParticleMotionConstraintE
Ccb:__ZN14SafeBinaryRead21TransferSTLStyleArrayI13dynamic_arrayI7SubMeshLj4EEEEvRT_17TransferMetaFlags
sNd:_Single_IsNegativeInfinity_m2615809279
dSe:_CipherSuiteFactory_GetSsl3SupportedCiphers_m2476597368
a0e:_IPv6Address_Fill_m1824197512
K1g:__Z52RuntimeInvoker_Double_t4078015681_Double_t4078015681PK10MethodInfoPvPS2_
ghf:_DSACryptoServiceProvider_Finalize_m1911772902
Rkd:__ZNK5physx2Sc15ClothFabricCore9getPhasesEPNS_18PxClothFabricPhaseEj
USa:__ZN35RegisterRuntimeInitializeAndCleanup22ExecuteInitializationsEv
Q3h:_GC_set_no_dls
h6:__ZN23PreloadManagerOperation14SetFinalTimingEffff
i:DYNAMICTOP_PTR
bCa:__Z11CopyTextureP7TextureiiS0_ii
Ohb:__ZN13BuildSettings8TransferI18StreamedBinaryReadILb0EEEEvRT_
KHb:__ZN10GameObject15InitializeClassEv
hYc:__ZN5physx3Scb17ArticulationJoint9syncStateEv
h3c:__ZNK5physx2Gu29EPASupportMapPairRelativeImplINS0_8CapsuleVENS0_4BoxVEE18doWarmStartSupportEiiRNS_6shdfnd3aos5Vec3VES8_S8_
aid:__ZN5physx17PxsThresholdTable5buildERKNS_18PxsThresholdStreamE
M7c:__ZN9BoxPruner12updateObjectERK5IAABBt
Afe:_Double_Equals_m920556135_AdjustorThunk
Jbd:__ZN5physx2Gu22pcmContactPlaneCapsuleERKNS0_13GeometryUnionES3_RKNS_11PxTransformES6_RKfRNS0_5CacheERNS0_13ContactBufferE
tja:__Z29TextureIdMapGLES_QueryOrAlloc9TextureID
bRe:_CipherSuite_get_ExpandedKeyMaterialSize_m296573450
Kvd:__ZN5physx6shdfnd4sortIPvNS0_4LessIS2_EENS0_19ReflectionAllocatorINS_24NpPtrTableStorageManager8PtrBlockILi4EEEEEEEvPT_jRKT0_RKT1_j
r4d:_Stack_Push_m284336154
Kae:_DateTime_Add_m4237489122
anh:__ZL11decimalLog2P19il2cpp_decimal_repr
Zib:__ZN15ResourceManager10Dependency8TransferI14SafeBinaryReadEEvRT_
TE:__ZN3WWWD2Ev
O5c:__ZNK5physx29BroadPhaseBatchUpdateWorkTask7getNameEv
c1h:_GC_extend_size_map
Fw:__ZN4FMOD6System9setDriverEi
ATh:__ZN6il2cpp8metadataL24RecursiveGenericDepthForEPK17Il2CppGenericInst
pNb:__ZNK9Transform11GetRotationEv
f3e:_X509Certificate2_Find_m833446211
Qy:__ZN12AudioManager15DidReloadDomainEv
OWc:__ZN5physx2Sc5Scene26setVisualizationCullingBoxERKNS_9PxBounds3E
Rtb:__Z18Transfer_BlittableI24GenerateTypeTreeTransferLb0EyEvRK29SerializationCommandArgumentsR31RuntimeSerializationCommandInfo
DX:__ZN8Material14CreateMaterialER6ShaderN6Object9HideFlagsEb
RGe:_KeyPairPersistence_FromXml_m2310151202
PRb:__Z60Register_UnityEngine_AsyncOperation_get_allowSceneActivationv
hce:_DBNull_System_IConvertible_ToUInt64_m2919804476
gbi:_fread
IHh:__ZN15dense_hashtableINSt3__24pairIK10KeyWrapperIPK14Il2CppAssemblyEPK16MonoAssemblyNameEES6_N6il2cpp5utils11PointerHashIS4_EEN14dense_hash_mapIS6_SA_SF_NS6_14EqualsComparerINS0_8equal_toIS5_EEEENS0_9allocatorISB_EEE9SelectKeyESK_SM_E15set_deleted_keyERKSB_
Hxd:__Z27GetMeshAssetPathDescriptivePK4Mesh
GX:__Z25GetBuiltinResourceManagerv
z0c:__ZN5physx2Sq16BucketPrunerCore20allocateSortedMemoryEj
FVh:__ZN6il2cpp2gc8GCHandle15GetTargetHandleEP12Il2CppObjectii
Ch:_llvm_trap
fN:__ZNSt3__27__sort5IRNS_6__lessIN12_GLOBAL__N_114ParamNameIndexES3_EEPS3_EEjT0_S7_S7_S7_S7_T_
Bre:_Directory_CreateDirectory_m3561886598
z1h:_get_index
X8c:__ZNK5physx14SingleAABBTask7getNameEv
Epd:__ZN5physx11HullLibrary11calchullgenEPNS_6float3Eiif
pTe:_ClientSessionInfo_get_Valid_m3589823308
QHe:_PKCS1_Sign_v15_m2137018891
Uzg:_GCHandle__ctor_m2952050298
vfa:__ZN13GfxDeviceGLES30SetBackBufferColorDepthSurfaceEP17RenderSurfaceBaseS1_
eOb:__ZN16StreamedResource8TransferI18StreamedBinaryReadILb0EEEEvRT_
dWc:__ZN5physx6shdfnd5ArrayINS_12PxActorShapeENS0_19ReflectionAllocatorIS2_EEE8recreateEj
JBb:__ZN15dense_hashtableINSt3__24pairIKiN4core17string_with_labelILi1EEEEEi18SInt32HashFunctionN14dense_hash_mapIiS5_S7_NS0_8equal_toIiEE13stl_allocatorIS6_L18MemLabelIdentifier1ELi16EEE9SelectKeyESA_SD_E12resize_deltaEjj
cOa:__ZNK20OcclusionCullingData22GetStaticRendererCountEv
Ln:FUNCTION_TABLE_iiiiifi
QHa:__ZNK6Camera17GetSkyboxMaterialEv
_mi:_emscripten_glDisableVertexAttribArray__wrapper
Xyf:_InternalEnumerator_1_get_Current_m3259181373_AdjustorThunk
UAf:_InternalEnumerator_1_get_Current_m789289033_gshared
Rfb:__ZN12MeshRenderer18CalculateLocalAABBER4AABBRKS_RK4Mesh
fHc:__ZN5physx2Sc9ClothCore20setMotionConstraintsEPKNS_31PxClothParticleMotionConstraintE
zRg:_X509CertificateCollection_GetEnumerator_m3994741635
Zme:_Guid_ToString_m3927110175
BXa:__ZN21UnityDefaultAllocatorI17LowLevelAllocatorE8AllocateEji
x0e:_IPv6Address_AsIPv4Int_m3565745471
E9c:__ZN5physx23PxcContactCapsuleConvexERKNS_2Gu13GeometryUnionES3_RKNS_11PxTransformES6_RKfRNS_10PxcNpCacheERNS0_13ContactBufferE
yRb:__Z43AssetBundleRequest_Get_Custom_PropAllAssetsP12Il2CppObject
Jva:__ZN12HandlerChain10AtomicMoveER13FileEntryDataS1_
$nf:_MethodBuilder_GetCustomAttributes_m923430117
wM:__ZN20SpeedTreeWindManager6UpdateEf
Zra:__ZN9GfxDevice19CreateSparseTextureE9TextureIDii13TextureFormati17TextureColorSpace
uxg:_Literal_GetWidth_m1285678191
I6d:_Decimal_ThrowAtPos_m3318712794
qIe:_RSAManaged_GetPaddedValue_m4394397
oxe:_UnexceptionalStreamWriter__ctor_m2209699189
kfb:__ZN14CompressedMesh8TransferI19StreamedBinaryWriteILb0EEEEvRT_
ypc:__ZN5physx6shdfnd5ArrayIPvNS0_15InlineAllocatorILj256ENS0_19ReflectionAllocatorINS_14NpRigidDynamicEEEEEE15growAndPushBackERKS2_
cjf:_AssemblyFileVersionAttribute__ctor_m2026149866
wRb:__Z58AssetBundleCreateRequest_CUSTOM_DisableCompatibilityChecksP12Il2CppObject
wof:_TypeBuilder_SetParent_m387557893
vcc:__ZN5physx3Cct9SweepTest13onOriginShiftERKNS_6PxVec3E
S9e:_SerializationInfo_SetType_m499725474
SRe:_CipherSuiteCollection_cultureAwareCompare_m1825407448
nje:_DateTimeFormatInfo_GetEraName_m1437894363
kQf:_Array_InternalArray__Insert_TisLabelFixup_t4090909514_m3927736182_gshared
C5e:_X509KeyUsageExtension_Encode_m3100824560
rJf:_DefaultComparer_GetHashCode_m1728348656_gshared
jac:__ZN26IntersectAnyVsMeshCallbackILi2ELb1EE10processHitERKN5physx12PxRaycastHitERKNS1_6PxVec3ES7_S7_RfPKj
Jsh:__ZN15dense_hashtableINSt3__24pairIK10KeyWrapperI13dynamic_arrayIPK10Il2CppTypeLj4EEEPFvvEEES8_N6il2cpp8metadata19Il2CppSignatureHashEN14dense_hash_mapIS8_SB_SF_NS8_14EqualsComparerINSE_22Il2CppSignatureCompareEEENS0_9allocatorISC_EEE9SelectKeyESJ_SL_E15destroy_bucketsEjj
H9b:__ZN5physx6shdfnd5ArrayINS_11PxDebugLineENS0_19ReflectionAllocatorIS2_EEE15growAndPushBackERKS2_
C5c:__ZN5physx25solveContactConcludeBlockEPKNS_23PxcSolverConstraintDescEjRNS_16PxcSolverContextE
G6e:_Interpreter_PopulateGroup_m4098755954
KPe:_PrivateKeyInfo_DecodeRSA_m919734506
uTb:__ZNSt3__27__sort4IRNS_6__lessI11KeyframeTplIfES3_EEPS3_EEjT0_S7_S7_S7_T_
B9c:__ZN5physx21PxcContactPlaneConvexERKNS_2Gu13GeometryUnionES3_RKNS_11PxTransformES6_RKfRNS_10PxcNpCacheERNS0_13ContactBufferE
sWa:__ZL16MouseMoveHandleriPK20EmscriptenMouseEventPv
sme:_GuidParser_Reset_m3389485794
qKg:_Enumerator_System_Collections_IEnumerator_get_Current_m1270503615_gshared
nyf:_InternalEnumerator_1_System_Collections_IEnumerator_get_Current_m3315293493_gshared
AEa:__ZN11HaloManager17RenderGeometryJobEP25DynamicVBOGeometryJobDataj
$pe:_Int64_Parse_m4214159959
bBf:_InternalEnumerator_1_System_Collections_IEnumerator_get_Current_m4023948615_gshared
kni:_emscripten_glBlendEquation__wrapper
FKh:__ZN15dense_hashtableINSt3__24pairIK10KeyWrapperIP11Il2CppClassES4_EES5_N6il2cpp8metadata16SZArrayClassHashEN14dense_hash_mapIS5_S4_SA_NS5_14EqualsComparerINS9_19SZArrayClassCompareEEENS0_9allocatorIS7_EEE9SelectKeyESE_SG_E13set_empty_keyERKS7_
Sbi:__ZNSt3__212basic_stringIcNS_11char_traitsIcEENS_9allocatorIcEEE6__initEPKcj
Gj:_emscripten_set_fullscreenchange_callback
cQc:__ZN5physx2Sc5Scene11preAllocateEjjjjj
BHe:_KeyPairPersistence__IsUserProtected_m3417764903
c6e:_CategoryUtils_CategoryFromName_m226887453
Hde:_Decimal_op_Division_m1099836590
ED:__ZN11UnityEngine15CloudWebService14DataDispatcher22ResetNetworkRetryIndexEv
Ma:invoke_vifiiiiiiiiiiiiiiiiiiiiiiiiiiii
Lj:_emscripten_glDrawArrays
cD:__ZN11UnityEngine15CloudWebService19SessionEventManagerC2Ev
use:_File_Open_m1543461971
DCa:__ZNK22RenderingCommandBuffer10FindTempRTERKN9ShaderLab16FastPropertyNameE
gFg:_LogicalCallContext_GetObjectData_m104142736
G2d:_Hashtable_KeyEquals_m1433874944
Eug:_QuickSearch_GetShiftDistance_m2364008966
HDd:__ZN13RuntimeStaticI14dynamic_bitsetLb0EE16StaticInitializeEPv
Fdc:__ZN5physx3Ext9MassProps13rotateInertiaERKNS_7PxMat33ERKNS_6PxQuatE
Gz:__ZL19CleanupModule_Audiov
tKf:_GenericComparer_1_Compare_m2516380588_gshared
BLh:__ZN6il2cpp2os4File10DeleteFileERKNSt3__212basic_stringIcNS2_11char_traitsIcEENS2_9allocatorIcEEEEPi
Cre:_File_Exists_m1685968367
Brb:__Z29Transfer_Blittable_ArrayFieldI14SafeBinaryReadiEvRT_R9ArrayInfoRK23StaticTransferFieldInfo
Xzh:__ZN6il2cpp6icalls8mscorlib6System8MonoType8GetFieldEP20Il2CppReflectionTypeP12Il2CppStringi
Kji:_emscripten_glVertexAttrib3fv__wrapper
vji:_emscripten_glGetIntegerv__wrapper
zTg:_X509Crl_VerifySignature_m25189948
Cef:_RuntimeFieldHandle_Equals_m1202966418_AdjustorThunk
_ib:__ZN14SafeBinaryRead21TransferSTLStyleArrayINSt3__26vectorI4PPtrI6ObjectE13stl_allocatorIS5_L18MemLabelIdentifier51ELi16EEEEEEvRT_17TransferMetaFlags
p3h:_GC_generic_malloc
f0c:__ZNK5physx2Sq12BucketPruner7overlapERKNS0_9ShapeDataERNS0_14PrunerCallbackE
iHb:__ZNSt3__26vectorI16MessageForwarder13stl_allocatorIS1_L18MemLabelIdentifier6ELi8EEE6resizeEj
Afa:__ZN13GfxDeviceGLES32CreateDepthRenderSurfacePlatformEP17RenderSurfaceBase17DepthBufferFormat
Cp:__ZN14SafeBinaryRead21TransferSTLStyleArrayI13dynamic_arrayIiLj4EEEEvRT_17TransferMetaFlags
A6c:__ZN5physx23PxsBroadPhaseContextSap7destroyEv
v6:__ZL30RegisterFilteredObjectCallbackPP12Il2CppObjectiPv
D5a:__ZN19LightProbeOcclusion8TransferI14SafeBinaryReadEEvRT_
stg:_MatchCollection_TryToGet_m2938913145
M2c:__ZN5physx19PxcGetMaterialShapeEPKNS_12PxsShapeCoreEjRNS_18PxcNpThreadContextEPNS_15PxsMaterialInfoE
Ani:_emscripten_glIsTexture__wrapper
Gjh:_Ray_ToString_m2019179238_AdjustorThunk
pdi:_llvm_bswap_i32
aEd:_KeyedHashAlgorithm_get_Key_m3672929432
afa:__ZN9GfxDevice25ReleaseAsyncCommandHeaderEPN21GfxDeviceAsyncCommand3ArgE
imb:__ZN9TextAsset8TransferI24GenerateTypeTreeTransferEEvRT_
MOe:_MD2Managed_HashCore_m248147901
umb:__ZN13MonoBehaviour23VirtualRedirectTransferER17RemapPPtrTransfer
Lpa:__ZN21UniformBufferTFMethod20IsBoneCountSupportedEi
kue:_MemoryStream__ctor_m4073175573
htd:__ZNSt3__26__treeINS_12__value_typeI9ShapePair16TriggerStayStateEENS_19__map_value_compareIS2_S4_NS_4lessIS2_EELb1EEENS_9allocatorIS4_EEE7destroyEPNS_11__tree_nodeIS4_PvEE
S$:__ZN6Shader27MarkShaderStateNotSupportedEPKS_
vac:__Z13raycast_planeRKN5physx10PxGeometryERKNS_11PxTransformERKNS_6PxVec3ES8_fNS_7PxFlagsINS_9PxHitFlag4EnumEtEEjPNS_12PxRaycastHitEbPFbRSD_PvESG_
fyf:_InternalEnumerator_1_System_Collections_IEnumerator_get_Current_m3600601141_AdjustorThunk
YPa:__ZN10GameObject21EnsureUniqueTransformEbb
jpa:__ZN25TransformFeedbackSkinning8SkinMeshERK18VertexStreamSourceP9GfxBufferP17GPUSkinPoseBufferS4_ii17ShaderChannelMaskb
vSh:__ZN15dense_hashtableINSt3__24pairIK10KeyWrapperIP14Il2CppIUnknownEjEES5_N6il2cpp5utils11PointerHashIS3_EEN14dense_hash_mapIS5_jSB_NS5_14EqualsComparerINS0_8equal_toIS4_EEEENS0_9allocatorIS7_EEE9SelectKeyESG_SI_E12resize_deltaEjj
cwd:__ZN5physx9NpFactory14createInstanceEv
Qde:_Delegate_CreateDelegate_m2101460062
gXd:_Boolean_CompareTo_m3691698947
sJf:_DefaultComparer_Equals_m3262686272_gshared
adc:__ZN5physx2Cm12RenderBufferD2Ev
Zhc:__ZL32GeomOverlapCallback_PlaneCapsuleRKN5physx10PxGeometryERKNS_11PxTransformES2_S5_PNS_2Gu12TriggerCacheE
BHc:__ZN5physx2Sc9ClothCore13setGlobalPoseERKNS_11PxTransformE
Ove:_StreamReader_ReadToEnd_m3871366821
Drd:__ZN8Collider14FinalizeCreateERN5physx10PxGeometryEPK9Rigidbody
or:__Z17CalculateGlobalSM23TransformAccessReadOnlyRKN4math7_float4E
Kl:_emscripten_glLoadIdentity
gTa:__ZNSt3__26vectorINS_4pairIN4core12basic_stringIcNS2_20StringStorageDefaultIcEEEEPK17MessageIdentifierEENS_9allocatorISA_EEE26__swap_out_circular_bufferERNS_14__split_bufferISA_RSC_EEPSA_
a5d:_Decimal_op_GreaterThan_m1625379433
EMa:__Z29CullShadowCastersWithoutUmbraR9IndexListRK17CullingParametersPK4AABBjj
Q8b:__ZN5physx2Gu21sweepCapsuleTrianglesEjPKNS_10PxTriangleERKNS0_7CapsuleERKNS_6PxVec3EfPKjRNS_7PxFlagsINS_9PxHitFlag4EnumEtEERfRS7_SI_RjSI_SF_bPKNS0_3BoxE
Dp:__ZN4AABB8TransferI14SafeBinaryReadEEvRT_
FAa:_UNITY_png_destroy_info_struct
lAe:_NotImplementedException__ctor_m808189835
qne:_Int16_System_IConvertible_ToDecimal_m2010889121_AdjustorThunk
_fb:__ZN12MeshRenderer23VirtualRedirectTransferER19StreamedBinaryWriteILb0EE
fab:__ZN18StreamedBinaryReadILb0EE21TransferSTLStyleArrayI13dynamic_arrayI12LightmapDataLj4EEEEvRT_17TransferMetaFlags
aUb:__Z49Register_UnityEngine_MonoBehaviour_StartCoroutinev
oVa:__Z11MD5ToStringPh
vUf:_UTF8Encoding_GetPreamble_m4179999478
a0g:__Z117RuntimeInvoker_Void_t1841601450_Int64_t909078037_Il2CppObject_Il2CppObject_Int64_t909078037_Il2CppObject_Il2CppObjectPK10MethodInfoPvPS2_
Uhh:_ConnectionChangeEvent__ctor_m616483304
Gjc:__ZNK5physx2Sc14ConstraintCore13getBreakForceERfS2_
Nfc:__ZN5physx2Sc8ShapeSim21destroyLowLevelVolumeEv
oph:__ZN6il2cpp2vm5Class19GetArrayElementSizeEPK11Il2CppClass
$0f:_ValueType_InternalEquals_m4068150072
LB:__ZN9JSONWrite8TransferIN4core12basic_stringIcNS1_20StringStorageDefaultIcEEEEEEvRT_PKc17TransferMetaFlags
ITf:_UTF7Encoding_GetByteCount_m253528135
tud:__ZThn116_N5physx7profile8ZoneImplINS_28PxProfileNameProviderForwardEED1Ev
Qse:_FileNotFoundException_GetObjectData_m3405690481
$bi:__ZNSt3__212basic_stringIcNS_11char_traitsIcEENS_9allocatorIcEEE6resizeEjc
RKh:__ZNSt3__26vectorIN6il2cpp8metadata18GenericArrayMethodENS_9allocatorIS3_EEE26__swap_out_circular_bufferERNS_14__split_bufferIS3_RS5_EE
nOc:__ZN5physx2Sc8BodyCore17setAngularDampingEf
Vhb:__ZN14PlayerSettings16CheckConsistencyEv
oz:__ZN11AudioModule30GetOrCreateDSPFromCustomFilterEP17AudioCustomFilter
CBa:__ZN19AtomicPageAllocatorD2Ev
ln:FUNCTION_TABLE_viiiiiiiiiiiiii
end:__ZNK5physx2Gu12TriangleMesh24getTriangleMaterialIndexEj
Vvd:__ZN5physx6shdfnd5ArrayIPvNS0_19ReflectionAllocatorINS_24NpPtrTableStorageManager8PtrBlockILi64EEEEEE4copyINS0_15InlineAllocatorILj256ES7_EEEEvRKNS1_IS2_T_EE
tQh:__ZN6il2cpp6icalls8mscorlib6System13GlobalizationL20culture_lcid_locatorEPKvS5_
Ona:__ZN18GfxFramebufferGLES19ReadbackResolveMSAAEP17RenderSurfaceGLESS1_
kei:dynCall_vifiiiiiiiiiiiii
F5d:_DateTime_Parse_m1628430317
M7a:__ZNK12CubemapArray16ExtractImageImplEP14ImageReferenceNS0_8BlitModeEbi
$Tb:__Z63Register_UnityEngine_MonoBehaviour_StartCoroutine_Auto_Internalv
j5a:__ZN5Light8TransferI19StreamedBinaryWriteILb0EEEEvRT_
$Pb:__ZN10systeminfo24GetSystemLanguageCultureEi
oKd:_SecurityElement_IsValidAttributeName_m2201790420
fib:__ZN10VRSettings8TransferI14SafeBinaryReadEEvRT_
IZf:_UInt16_System_IConvertible_ToDecimal_m984067306_AdjustorThunk
Mld:__ZN5physx13BigConvexData15exportExtraDataERNS_22PxSerializationContextE
TOf:_Array_InternalArray__ICollection_Add_TisUInt16_t986882611_m2791161149_gshared
HEf:_Enumerator_Reset_m3115320746_gshared
Gje:_NumberFormatter_FormatDecimal_m1435371940
nCe:_SimpleCollator_GetTailContraction_m1037943844
eFd:_RC2CryptoServiceProvider_CreateEncryptor_m252199767
KBa:__ZN22PerThreadPageAllocator14AcquireNewPageEj
Ry:__ZN24AudioScriptBufferManager15DidReloadDomainEv
DIa:__ZN6Camera13ClearNoSkyboxEb
Dpe:_Int64_System_IConvertible_ToInt64_m989981560_AdjustorThunk
Vdc:__ZN5physx6shdfnd21atomicCompareExchangeEPViii
Ujh:_Rect_GetHashCode_m559954498
tbh:_Application_CallLowMemory_m626389230
bsh:__ZNK15dense_hashtableI10KeyWrapperIPK17Il2CppGenericInstES4_N6il2cpp8metadata21Il2CppGenericInstHashEN14dense_hash_setIS4_S7_NS4_14EqualsComparerINS6_24Il2CppGenericInstCompareEEENSt3__29allocatorIS4_EEE8IdentityESB_SE_E12test_deletedEj
YUd:_Array_combsort_m2486643569
gHc:__ZNK5physx2Sc9ClothCore26getNbParticleAccelerationsEv
$T:__ZNSt3__27__sort5IR17CompareInstanceIDPP6ObjectEEjT0_S6_S6_S6_S6_T_
F1a:__ZNSt3__26vectorI17SortingLayerEntryNS_9allocatorIS1_EEE12__move_rangeEPS1_S5_S5_
bia:__ZN18GfxFramebufferGLES10InvalidateEv
MDc:__ZN5physx7NpCloth16lockParticleDataENS_7PxFlagsINS_16PxDataAccessFlag4EnumEhEE
YKe:_SmallXmlParser_SkipWhitespaces_m2923234398
Rce:_Decimal_System_IConvertible_ToSingle_m1736019752_AdjustorThunk
ola:__ZN4crnd11crnd_deleteINS_13prefix_coding14decoder_tablesEEEvPT_
eM:__ZN10MemoryPoolD2Ev
Wzg:_GCHandle__ctor_m2952050298_AdjustorThunk
buc:__ZN5physx7NpActor13getOwnerSceneERKNS_7PxActorE
xXe:_SslClientStream_get_SelectedClientCertificate_m1580018944
l4c:__ZN5physx18PxcNpThreadContextC2EfffRKNS_2Cm12RenderOutputERNS_17PxcNpMemBlockPoolEb
V5d:_DateTime_FromTicks_m75527956
hGe:_KeyGeneratedEventHandler_Invoke_m4220935979
$1c:__ZN5physx2Cm12DelegateTaskINS_13PxsCCDContextEXadL_ZNS2_14postCCDAdvanceEPNS_10PxBaseTaskEEEE11runInternalEv
Eba:__ZN15dense_hashtableINSt3__24pairIKiPKN11AssetBundle9AssetInfoEEEi21InstanceIDHashFunctorN14dense_hash_mapIiS6_S8_NS0_8equal_toIiEE13stl_allocatorIS7_L18MemLabelIdentifier65ELi16EEE9SelectKeyESB_SE_E12resize_deltaEjj
see:_DebuggerTypeProxyAttribute__ctor_m3082078467
Lai:___mmap
Ymd:__ZN5physx2Gu12TriangleMeshD0Ev
XF:__ZL18InternalLogConsolePKcz
L9h:_lseek
vZe:_AuthorityKeyIdentifierExtension_Decode_m1941074339
Yx:__ZN11AudioSource16UpdatePauseStateEv
ET:__ZL52StaticUnregisterSceneLoadedCallback_LightmapSettingsPv
bUb:__Z48Register_UnityEngine_MonoBehaviour_StopCoroutinev
z$e:_RemoteCertificateValidationCallback_Invoke_m2237177542
oEc:__ZN5physx7NpCloth24setParticleAccelerationsEPKNS_6PxVec4E
D_e:_NameObjectCollectionBase_BaseAdd_m964300824
EKf:_Array_InternalArray__ICollection_Contains_TisKeyValuePair_2_t1174980068_m650645929_gshared
NHa:__ZN27DeviceViewProjMatricesStateD2Ev
X0g:__Z189RuntimeInvoker_Int32_t2071877448_Il2CppObject_Int32_t2071877448_Int32_t2071877448_Il2CppObject_Int32_t2071877448_SByte_t454417549_Int32U26_t455636984_BooleanU26_t3168250738_SByte_t454417549PK10MethodInfoPvPS2_
llc:__ZN5physx6shdfnd5ArrayINS_19PxsArticulationLinkENS0_19ReflectionAllocatorIS2_EEE8recreateEj
jGd:_RNGCryptoServiceProvider_RngOpen_m2238023214
$jf:_CustomAttributeData_GetCustomAttributes_m4124612360
ftb:__Z18Transfer_BlittableI24GenerateTypeTreeTransferLb0E8Vector3fEvRK29SerializationCommandArgumentsR31RuntimeSerializationCommandInfo
LFg:_MethodDictionary_CopyTo_m1721788774
yMh:__ZN6il2cpp2vm6Thread16RequestInterruptEP12Il2CppThread
mZe:_TlsStream_get_Position_m3551173234
tCg:_LeaseManager_SetPollTime_m3137304074
zE:__ZNK3WWW6IsDoneEv
Q1d:_Hashtable_CalcPrime_m1835281409
f:HEAPU32
qjh:_Physics_RaycastAll_m3928448900
ARa:__ZN6prcoreL10inner_flipILj2EEEvPhS1_j
yof:_TypeBuilder_has_ctor_method_m3449702467
fAa:_UNITY_png_text_compress
DXb:__ZN9JSONWrite8TransferIbEEvRT_PKc17TransferMetaFlags
sUd:_Array_CreateInstance_m679102425
YWa:__ZN12TLSAllocatorI14StackAllocatorED0Ev
dhb:__ZN11TimeManager16CheckConsistencyEv
lsd:__ZN8ColliderD0Ev
hjc:__ZN5physx3Scb5Scene12addRigidBodyERNS0_4BodyEb
$Ea:__ZN21GfxDeviceAsyncCommand10ArgScratch15ThreadedCleanupEv
zji:_emscripten_glDeleteTextures__wrapper
ZBe:_MSCompatUnicodeTable_IsJapaneseSmallLetter_m2541532635
sMe:_BigInteger_GenerateRandom_m1878468830
Jsb:__ZN12NativeBufferI27Converter_UnityEngineObjectE15SetupForWritingER9ArrayInfo
gBe:_ObsoleteAttribute__ctor_m834417715
je:_glTexImage3D
Dz:__Z20RegisterModule_Audiov
ZRe:_TlsCipherSuite__ctor_m2983563913
i6b:__ZNK5physx2Gu17ShrunkConvexHullV10planeShiftEjRKNS_6shdfnd3aos6FloatVE
qbd:__ZN5physx2GuL35fullContactsGenerationCapsuleConvexERKNS0_8CapsuleVERKNS0_11ConvexHullVERKNS_6shdfnd3aos15PsMatTransformVERKNS8_12PsTransformVESE_PNS0_17PersistentContactERjRNS0_13ContactBufferEbRNS0_25PersistentContactManifoldERNS8_5Vec3VERKNS8_6FloatVEb
Gpc:__ZNK5physx14PxArticulation19getConcreteTypeNameEv
Oia:__ZNK13TranslateGLES13BlendEquationE7BlendOp
U7c:__ZN3MBP17populateNewRegionERK5IAABB
Ym:FUNCTION_TABLE_vifiiiiiiiiiiiii
yXh:__ZNK6il2cpp5utils11StringUtils21CaseSensitiveComparerclEPKcS4_
se:_JS_SystemInfo_GetCurrentCanvasWidth
FQb:__ZL34GetComponentsImplementationRecurseILb1ELi0ELi1EEbR10GameObjectbRK17CompareParametersRK39GetComponentsImplementation_ReturnValue
hQh:__ZN6il2cpp2vm14PlatformInvoke30MarshalCSharpStringToCppStringEP12Il2CppString
KYf:_Type_GetTypeHandle_m2405042843
xac:__Z11raycast_boxRKN5physx10PxGeometryERKNS_11PxTransformERKNS_6PxVec3ES8_fNS_7PxFlagsINS_9PxHitFlag4EnumEtEEjPNS_12PxRaycastHitEbPFbRSD_PvESG_
xib:__ZN10VRSettings8TransferI18StreamedBinaryReadILb0EEEEvRT_
Pzf:_InternalEnumerator_1_System_Collections_IEnumerator_get_Current_m1322273508_AdjustorThunk
TQd:_DecoderFallbackException__ctor_m3081822699
cqe:_Int64_TryParse_m3093198325
ycb:__ZN6Sprite8TransferI14SafeBinaryReadEEvRT_
_vb:__Z19TransferField_ArrayI19StreamedBinaryWriteILb0EE27Converter_SimpleNativeClassI8GradientEEvRK23StaticTransferFieldInfoR31RuntimeSerializationCommandInfoRT0_
Lse:_FileLoadException_ToString_m319701103
MDb:__ZN24GenerateTypeTreeTransfer8TransferINSt3__26vectorIN9ShaderLab20SerializedSubProgram15VectorParameterENS1_9allocatorIS5_EEEEEEvRT_PKc17TransferMetaFlags
hZb:__Z18Transfer_BlittableI8JSONReadLb0E12PropertyNameEvRK29SerializationCommandArgumentsR31RuntimeSerializationCommandInfo
Vgc:__ZN5physx6shdfnd4sortIPvNS0_4LessIS2_EENS0_19ReflectionAllocatorINS_2Sc26ActorPairContactReportDataEEEEEvPT_jRKT0_RKT1_j
Mde:_Delegate_SetMulticastInvoke_m361277268
xRd:_EncoderReplacementFallbackBuffer_get_Remaining_m2777488845
Xcb:__ZN7SubMesh8TransferI18StreamedBinaryReadILb0EEEEvRT_
A$a:__ZN21AssetBundleFileSystem4NameEv
v7b:__ZN5physx2Gu14sweepBoxSphereERKNS0_3BoxEfRKNS_6PxVec3ES6_fRfRS4_NS_7PxFlagsINS_9PxHitFlag4EnumEtEE
o5a:__ZN15SharedLightData17MainThreadCleanupEv
nUf:_UTF8Encoding_GetCharCount_m3557355060
tzf:_InternalEnumerator_1_System_Collections_IEnumerator_get_Current_m127456009_gshared
Ye:_emscripten_glIsEnabled
Hxb:__ZN18StreamedBinaryReadILb1EE21TransferSTLStyleArrayI13dynamic_arrayIdLj8EEEEvRT_17TransferMetaFlags
Xff:_CodeAccessPermission_Element_m806857876
IO:__Z29scripting_class_instance_size17ScriptingClassPtr
ZXe:_SslHandshakeHash_initializePad_m4132246594
D4e:_X509CertificateCollection_get_Item_m848456018
HD:__ZN11UnityEngine15CloudWebService19SessionEventManager26ProcessEventQueueJobStaticEPv
jwg:_AnchorInfo_get_IsUnknownWidth_m3747592836
hgc:__ZN5physx6shdfnd8PoolBaseINS_2Sc24ElementInteractionMarkerENS0_19ReflectionAllocatorIS3_EEE17releaseEmptySlabsEv
s5g:__Z101RuntimeInvoker_OpFlags_t378191910_SByte_t454417549_SByte_t454417549_SByte_t454417549_SByte_t454417549PK10MethodInfoPvPS2_
FEc:__ZN5physx7NpCloth21removeCollisionSphereEj
pX:__ZN10builtintex15GetWhiteTextureEv
fcf:_FormatterConverter_ToInt32_m1004171952
YU:__Z29GetOcclusionPortalManagerListv
xTd:_Array_System_Collections_IList_set_Item_m4290470392
Laf:_RemotingConfiguration_RegisterActivatedServiceType_m4003543022
g9c:__ZN5physx2Cm12DelegateTaskINS_10PxsContextEXadL_ZNS2_23prepareCMDiscreteUpdateEPNS_10PxBaseTaskEEEE11runInternalEv
mCg:_ConfigHandler_GetNotNull_m2454680251
Rmh:__ZL10rescale128PyS_Piiiii
at:__ZN9AudioClip7WWWSeekEPvjS0_
Clc:__ZN5physx2Sc15ArticulationSimD2Ev
fLf:_Array_InternalArray__ICollection_Contains_TisUInt32_t2149682021_m672455245_gshared
p0f:_UIntPtr_System_Runtime_Serialization_ISerializable_GetObjectData_m3481735378
nS:__ZL32StaticInitializeIUnityInterfacesPv
xEa:__Z13CameraProjectRK8Vector3fRK10Matrix4x4fS4_RK5RectTIiERS_b
jkb:__ZN30RuntimeInitializeOnLoadManager15ClassMethodInfo8TransferI19StreamedBinaryWriteILb0EEEEvRT_
tL:__Z22CreateMutexLockedStackv
V7e:_IntervalCollection_get_Item_m1667788970
kud:__ZN5physx7profile8ZoneImplINS_28PxProfileNameProviderForwardEE7releaseEv
Mca:__ZNSt3__27__sort5IRNS_4lessIN22BuiltinResourceManager8ResourceEEEPS3_EEjT0_S7_S7_S7_S7_T_
ju:__Z27GetAudioScriptingClassesPtrv
$Rd:_Latin1Encoding_GetByteCount_m2812921286
uya:__ZN9ShaderLab11ShaderStateD2Ev
zce:_Decimal_System_IConvertible_ToByte_m3432160840
Fac:__ZN5physxmlERKNS_11PxMeshScaleERKNS_11PxTransformE
Z3e:_X509Chain_GetAuthorityKeyIdentifier_m4246284366
CTf:_UTF7Encoding__ctor_m1941256679
Hnb:__Z23TransferScriptingObjectI24GenerateTypeTreeTransferEvRT_18ScriptingObjectPtr17ScriptingClassPtrPK15MonoScriptCache
icf:_BinaryCommon__cctor_m3619690968
tji:_emscripten_longjmp__wrapper
gTg:_X509Chain_FindCertificateRoot_m589250107
bAa:_UNITY_png_write_iTXt
Exe:_UnmanagedMemoryStream_Flush_m3305300000
Gvb:__ZL17Transfer_GUIStyleI19StreamedBinaryWriteILb0EELb0EEvRK29SerializationCommandArgumentsR31RuntimeSerializationCommandInfo
f1g:__Z248RuntimeInvoker_Int32_t2071877448_Il2CppObject_Int32_t2071877448_Int32_t2071877448_Il2CppObject_Int32_t2071877448_UInt32U26_t2197289955_UInt32U26_t2197289955_Il2CppObject_DecoderFallbackBufferU26_t3597875002_ByteU5BU5DU26_t790777611_SByte_t454417549PK10MethodInfoPvPS2_
jmh:_UnityString_Format_m2949645127
w1d:_Comparer_GetObjectData_m3370677985
zQg:_UnityEvent_4_GetDelegate_m2704961864_gshared
Gva:__ZNK12HandlerChain6TargetERK13FileEntryDataR15FileSystemEntry
rYc:__ZNK5physx2Sc15ArticulationSim10isSleepingEv
cdf:_ObjectManager_RaiseOnDeserializingEvent_m1841526046
yPd:_String_CreateString_m560359261
bhf:_DSA_ToXmlString_m1014346120
X8h:___shlim
OHd:_SHA256Managed__ctor_m1410575277
lie:_CompareInfo_internal_index_managed_m859405335
CWd:_Boolean_System_IConvertible_ToDateTime_m2613818037_AdjustorThunk
pvh:__ZNSt3__211__tree_nextIPNS_16__tree_node_baseIPvEEEET_S5_
XSh:__ZN15dense_hashtableI10KeyWrapperIP18Il2CppGenericClassES3_N6il2cpp8metadata22Il2CppGenericClassHashEN14dense_hash_setIS3_S6_NS3_14EqualsComparerINS5_25Il2CppGenericClassCompareEEENSt3__29allocatorIS3_EEE8IdentityESA_SD_E14squash_deletedEv
e5:__ZN6prcoreL17RemapGenericFloatI17TexFormatRGBAHalf17TexFormatRGBFloatEEvPKNS_9InnerInfoE
ucf:_BinaryFormatter_NoCheckDeserialize_m1968202401
Mki:_pthread_cond_wait__wrapper
r$b:__ZN9rapidjson12PrettyWriterI16TempBufferWriterNS_4UTF8IcEES3_13JSONAllocatorE10StartArrayEv
dsh:__ZNSt3__26__sortIRN6il2cpp5utils11collections13ArrayValueMapIPK10Il2CppType17Il2CppInteropData26InteropDataToTypeConverterNS1_8metadata14Il2CppTypeLessENSA_26Il2CppTypeEqualityComparerEE12SortComparerEPS8_EEvT0_SH_T_
Rnb:__ZN11PreloadDataD2Ev
Rb:invoke_iifi
sad:__ZN5physx2Gu31SinglePersistentContactManifold20refreshContactPointsERKNS_6shdfnd3aos15PsMatTransformVERKNS3_6FloatVES9_
Q6f:__ZL79Hashtable_t909839986_CustomAttributesCacheGenerator_Hashtable__ctor_m3742489710P21CustomAttributesCache
ohh:_Mathf_Abs_m1942863256
HJf:_EqualityComparer_1_System_Collections_IEqualityComparer_Equals_m1565968086_gshared
mMh:__ZN6il2cpp2vmL24thread_cleanup_on_cancelEPv
zUc:__ZN5physx7NpScene15getRenderBufferEv
$4a:__ZN15SharedLightData15UpdateTransformERK9Transform
AFd:_RijndaelTransform__cctor_m1393306207
kZf:_Type_MakeGenericType_m973683242
j7h:__ZN6il2cpp2vm9LastError31InitializeLastErrorThreadStaticEv
PJb:__ZN13ProduceHelperI13RenderTextureLb0EE7ProduceE18MemLabelIdentifier18ObjectCreationMode
lqe:_Int64_ToString_m2785525583
_t:__ZN11AudioSource31UpdateEffectVirtualizationStateEb
Orf:_MonoGenericCMethod__ctor_m2520666358
$g:_JS_SystemInfo_GetCurrentCanvasHeight
P8e:_ReturnMessage_get_OutArgs_m299904174
Pyd:__ZN25PostFilteredUserCollector10postFilterERKN5physx12PxFilterDataERKNS0_10PxQueryHitE
oIe:_RSAManaged_get_PublicOnly_m2603845138
Pce:_Decimal_System_IConvertible_ToSByte_m3745141000_AdjustorThunk
pSc:__ZN5physx2Sc19ShapeInstancePairLL10onActivateEj
PYh:__ZN6il2cpp2gc16GarbageCollector11GetWeakLinkEPPv
sze:_MonoType_GetMethods_m353342170
GE:__ZN13EmscriptenWWW23HasDownloadedOrMayBlockEv
dYh:__GLOBAL__sub_I_Console_cpp
W4:__ZN6prcoreL17RemapGenericFloatI14TexFormatRHalf17TexFormatRGBAHalfEEvPKNS_9InnerInfoE
xzh:__ZN6il2cpp2vm7Runtime11InvokeArrayEPK10MethodInfoPvP11Il2CppArrayPP15Il2CppException
LNb:__ZNK10GameObject23QueryComponentTransformEv
fle:_GregorianCalendar_get_Eras_m4010603022
kge:_Enum_System_IConvertible_ToUInt16_m1001858842
R3b:__ZN5physx2Gu18contactCapsuleMeshERKNS0_13GeometryUnionES3_RKNS_11PxTransformES6_RKfRNS0_5CacheERNS0_13ContactBufferE
nHf:_Dictionary_2_make_pair_m394533803_gshared
oJ:__GLOBAL__sub_I_runtime_utilities3_lump_cpp
_r:__ZN9AudioClip23VirtualRedirectTransferER14SafeBinaryRead
Xbd:__ZN5physx24PxsParticleSystemBatcherC2ERNS_10PxsContextE
p$c:__ZN5physx11EdgeManagerD0Ev
moa:__ZN4gles20EnsureTextureCreatedEP7ApiGLESP17RenderSurfaceGLES
rFa:__ZN15ReplacementPass13PrepareSubsetEjRK10RenderNodeifRK17ShaderReplaceData
Qce:_Decimal_System_IConvertible_ToSingle_m1736019752
bx:__Z32AudioMeasurement_GetTimeConstantff
qza:_UNITY_png_compress_IDAT
U$h:__ZN6il2cpp8metadata11FieldLayout12LayoutFieldsEjjjRKNSt3__26vectorIPK10Il2CppTypeNS2_9allocatorIS6_EEEERNS1_15FieldLayoutDataE
srg:__ZL54ContextMenu_t2283362202_CustomAttributesCacheGeneratorP21CustomAttributesCache
dNa:__ZL27PrepareSceneNodesJobCombineP25ScheduleSceneNodesJobData
Lte:_Stream_EndWrite_m263497992
IZd:_Char_Parse_m2121403806
uTe:_ClientSessionCache_SetContextInCache_m907788136
wU:__ZN18AsyncUploadManager13StaticDestroyEPv
Qlf:_EnumBuilder_GetConstructorImpl_m331611313
YAb:__ZN6Shader7SetNameEPKc
RKc:__ZN5physx23NpParticleFluidReadData18setDataAccessFlagsENS_7PxFlagsINS_16PxDataAccessFlag4EnumEhEE
mSa:__ZN19CustomRenderTexture22HandleBoundaryWrappingERKNS_14UpdateZoneInfoEj
nw:__ZL50UnityAudioEffect_InternalSetFloatParameterCallbackP14FMOD_DSP_STATEif
lvh:__ZN6il2cpp2vm13MetadataCache32GenerateCustomAttributeTypeCacheEi
S4e:_X509Chain__cctor_m826131835
Ihc:__ZN5physx6shdfnd5ArrayIPvNS0_15InlineAllocatorILj256ENS0_19ReflectionAllocatorINS_2Sc24ElementInteractionMarkerEEEEEE15growAndPushBackERKS2_
vVd:_ArrayTypeMismatchException__ctor_m1923871345
ygf:_CspParameters__ctor_m3051314030
ldd:__ZN5physx2Sc5Scene9solveStepEPNS_10PxBaseTaskE
Udd:__ZN5physx2Sc8ClothSim18addCollisionConvexEPKNS0_8ShapeSimE
$3e:_X509ChainElement_Set_m2634474339
yWd:_Boolean_System_IConvertible_ToByte_m1443044213_AdjustorThunk
ui:_glClearDepthf
FGb:__ZN19RuntimeSceneManager14GetActiveSceneEv
_0c:__ZN15AABBTreeOverlapIN5physx2Gu14SphereAABBTestEEclEPNS0_2Sq13PrunerPayloadERKNS4_8AABBTreeERKS2_RNS4_14PrunerCallbackE
YAh:__ZN6il2cpp6icalls8mscorlib6SystemL8IsStaticEPK9EventInfo
t1e:_WebRequest__ctor_m1537196628
HJe:_X509ExtensionCollection__ctor_m2745210602
Q0e:_ServicePointManager_get_CertificatePolicy_m345233313
B5a:__ZN14SafeBinaryRead21TransferSTLStyleArrayI13dynamic_arrayI19LightProbeOcclusionLj4EEEEvRT_17TransferMetaFlags
JOb:__ZN19StreamedBinaryWriteILb0EE4InitE24TransferInstructionFlags20BuildTargetSelection
IWe:_RecordProtocol_MapV2CipherCode_m4064211604
kQd:_ASCIIEncoding_GetByteCount_m2696039881
j2:__ZNSt3__27__sort4IRPFbRKNS_4pairIN9ShaderLab16FastPropertyNameE10ColorRGBAfEES7_EPS5_EEjT0_SC_SC_SC_T_
j7c:__ZN5physx16PxsBroadPhaseMBPD2Ev
vWe:_ReceiveRecordAsyncResult_SetComplete_m2441107665
k6a:__ZN20SphericalHarmonicsL28TransferI19StreamedBinaryWriteILb0EEEEvRT_
wfb:__ZN4Mesh14UploadMeshDataEb
oTc:__ZN5physx7NpScene9addActorsEPKPNS_7PxActorEj
ULa:__ZN14qsort_internal5QSortIP16RenderObjectDatai25RenderPrePassObjectSorterEEvT_S4_T0_T1_
hmc:__ZN5physx2Sc8ShapeSimD0Ev
SLe:_ArgIterator_Equals_m2415994310
TJb:__ZN14RenderSettings12CleanupClassEv
Kn:FUNCTION_TABLE_iiiiiiiiiiffffii
nga:__ZN9GfxDevice15ImmediateNormalEfff
Zvc:__ZN5physx7NpActor7releaseERNS_7PxActorE
BRd:_EncoderReplacementFallbackBuffer_GetNextChar_m1811006007
v6g:__Z69RuntimeInvoker_Void_t1841601450_Single_t2076509932_Single_t2076509932PK10MethodInfoPvPS2_
eRa:__ZN15SerializeTraitsI13dynamic_arrayIN10GameObject13ComponentPairELj4EEE19ResizeSTLStyleArrayERS3_i18MemLabelIdentifier
OIf:_Dictionary_2_Add_m1708621268_gshared
BQ:__ZN20dynamic_block_vectorI14FileIdentifierE22push_back_no_constructEv
Y8:__ZN9Texture3D23VirtualRedirectTransferER14SafeBinaryRead
QJd:_StringBuilder_Append_m1462406979
ACb:__ZNSt3__26vectorIN9ShaderLab20SerializedSubProgram16TextureParameterENS_9allocatorIS3_EEE8__appendEj
i9a:__ZN9Texture2D13UploadTextureEi
FYf:_Type_GetType_m773255995
Nja:__ZN7ApiGLES9MapBufferEjN2gl12BufferTargetEllj
xw:__ZN4FMOD6System19setSoftwareChannelsEi
bRf:_Array_InternalArray__set_Item_TisResourceCacheItem_t333236149_m2074358118_gshared
_fd:__ZN5physx38PxsSolverCreateFinalizeConstraintsTask11runInternalEv
uNd:_Single_CompareTo_m2081476257_AdjustorThunk
ndi:_bitshift64Lshr
D2e:_X500DistinguishedName_DecodeRawData_m3640767187
dXd:_Boolean_System_IConvertible_ToUInt64_m3594533761
pHf:_Dictionary_2_Resize_m2807616086_gshared
arg:__ZL51Collider_t3497673348_CustomAttributesCacheGeneratorP21CustomAttributesCache
MLg:_Collection_1_set_Item_m4170293313_gshared
DDe:_BigInteger_get_Rng_m1268152318
Lei:dynCall_viiiii
qrc:__ZN5physx19NpArticulationJoint20setTargetOrientationERKNS_6PxQuatE
mrf:_MonoEvent_IsDefined_m3151861274
CSe:_TlsStream_WriteInt24_m1660453494
lSb:__Z44Register_UnityEngine_Camera_get_farClipPlanev
rkb:__ZNK17IAnimationBinding30CurveAttributeToSerializedPathERKN11UnityEngine9Animation10BoundCurveE
TWh:__ZN6il2cpp2gc16GarbageCollector14GetOrCreateCCWEP12Il2CppObjectRK10Il2CppGuid
UUh:__ZN6il2cpp2vm5Image21FromTypeNameParseInfoEPK11Il2CppImageRKNS0_17TypeNameParseInfoEb
WXa:__ZNK5Unity9Component7GetNameEv
Dja:__ZN17BufferManagerGLES13AcquireBufferEjN14DataBufferGLES11BufferUsageEb
y4d:_Console_OpenStandardError_m3676373108
Dxe:_UnmanagedMemoryStream_SetLength_m1805321486
bAh:__ZNK6il2cpp5utils10functional6FilterINSt3__212basic_stringIcNS3_11char_traitsIcEENS3_9allocatorIcEEEENS0_11StringUtils23CaseInsensitiveComparerEEclIPKcEEbRKT_
GTe:_Context_get_ProtocolNegotiated_m624488778
pVd:_SimpleEnumerator_MoveNext_m1696906961
CCd:__ZN16UnityAdsSettingsD0Ev
tUe:_Context_StartSwitchingSecurityParameters_m373522596
Ysf:_MonoProperty_GetRequiredCustomModifiers_m576853384
jyg:_Uri_ParseAsWindowsAbsoluteFilePath_m1108586962
GNf:_Array_InternalArray__IndexOf_TisInt16_t4041245914_m1619355230_gshared
T6c:__ZN3MBP5resetEv
Yci:__ZNK10__cxxabiv121__vmi_class_type_info16search_below_dstEPNS_19__dynamic_cast_infoEPKvib
spe:_Int64_System_IConvertible_ToDateTime_m1002280174
gPc:__ZN5physx20NpRigidActorTemplateINS_13PxRigidStaticEE13setActorFlagsENS_7PxFlagsINS_11PxActorFlag4EnumEtEE
s5d:_Convert_ToByte_m9159597
mGb:__ZN9Transform16CheckConsistencyEv
lwd:__ZN5physx2Gu12TriangleMesh18setupMeshInterfaceEv
Lje:_NumberFormatter_FormatPercent_m776769918
MBh:_il2cpp_class_has_attribute
sWf:_Scheduler_ShrinkIfNeeded_m2186823111
yQe:_Alert_get_IsCloseNotify_m577852330
fP:__Z27FindOrCreateMonoScriptCache17ScriptingClassPtr22InitScriptingCacheTypeP6Objecti
Oyb:__Z18Transfer_BlittableI18StreamedBinaryReadILb0EELb1E8Vector3fEvRK29SerializationCommandArgumentsR31RuntimeSerializationCommandInfo
Eei:dynCall_viiiiiiiiii
WBc:__ZN5physx7NpShape23setSimulationFilterDataERKNS_12PxFilterDataE
vP:__Z35scripting_method_get_argument_count18ScriptingMethodPtr
EZf:_UInt16_System_IConvertible_ToChar_m4055364664_AdjustorThunk
mfd:__ZN5physx16PxsIslandManager27setWokenPairContactManagersEv
z0a:__ZN21ArchiveStorageCreator11StoreStreamEb
oJh:__ZN14dense_hash_mapI10KeyWrapperINSt3__24pairIPK9FieldInfoP11Il2CppClassEEEj17ReflectionMapHashIS8_ENS9_14EqualsComparerINS1_8equal_toIS8_EEEENS1_9allocatorINS2_IKS9_jEEEEE15set_deleted_keyERSH_
U4a:__ZN5Light23VirtualRedirectTransferER19StreamedBinaryWriteILb0EE
NXd:_Byte_System_IConvertible_ToDouble_m4224320007
hNa:__ZL21CullDynamicObjectsJobP14CullingJobDataj
m0e:_IPAddress_ToString_m1462985652
D5d:_Convert_ToDateTime_m261774113
GGb:__ZN9TransformD2Ev
aqf:_MethodBase_GetMethodFromHandleNoGenericCheck_m4274264088
rFf:_Enumerator_get_CurrentKey_m1408186928_AdjustorThunk
ZSa:__ZN14ManagerContext17InitializeClassesEv
wZa:__ZN19StreamedBinaryWriteILb0EE21TransferSTLStyleArrayINSt3__26vectorI14ConstantStringNS2_9allocatorIS4_EEEEEEvRT_17TransferMetaFlags
uxb:__ZN18StreamedBinaryReadILb1EE21TransferSTLStyleArrayI31ArrayOfManagedObjectsTransfererEEvRT_17TransferMetaFlags
Lzc:__ZN5physx10NpMaterial14onRefCountZeroEv
wvd:__ZN5physx13GuMeshFactory14addHeightFieldEPNS_2Gu11HeightFieldEb
Ykc:__ZN5physx6shdfnd8PoolBaseINS_2Cm5BlockIhLj128EEENS0_19ReflectionAllocatorIS4_EEE12allocateSlabEv
cEc:__ZN5physx7NpCloth26setCentrifugalInertiaScaleENS_6PxVec3E
X_c:__ZN5physx11PxcPoolListINS_17PxsContactManagerENS_10PxsContextEE7destroyEv
E1f:_WeakReference_get_Target_m1672141897
iEe:_Kernel_DwordDivMod_m4066997639
Fai:_access
yJd:_X509Certificate_GetCertHash_m2299453268
DEd:_MD5CryptoServiceProvider__ctor_m457716966
x7d:_Decimal_s64_m2965457432
l7e:_IntStack_set_Count_m2324758988_AdjustorThunk
Ujd:__ZN5physx13NpClothFabric4loadERKNS_17PxClothFabricDescE
qv:__ZN4FMOD7Channel11getUserDataEPPv
Yl:_JS_Sound_SetPitch
yCh:_il2cpp_runtime_invoke_convert_args
f_b:__Z19TransferField_ArrayI8JSONRead27Converter_SimpleNativeClassI10RectOffsetEEvRK23StaticTransferFieldInfoR31RuntimeSerializationCommandInfoRT0_
DSe:_Context_get_SecurityProtocol_m1600902905
SQh:__ZN6il2cpp6icalls8mscorlib6System2IO6MonoIO11GetFileStatEP12Il2CppStringPNS3_8FileStatEPi
_Oc:__ZN5physx13NpRigidStaticD0Ev
tFa:__ZNK9ShaderLab9IntShader6GetTagE11ShaderTagIDb
HKa:__Z25CalculateShadowCasterCullbPK5PlaneRK10Matrix4x4fRK8Vector3fff9LightTypeS7_R16ShadowCasterCullPKb
Q2e:_X509BasicConstraintsExtension_CopyFrom_m1321548708
Whf:_HMAC_HashCore_m1869699062
Gif:_Assembly_GetTypes_m1317253146
o6a:__ZN11Tetrahedron8TransferI19StreamedBinaryWriteILb0EEEEvRT_
Ene:_Int16_System_IConvertible_ToType_m2901377575_AdjustorThunk
Fpe:_Int64_System_IConvertible_ToSByte_m253213816_AdjustorThunk
wse:_FileStream__ctor_m3815606687
q1h:_GC_freehblk
pje:_NumberFormatter_NumberToString_m668979517
lDh:__ZN30dense_hashtable_const_iteratorINSt3__24pairIK10KeyWrapperINS1_IPK14Il2CppAssemblyP11Il2CppClassEEEjEES9_17ReflectionMapHashIS8_EN14dense_hash_mapIS9_jSD_NS9_14EqualsComparerINS0_8equal_toIS8_EEEENS0_9allocatorISB_EEE9SelectKeyESI_SK_EppEv
QQb:__ZN9Scripting35DestroyObjectFromScriptingImmediateEP6Objectb
C4g:__Z93RuntimeInvoker_Il2CppObject_Byte_t3683104436_Il2CppObject_Int32_t2071877448_Int32_t2071877448PK10MethodInfoPvPS2_
$9e:_RemotingServices_GetRemoteObject_m3663391550
eRc:__ZN5physx2Sc27ConstraintProjectionManager21processPendingUpdatesERNS_19PxcScratchAllocatorE
QDb:__ZN24GenerateTypeTreeTransfer8TransferINSt3__26vectorIN9ShaderLab20SerializedSubProgram12UAVParameterENS1_9allocatorIS5_EEEEEEvRT_PKc17TransferMetaFlags
hc:invoke_iiiiiiiiiiiiiii
a9b:__ZN5physx2Gu23computePlane_CapsuleMTDERKNS_7PxPlaneERKNS0_7CapsuleERNS_10PxSweepHitE
n_h:__ZN6il2cpp2os6Thread33UnregisterCurrentThreadForCleanupEv
Cni:_emscripten_glIsRenderbuffer__wrapper
hfe:_Double_System_IConvertible_ToInt32_m549769450_AdjustorThunk
Oac:__ZThn4_N16RayRTreeCallbackILi0ELb1EED0Ev
aad:__ZN5physx22PxcPCMContactSphereBoxERKNS_2Gu13GeometryUnionES3_RKNS_11PxTransformES6_RKfRNS_10PxcNpCacheERNS0_13ContactBufferE
Tbb:__ZN15QualitySettings8TransferI14SafeBinaryReadEEvRT_
Pph:__ZN14dense_hash_mapI10KeyWrapperIPK11Il2CppClassEPKcN6il2cpp5utils11PointerHashIS1_EENS4_14EqualsComparerINSt3__28equal_toIS3_EEEENSC_9allocatorINSC_4pairIKS4_S6_EEEEE13set_empty_keyERSI_
ame:_TextInfo__ctor_m2782608694
QD:__ZN11UnityEngine15CloudWebService17WebFileDownloaderINS0_13WWWRestClientENS0_16WWWRestHeaderMapEE10InitializeERKN4core12basic_stringIcNS5_20StringStorageDefaultIcEEEESB_SB_
owe:_StringReader_CheckObjectDisposedException_m3099453260
rSc:__ZThn8_N5physx2Sc19ShapeInstancePairLL10initializeEv
XZe:_ListDictionary_System_Collections_IEnumerable_GetEnumerator_m2244736244
dVh:__ZNSt3__26vectorIN6il2cpp2vm5Image20EmbeddedResourceDataENS_9allocatorIS4_EEE21__push_back_slow_pathIS4_EEvOT_
pNf:_Array_IndexOf_TisCustomAttributeTypedArgument_t1498197914_m3666284377_gshared
KEe:_Kernel_AddSameSign_m2332657679
rO:__ZN14SerializedFile10ReadObjectEx18ObjectCreationModebPPK8TypeTreePbR6Object
MKg:_Collection_1_System_Collections_IList_IndexOf_m3460849589_gshared
Qca:__ZN14dynamic_bitset6resizeEjb
Qph:__ZN14dense_hash_mapI10KeyWrapperIPK11Il2CppClassEPKcN6il2cpp5utils11PointerHashIS1_EENS4_14EqualsComparerINSt3__28equal_toIS3_EEEENSC_9allocatorINSC_4pairIKS4_S6_EEEEE15set_deleted_keyERSI_
aea:__ZN9GfxDevice34SetStencilRefWhenStencilWasSkippedEi
iud:__ZNK5physx7profile8ZoneImplINS_28PxProfileNameProviderForwardEE10hasClientsEv
XAd:__ZN11UnityEngine7Connect13ConnectConfig20RestoreTimeoutConfigERK13dynamic_arrayIiLj4EEjRS3_
ib:invoke_fi
ySf:_Array_InternalArray__get_Item_TisDecimal_t724701077_m4156246600_gshared
WF:__ZL21InternalAssertConsolePKcz
ec:invoke_ff
AGc:__ZNK5physx2Sc9ClothCore19getVirtualParticlesEPj
sd:_emscripten_glVertexAttrib3f
JFh:__ZN30dense_hashtable_const_iteratorINSt3__24pairIK10KeyWrapperINS1_IPK11Il2CppImageP11Il2CppClassEEEjEES9_17ReflectionMapHashIS8_EN14dense_hash_mapIS9_jSD_NS9_14EqualsComparerINS0_8equal_toIS8_EEEENS0_9allocatorISB_EEE9SelectKeyESI_SK_EppEv
rZd:_Char_CompareTo_m3044885427
xpd:__ZN5physx20BigConvexDataBuilder10PrecomputeEj
kGc:__ZNK5physx2Sc9ClothCore18getNbRestPositionsEv
Wxf:_InternalEnumerator_1_get_Current_m198513457_gshared
ahi:_emscripten_glDrawRangeElements__wrapper
Jth:__ZN15dense_hashtableINSt3__24pairIK10KeyWrapperIPK11Il2CppClassEPKcEES6_N6il2cpp5utils11PointerHashIS3_EEN14dense_hash_mapIS6_S9_SE_NS6_14EqualsComparerINS0_8equal_toIS5_EEEENS0_9allocatorISA_EEE9SelectKeyESJ_SL_E15insert_noresizeERKSA_
njh:_Physics_RaycastAll_m233036521
gnb:__Z28scripting_class_is_valuetype17ScriptingClassPtr
AWa:__ZNSt3__25dequeI10InputEventNS_9allocatorIS1_EEE19__add_back_capacityEv
qTc:__ZN5physx7NpScene12removeActorsEPKPNS_7PxActorEjb
TBa:__ZN13ComputeShader13SetValueParamERKN9ShaderLab16FastPropertyNameEiPKv
Dfb:__ZN14BlendShapeDataD2Ev
gvh:__ZN6il2cpp2vm13MetadataCache25GetIndexForTypeDefinitionEPK11Il2CppClass
Cma:__ZL18ProgramUniform3uivPK7ApiGLESjiihPKv
NVd:_Attribute_IsDefined_m1350918959
Hsf:_MonoProperty_get_DeclaringType_m4236036432
gma:__ZN5Image8SetImageEii13TextureFormatb
Rmb:__ZN17MessageIdentifier21GetRegisteredMessagesEv
Wuf:_U3CGetEnumeratorU3Ec__Iterator0_System_Collections_IEnumerator_get_Current_m480171694_gshared
kE:__Z13RegisterClassI23CloudWebServicesManagerEvv
yZh:__ZN6il2cpp2vm5Array3NewEP11Il2CppClassi
XTh:__GLOBAL__sub_I_Image_cpp
VNh:__ZN6il2cpp2vm4Type27GetGenericArgumentsInternalEP20Il2CppReflectionTypeb
q2:__ZNSt3__27__sort5IRPFbRKNS_4pairIN9ShaderLab16FastPropertyNameEfEES6_EPS4_EEjT0_SB_SB_SB_SB_T_
noa:__ZN4gles21InitRenderSurfaceGLESEP7ApiGLESR17RenderSurfaceGLESN2gl17TextureSrgbDecodeE
I4c:__ZN5physx35solveFriction_BStaticBlockWriteBackEPKNS_23PxcSolverConstraintDescEjRNS_16PxcSolverContextEPNS_25PxcThresholdStreamElementEjPi
B_h:__ZN14dense_hash_mapI10KeyWrapperIPK19Il2CppGenericMethodEP10MethodInfoN6il2cpp8metadata23Il2CppGenericMethodHashENS4_14EqualsComparerINS8_26Il2CppGenericMethodCompareEEENSt3__29allocatorINSD_4pairIKS4_S6_EEEEE15set_deleted_keyERSG_
krb:__Z29Transfer_Blittable_ArrayFieldI14SafeBinaryRead4AABBEvRT_R9ArrayInfoRK23StaticTransferFieldInfo
jIe:_RSAManaged_remove_KeyGenerated_m452989252
o7a:__ZN18DelayedCallManager8ClearAllEv
w$c:__ZN5physx23ArticulationRootManager6resizeEj
iL:__ZZN15DirectorManager15InitializeClassEvEN47FixedUpdateDirectorFixedUpdatePostPhysicsstruct7ForwardEv
aMa:__ZNK25RenderPrePassObjectSorterclERK16RenderObjectDataS2_
Fxb:__Z22TransferField_NonArrayI18StreamedBinaryReadILb1EE27Converter_SimpleNativeClassI8GUIStyleEEvRK23StaticTransferFieldInfoR31RuntimeSerializationCommandInfoRT0_
Lfc:__ZL17computeMeshBoundsRKN5physx11PxTransformEPKNS_9PxBounds3ERKNS_11PxMeshScaleERNS_6PxVec3ESA_
ge:_Mix_LoadWAV_RW
fGc:__ZNK5physx2Sc9ClothCore22getSleepLinearVelocityEv
fld:__ZN5physx9readDwordEbRNS_13PxInputStreamE
bmh:_Enumerator__ctor_m147705785
I7c:__ZN3MBP17prepareOverlapsMTEv
AVh:__ZN6il2cpp2gcL12alloc_handleEPNS0_10HandleDataEP12Il2CppObjectb
Pki:_emscripten_glGetAttribLocation__wrapper
tCh:_il2cpp_object_get_virtual_method
Qni:b98
rza:_UNITY_png_write_flush
dKe:_PKCS12_Encrypt_m1401341763
JQ:__ZL16ReadTypeTreeImplILb1EEbR8TypeTreeRK16TypeTreeIteratorRPKhS6_i
Oni:b96
ye:_glBlendEquationSeparate
WHd:_SHA384_Create_m1970724783
gm:_emscripten_glDeleteVertexArrays
pha:__ZN13GfxDeviceGLES17SetComputeUniformE12ObjectHandleI18ComputeProgram_TagPvER18ComputeShaderParamjPKv
$od:__ZN5physx17ConvexMeshBuilderC2Ev
VOe:_MD4Managed_MD4Transform_m2648331494
Smi:_emscripten_glValidateProgram__wrapper
hHe:_SmallXmlParser_ReadComment_m1117342068
wn:FUNCTION_TABLE_iiiiiifiif
Fe:_emscripten_glUniform3fv
llb:__ZN20ArchiveStorageHeader41GetSizeRequiredToParseHeaderAndBlocksInfoERKNS_6HeaderE
n_a:__Z39GetDefaultApplicationIdentifierForCachev
HTb:__Z35MonoBehaviour_CUSTOM_StartCoroutineP12Il2CppObjectP12Il2CppStringS0_
QRc:__ZN5physx17PxsContactManager6setCCDEb
OPh:__ZN6il2cpp2vm9Exception20GetArgumentExceptionEPKcS3_
f$b:__Z29Transfer_Blittable_ArrayFieldI8JSONReadiEvRT_R9ArrayInfoRK23StaticTransferFieldInfo
Gyg:_Uri_System_Runtime_Serialization_ISerializable_GetObjectData_m214698768
$ki:_glDrawArrays__wrapper
By:__ZN9AudioClip27IsFormatSupportedByPlatformERKN4core12basic_stringIcNS0_20StringStorageDefaultIcEEEE
U9:__ZN29SerializeTraitsForStringTypesIN4core12basic_stringIcNS0_20StringStorageDefaultIcEEEEE8TransferI24GenerateTypeTreeTransferEEvRS4_RT_
EDb:__ZN9ShaderLab26SerializedShaderDependency8TransferI24GenerateTypeTreeTransferEEvRT_
Ivd:__ZN5physx6shdfnd8PoolBaseINS_24NpPtrTableStorageManager8PtrBlockILi4EEENS0_19ReflectionAllocatorIS4_EEE15disposeElementsEv
Apd:__ZN5physx28computeVolumeIntegralsEberlyERKNS_20PxSimpleTriangleMeshEfRNS_11PxIntegralsERKNS_6PxVec3E
xbi:_free
y_e:_NameObjectCollectionBase_GetEnumerator_m646294968
Tzd:__ZN11UnityEngine7Connect14AppUpdateEventC2Ev
TQa:__ZNK10GameObject26GetTypeInfoVirtualInternalEv
T2a:__ZN12ImageFilters17RemoveImageFilterERK11ImageFilter
tAc:__ZNK5physx9NpPhysics15getHeightFieldsEPPNS_13PxHeightFieldEjj
ssh:__ZN15dense_hashtableINSt3__24pairIK10KeyWrapperI13dynamic_arrayIPK10Il2CppTypeLj4EEEPFvvEEES8_N6il2cpp8metadata19Il2CppSignatureHashEN14dense_hash_mapIS8_SB_SF_NS8_14EqualsComparerINSE_22Il2CppSignatureCompareEEENS0_9allocatorISC_EEE9SelectKeyESJ_SL_E4findERS9_
ita:__Z32AddPathRemapsForBuiltinResourcesRKN4core12basic_stringIcNS_20StringStorageDefaultIcEEEE
skb:__ZN3WWW6CreateEPKcS1_iRKNSt3__23mapIN4core12basic_stringIcNS4_20StringStorageDefaultIcEEEES8_NS2_4lessIS8_EENS2_9allocatorINS2_4pairIKS8_S8_EEEEEEb7Hash128j
J6a:__ZN14RenderSettings23VirtualRedirectTransferER24GenerateTypeTreeTransfer
mL:__ZZN15DirectorManager15InitializeClassEvEN39PostLateUpdateDirectorRenderImagestruct7ForwardEv
l5c:__ZN5physx22solve1D4Block_ConcludeEPKNS_23PxcSolverConstraintDescEjRNS_16PxcSolverContextE
lsb:__ZL26Transfer_SimpleNativeClassI17RemapPPtrTransfer17AnimationCurveTplIfELb0EEvRK29SerializationCommandArgumentsR31RuntimeSerializationCommandInfo
OQg:_KeyUsageExtension_Decode_m4115739726
im:_glDeleteTransformFeedbacks
kf:_JS_WebRequest_Send
a4h:__ZN6il2cpp2os4Time31GetTicks100NanosecondsMonotonicEv
tZh:__ZNSt3__26__treeINS_12basic_stringIcNS_11char_traitsIcEENS_9allocatorIcEEEENS_4lessIS6_EENS4_IS6_EEE16__construct_nodeIJRKS6_EEENS_10unique_ptrINS_11__tree_nodeIS6_PvEENS_22__tree_node_destructorINS4_ISH_EEEEEEDpOT_
k4d:_Stack_Clear_m771767447
Kpe:_Int64_System_IConvertible_ToUInt16_m2638682734
zbg:__ZL102ChannelServices_t2007814595_CustomAttributesCacheGenerator_ChannelServices_RegisterChannel_m3832858065P21CustomAttributesCache
zci:__ZNK10__cxxabiv117__class_type_info24process_found_base_classEPNS_19__dynamic_cast_infoEPvi
EOg:_Nullable_1_Equals_m1889119397_AdjustorThunk
nvh:__ZN6il2cpp2vm13MetadataCache21GetFieldInfoFromIndexEj
W3g:__Z76RuntimeInvoker_TimeSpan_t3430258949_DateTime_t693205669_TimeSpan_t3430258949PK10MethodInfoPvPS2_
g0g:__Z57RuntimeInvoker_Il2CppObject_Int64_t909078037_Il2CppObjectPK10MethodInfoPvPS2_
w2c:__ZN5physx10PxsCCDPair16sweepEstimateToiEv
jAa:_UNITY_png_write_PLTE
m$h:__GLOBAL__sub_I_String_cpp
a_e:_ListDictionary_FindEntry_m432748847
bq:__ZNSt3__26vectorIN4core12basic_stringIcNS1_20StringStorageDefaultIcEEEENS_9allocatorIS5_EEE6assignINS_11__wrap_iterIPS5_EEEENS_9enable_ifIXaasr21__is_forward_iteratorIT_EE5valuesr16is_constructibleIS5_NS_15iterator_traitsISE_E9referenceEEE5valueEvE4typeESE_SE_
rch:_AudioSettings_InvokeOnAudioConfigurationChanged_m3225073778
dBh:_il2cpp_init
LP:__ZNK15dense_hashtableINSt3__24pairIKPKcPK4RTTIEES3_N11TypeManager23ConstCharPtrHashFunctorEN14dense_hash_mapIS3_S7_SA_NS9_19ConstCharPtrEqualToE13stl_allocatorIS8_L18MemLabelIdentifier6ELi16EEE9SelectKeyESC_SF_E23find_position_with_hashERS4_j
DSh:__ZN6il2cpp2vm3RCW23GetOrCreateFromIUnknownEP14Il2CppIUnknownP11Il2CppClass
KZb:__ZN8JSONRead8TransferIxEEvRT_PKc17TransferMetaFlagsb
zM:__ZN13SpeedTreeWind7AdvanceEbd
Chc:__ZNK5physx2Sc9ShapeCore10getPxShapeEv
epe:_Int32_TryParse_m2941352213
itc:__ZN5physx18NpArticulationLink11clearTorqueENS_11PxForceMode4EnumE
GXc:__ZN5physx7NpScene20fireCallBacksPreSyncEv
Lyb:__Z15Transfer_StringI18StreamedBinaryReadILb0EELb0EEvRK29SerializationCommandArgumentsR31RuntimeSerializationCommandInfo
ew:__ZN12SoundManagerC2Ev
$Uc:__ZNK5physx7NpScene32getContactReportStreamBufferSizeEv
Hli:_emscripten_glGetUniformfv__wrapper
vna:__ZN14DataBufferGLES3MapEjjj
iwc:__ZN10ScSceneFnsIN5physx3Scb4BodyEE6removeERNS0_2Sc5SceneERS2_b
ro:FUNCTION_TABLE_fidi
mFf:_Enumerator_get_CurrentValue_m2645962456_gshared
pIb:__Z13RegisterClassI9TransformEvv
b2:__ZN18UnityPropertySheet11UnityTexEnv8TransferI19StreamedBinaryWriteILb0EEEEvRT_
vuf:_ResourceInfo_t3933049236_marshal_pinvoke_back
J3h:_GC_make_descriptor
HFh:__ZNK15dense_hashtableINSt3__24pairIK10KeyWrapperINS1_IPK11Il2CppImageP11Il2CppClassEEEjEES9_17ReflectionMapHashIS8_EN14dense_hash_mapIS9_jSD_NS9_14EqualsComparerINS0_8equal_toIS8_EEEENS0_9allocatorISB_EEE9SelectKeyESI_SK_E5beginEv
qOf:_Array_InternalArray__ICollection_Add_TisDictionaryEntry_t3048875398_m279246399_gshared
kBg:_ChannelServices_GetCurrentChannelInfo_m4080942430
O6g:__Z93RuntimeInvoker_Boolean_t3825574718_Vector3_t2243707580_Vector3_t2243707580_Single_t2076509932PK10MethodInfoPvPS2_
vu:__ZN4FMOD3DSP8getInputEiPPS0_PPNS_13DSPConnectionE
hQ:__ZN20dynamic_block_vectorI14FileIdentifierE5clearEv
ZLb:__ZZN5Light15InitializeClassEvEN31FunctorImpl_36kTransformChanged4CallEPviR11MessageData
Lfb:__ZN10MeshFilter23VirtualRedirectTransferER17RemapPPtrTransfer
_Vc:__ZN5physx2Sq8AABBTree7releaseEv
Chf:_HashAlgorithm__ctor_m3777008390
ngc:__ZN5physx6shdfnd5ArrayIPvNS0_19ReflectionAllocatorINS_2Sc16ActorElementPairEEEE4copyINS0_15InlineAllocatorILj256ES6_EEEEvRKNS1_IS2_T_EE
Rnc:__ZN5physx2Sc8ClothSim20clearCollisionShapesEv
sVh:__ZN6il2cpp2vm6Object16GetVirtualMethodEP12Il2CppObjectPK10MethodInfo
pch:_PCMSetPositionCallback_BeginInvoke_m2507142524
BIf:_Dictionary_2_System_Collections_ICollection_CopyTo_m3578539931_gshared
pli:_glUniform3uiv__wrapper
DW:__ZL8MainLoopv
Hcd:__ZN5physx6shdfnd8internal8HashBaseINS0_4PairIKPKcjEES5_NS0_4HashIS5_EENS1_11HashMapBaseIS5_jS9_NS0_9AllocatorEE6GetKeyESB_Lb1EE6createERS6_Rb
Ajf:_Binder_ConvertArgs_m2999223281
vmf:_TypeBuilder_IsDefined_m3186251655
WBg:_ConfigHandler_ValidatePath_m3188987489
BAe:_NumberFormatter_get_IntegerDigits_m3972411141
Tcf:_ObjectReader_ReadValue_m2069333484
ggb:__ZThn32_N12MeshRendererD1Ev
_Y:__ZN13RenderTexture23VirtualRedirectTransferER19StreamedBinaryWriteILb0EE
cGf:_ShimEnumerator_MoveNext_m2728191736_gshared
E$f:_UInt64_System_IConvertible_ToInt32_m930227577_AdjustorThunk
A$h:__ZN6il2cpp2vm13ComObjectBase17GetMarshalSizeMaxERK10Il2CppGuidPvjS5_jPj
WKb:__ZN9TransformC2E18MemLabelIdentifier18ObjectCreationMode
vbi:_truncate
SS:__ZN21AssetReferenceStorageC2Ev
Cab:__ZN8Renderer21RendererBecameVisibleEv
Tai:___stpncpy
ZL:__ZN10MemoryPool16StaticInitializeEPv
pV:__ZN11TypeManager21CleanupGlobalInstanceEv
N:Math_atan
ONh:__ZNSt3__212basic_stringIcNS_11char_traitsIcEENS_9allocatorIcEEE6__initIPKcEENS_9enable_ifIXsr21__is_forward_iteratorIT_EE5valueEvE4typeESA_SA_
xHc:__ZN5physx2Sc9ClothCore21setStiffnessFrequencyEf
ct:__ZNK10SampleClip11GetResourceEv
VWc:__ZNK5physx2Sc5Scene29getContactCorrelationDistanceEv
bua:__ZN4core12basic_stringIcNS_20StringStorageDefaultIcEEE6resizeEj
bec:__GLOBAL__sub_I_CmEventProfiler_cpp
isc:__ZN5physx2Sc21ArticulationJointCore17setTargetVelocityERKNS_6PxVec3E
eac:__ZN5physx23transformBoxOrthonormalERKNS_2Gu3BoxERKNS_11PxTransformE
m1a:__ZN17GlobalGameManager23VirtualRedirectTransferER24GenerateTypeTreeTransfer
Cue:_MemoryStream_ToArray_m547789004
NBd:__ZN19UnityConnectServiceD0Ev
Sh:_JS_Cursor_SetCursorString
QDd:_HMACSHA384__ctor_m2276425085
Kmd:__ZN5physx11readIndicesEjjPjRNS_13PxInputStreamEb
Pte:_MonoIO_SetLength_m1019790894
KFc:__ZN5physx2Sc9ClothCore14updateBulkDataERNS0_13ClothBulkDataE
x0f:_UIntPtr_ToString_m387842486
o3a:__ZNSt3__26vectorIfNS_9allocatorIfEEE8__appendEjRKf
CAd:__ZN11UnityEngine15PlatformWrapper21GetCopyTextureSupportEv
nz:__ZN11AudioModule27IsFormatSupportedByPlatformEPKc
W0d:_CollectionBase_get_InnerList_m44314156
lge:_Enum_System_IConvertible_ToUInt32_m3575456858
qOh:__ZN6il2cpp6icalls8mscorlib6System9Threading6Thread15Thread_internalEP12Il2CppThreadP14Il2CppDelegate
K1a:__ZNSt3__26vectorI17SortingLayerEntryNS_9allocatorIS1_EEE6assignINS_11__wrap_iterIPS1_EEEENS_9enable_ifIXaasr21__is_forward_iteratorIT_EE5valuesr16is_constructibleIS1_NS_15iterator_traitsISA_E9referenceEEE5valueEvE4typeESA_SA_
ORb:__Z48Register_UnityEngine_AsyncOperation_set_priorityv
grd:__ZNK8Collider10GetEnabledEv
__b:__Z19TransferField_ArrayI8JSONRead16Converter_StringEvRK23StaticTransferFieldInfoR31RuntimeSerializationCommandInfoRT0_
kth:__ZN15dense_hashtableINSt3__24pairIK10KeyWrapperIPK19Il2CppGenericMethodEPK26Il2CppGenericMethodIndicesEES6_N6il2cpp8metadata23Il2CppGenericMethodHashEN14dense_hash_mapIS6_SA_SE_NS6_14EqualsComparerINSD_26Il2CppGenericMethodCompareEEENS0_9allocatorISB_EEE9SelectKeyESI_SK_E6insertERKSB_
b6g:__Z97RuntimeInvoker_Il2CppObject_Il2CppObject_Il2CppObject_Int32_t2071877448_Il2CppObject_Il2CppObjectPK10MethodInfoPvPS2_
vXa:__ZNK25ThreadsafeLinearAllocator22GetAllocatedMemorySizeEv
CYf:_Type_EqualsInternal_m266086934
jv:__ZN4FMOD7Channel11set3DSpreadEf
g7h:__ZN6il2cpp2os6Memory14AlignedReAllocEPvjj
MYe:_SslStreamBase_BeginWrite_m270524114
W:Math_fround
R9:__ZN24GenerateTypeTreeTransfer16TransferTypelessEPjPKc17TransferMetaFlags
fXf:_TimeSpan_get_TotalMinutes_m1645177229
OIe:_SymmetricTransform_InternalTransformBlock_m55428483
w2b:__ZN5physx6PxQuatC2ERKNS_7PxMat33E
Dma:__ZL18ProgramUniform4uivPK7ApiGLESjiihPKv
Yye:_LongComparer_Compare_m398047722
$Jf:_EqualityComparer_1_System_Collections_IEqualityComparer_Equals_m2170611288_gshared
GVd:_Attribute_CheckParameters_m1754681684
HSd:_UnicodeEncoding_GetByteCount_m2761661599
Fcd:__ZN5physx6shdfnd5ArrayINS_17PxTaskDepTableRowENS0_19ReflectionAllocatorIS2_EEE15growAndPushBackERKS2_
HIa:__ZN10builtintex21GetAttenuationTextureEv
Jm:FUNCTION_TABLE_viiiiiiiiiiiiiii
C6h:__ZN6il2cpp6icalls8mscorlib6System9Threading5Mutex21ReleaseMutex_internalE12Il2CppIntPtr
KU:__Z15GetGraphicsCapsv
cia:__ZN7ApiGLES15BindVertexArrayEN2gl6HandleILNS0_10ObjectTypeE3EEE
jMb:__ZZL23RegisterLightPropertiesR22GenericPropertyBindingEN21Wrapper_LightDrawHalo13GetFloatValueEPv
M2g:__Z153RuntimeInvoker_Int32_t2071877448_Il2CppObject_Int32_t2071877448_Int32_t2071877448_Int32_t2071877448_SByte_t454417549_SByte_t454417549_Int32U26_t455636984PK10MethodInfoPvPS2_
Lwb:__Z18Transfer_BlittableI18StreamedBinaryReadILb1EELb1ExEvRK29SerializationCommandArgumentsR31RuntimeSerializationCommandInfo
VGh:__ZN30dense_hashtable_const_iteratorINSt3__24pairIK10KeyWrapperINS1_IPK9EventInfoP11Il2CppClassEEEjEES9_17ReflectionMapHashIS8_EN14dense_hash_mapIS9_jSD_NS9_14EqualsComparerINS0_8equal_toIS8_EEEENS0_9allocatorISB_EEE9SelectKeyESI_SK_EppEv
LXf:_TimeSpan_op_GreaterThan_m2202243191
mDc:__ZN5physx2Sc9ClothCoreC2ERKNS_11PxTransformERNS0_15ClothFabricCoreEPKNS_15PxClothParticleENS_7PxFlagsINS_11PxClothFlag4EnumEtEE
pHb:__ZN18BackgroundJobQueue29ScheduleMainThreadJobInternalEPFvPvES0_
D3e:_X509Chain_IsSelfIssued_m2009755967
Eob:__Z18Transfer_BlittableI14SafeBinaryReadLb1EhEvRK29SerializationCommandArgumentsR31RuntimeSerializationCommandInfo
Dae:_DateTime_GetTimeMonotonic_m4135038456
akc:__ZN5physx16PxsIslandManager17setEdgeConstraintERKNS_20PxsIslandManagerHookIjLj4294967295EEEPNS_13PxsConstraintE
yGd:_StringBuilder_Append_m3636508479
Yb:invoke_viifff
MN:__Z22DestroyObjectHighLevelP6Objectb
pTc:__ZN5physx7NpScene11removeActorERNS_7PxActorEb
_Ed:_SymmetricAlgorithm_set_KeySize_m270664177
zGc:__ZNK5physx2Sc9ClothCore27getNbVirtualParticleWeightsEv
oOh:__ZN6il2cpp6icalls8mscorlib6System9Threading6Thread16SetName_internalEP12Il2CppThreadP12Il2CppString
ij:_glBeginTransformFeedback
DAc:__ZNK5physx9NpPhysics9getScenesEPPNS_7PxSceneEjj
Gaa:__ZN18JobBatchDispatcherC2E11JobPriorityi
Dga:__ZN9GfxDevice13EndFrameStatsEv
sKb:__Z7Empty2DP9Texture2DPhiiii
Kqe:_IntPtr_ToString_m1500137303_AdjustorThunk
Ekh:_SymmetricTransform_ThrowBadPaddingException_m2553969731
Ex:__ZL34StaticDestroyAudioCustomFilterRootPv
Z0c:__ZN15AABBTreeOverlapIN5physx2Gu15CapsuleAABBTestEEclEPNS0_2Sq13PrunerPayloadERKNS4_8AABBTreeERKS2_RNS4_14PrunerCallbackE
ACa:__ZN19ComputeShaderKernelD2Ev
gHb:__ZN10systeminfo21GetTemporaryCachePathEv
SRc:__ZN5physx10PxsContext21destroyContactManagerEPNS_17PxsContactManagerE
$3h:__ZN6il2cpp2os4Time29GetTicksMillisecondsMonotonicEv
l$b:__ZN9rapidjson12PrettyWriterI16TempBufferWriterNS_4UTF8IcEES3_13JSONAllocatorE12PrettyPrefixENS_4TypeE
mUe:_Context_DecodeProtocolCode_m4051353560
w3g:__Z81RuntimeInvoker_Void_t1841601450_Il2CppObject_Double_t4078015681_Int32_t2071877448PK10MethodInfoPvPS2_
bGb:__ZN12ScriptMapper8TransferI14SafeBinaryReadEEvRT_
eUe:_Context_set_ClientWriteKey_m1137238126
Atb:__Z18Transfer_BlittableI24GenerateTypeTreeTransferLb1E10Matrix4x4fEvRK29SerializationCommandArgumentsR31RuntimeSerializationCommandInfo
Owg:_Expression_GetFixedWidth_m2900825908
rr:__Z10SetLocalTR15TransformAccessRKN4math7_float3ERKNS0_7_float4E
iMh:_GenericEqualityComparer_1_Equals_m1663005117_gshared
rlf:_ILGenerator_Mono_GetCurrentOffset_m3553856682
eYb:__ZN9JSONWrite8TransferI10Matrix4x4fEEvRT_PKc17TransferMetaFlags
T2f:__ZL58Decimal_t724701077_CustomAttributesCacheGenerator_MinValueP21CustomAttributesCache
LTc:__ZN5physx7NpScene30setClothInterCollisionDistanceEf
mbg:__ZL50_Module_t2144668161_CustomAttributesCacheGeneratorP21CustomAttributesCache
arb:__ZN15SerializeTraitsI5RectTIfEE8TransferI14SafeBinaryReadEEvRS1_RT_
Mba:__ZNK14SerializedFile15GetTypeIfExistsEx
u5e:_X509Extension_CopyFrom_m2644634650
Oab:__ZThn32_NK8Renderer11GetMaterialEi
pfg:__ZL118SecurityManager_t3191249573_CustomAttributesCacheGenerator_SecurityManager_t3191249573____SecurityEnabled_PropertyInfoP21CustomAttributesCache
LJg:_List_1_System_Collections_IList_Insert_m813883425_gshared
_3h:__ZN6il2cpp6icalls8mscorlib6System7Runtime15InteropServices8GCHandle15GetTargetHandleEP12Il2CppObjectii
BAg:_SafeHandle_Dispose_m3871883741
ck:_unsetenv
QNg:_ReadOnlyCollection_1_System_Collections_IList_get_Item_m378281456_gshared
Tda:__ZN9GfxDevice29GetMinimumNodesPerGraphicsJobEv
Ueb:__ZN17BlendShapeChannel8TransferI24GenerateTypeTreeTransferEEvRT_
iLf:_Array_InternalArray__ICollection_Contains_TisContactPoint_t1376425630_m95840772_gshared
d3h:_GC_init_size_map
Wug:_Parser_NewParseException_m3909819299
IL:__ZN15DirectorManager17OnSampleFixedTimeEv
zNa:__ZNK13RendererScene21GetDynamicObjectCountEv
HAh:__ZN6il2cpp6icalls8mscorlib6SystemL8IsPublicEPK12PropertyInfo
X0h:_GC_is_black_listed
uJc:__ZN5physx15PxsParticleData16removeParticlesVEjRKNS_16PxStrideIteratorIKjEE
dzg:_UriFormatException__ctor_m4177560795
r8:__Z17GetRenderSettingsv
cub:__ZN24GenerateTypeTreeTransfer32TransferSTLStyleArrayWithElementI23ManagedObjectTransfererEEvRT_17TransferMetaFlags
zDf:_InternalEnumerator_1_System_Collections_IEnumerator_get_Current_m3043347404_AdjustorThunk
Hte:_WriteDelegate_BeginInvoke_m2985235908
Qbe:_DateTimeOffset_get_Offset_m2335492074_AdjustorThunk
d$g:__Z56RuntimeInvoker_Il2CppObject_StreamingContext_t1417235061PK10MethodInfoPvPS2_
uoe:_Int32_System_IConvertible_ToChar_m719315943_AdjustorThunk
m7h:__ZN6il2cpp6icalls8mscorlib6System7Runtime8Remoting16RemotingServices16GetVirtualMethodEP20Il2CppReflectionTypeP22Il2CppReflectionMethod
Kid:__ZNK5physx10PxsContext15getNumSweepHitsEv
etg:_Match__ctor_m478172746
Sxe:_Math_Pow_m3099781906
l5a:__ZN15SharedLightData5ResetEv
VMh:__ZN6il2cpp2vm14TypeNameParser23ParseNestedTypeOptionalERi
Mlc:__ZN5physx6shdfnd5ArrayIPNS_2Sc20ArticulationJointSimENS0_19ReflectionAllocatorIS4_EEE8recreateEj
Dze:_MonoType_ReorderParamArrayArguments_m979187413
AMe:_BigInteger_ToString_m1842353154
ymc:__ZN5physx2Sc27ConstraintProjectionManager23addToPendingTreeUpdatesERNS0_19ConstraintGroupNodeE
uzd:__ZN22BaseUnityConnectClient14QueueCoreEventERN11UnityEngine15CloudWebService17CloudServiceEventEb
sxf:_InternalEnumerator_1_get_Current_m2882946014_gshared
Qjb:__ZN30RuntimeInitializeOnLoadManager9ClassInfo8TransferI14SafeBinaryReadEEvRT_
eAg:_GCHandle_Equals_m170815541_AdjustorThunk
rgd:__ZN5physx16correlatePatchesERNS_20PxcCorrelationBufferERKNS_2Gu13ContactBufferERKNS_11PxTransformES8_fjj
cl:_emscripten_glGetShaderInfoLog
CNh:__ZNSt3__26vectorIiNS_9allocatorIiEEE8allocateEj
NFd:_RIPEMD160Managed_Compress_m3844168032
ace:_DBNull_System_IConvertible_ToInt32_m3596596664
hoe:_Int16_ToString_m1247017262_AdjustorThunk
Loe:_Int32_System_IConvertible_ToType_m573330549_AdjustorThunk
df:___syscall122
w4b:__ZN5physx2Gu23computeMTD_SphereConvexERNS_6PxVec3ERfRKNS0_6SphereERKNS_20PxConvexMeshGeometryERKNS_11PxTransformE
l2a:__Z29FindReflectionProbeFromAnchorP9TransformRK4AABBRS1_RsS5_
Irc:__ZN5physx19NpArticulationJoint20setTangentialDampingEf
Q7e:_Interval_Merge_m1170166798
Nbf:_WellKnownServiceTypeEntry__ctor_m1109686429
wAh:__ZN6il2cpp6icalls8mscorlib6System18CollectTypeMethodsINS_5utils10functional10TrueFilterEEEvP11Il2CppClassPKS7_jRKT_RNSt3__26vectorIPK10MethodInfoNSE_9allocatorISI_EEEERA65535_b
NW:__Z14SetPlayerPause11PlayerPauseb
s5a:__ZNK11LightProbes26GetTypeInfoVirtualInternalEv
A9b:__ZN5physx11PxMeshQuery22findOverlapHeightFieldERKNS_10PxGeometryERKNS_11PxTransformERKNS_21PxHeightFieldGeometryES6_PjjjRb
pK:__Z30scripting_stack_trace_info_for21ScriptingExceptionPtrR14StackTraceInfo
bgi:_glCompressedTexSubImage3D__wrapper
urc:__ZN5physx19NpArticulationJoint12setDriveTypeENS_28PxArticulationJointDriveType4EnumE
s7b:__ZN5physx2Gu18intersectRaySphereERKNS_6PxVec3ES3_fS3_fRfPS1_
KKa:__ZN18ShadowMapJobHeaderD0Ev
fGh:__ZN15dense_hashtableINSt3__24pairIK10KeyWrapperINS1_IPK12PropertyInfoP11Il2CppClassEEEjEES9_17ReflectionMapHashIS8_EN14dense_hash_mapIS9_jSD_NS9_14EqualsComparerINS0_8equal_toIS8_EEEENS0_9allocatorISB_EEE9SelectKeyESI_SK_EC2ERKSN_j
Eu:__ZN15AudioReverbZone7CleanupEv
yqa:__ZN10BufferGLESD0Ev
aNe:_Kernel_Subtract_m2224959291
ELd:__Z9NullCheckPv
c9d:_Convert_ToUInt32_m671585177
rnb:__ZN9Scripting35ErrorMessageForUnsupportedEnumFieldE17ScriptingFieldPtr
lAa:_UNITY_png_write_bKGD
fQf:_Array_InternalArray__Insert_TisIntPtr_t_m3232864760_gshared
E5:__ZN6prcoreL26RemapGenericIntegerToFloatI17TexFormatARGB888818TexFormatARGBFloatEEvPKNS_9InnerInfoE
Jya:__ZN15TextureSettings14GetAnisoLimitsERiS0_
Avh:__ZL24UnresolvedVirtualCall_10P12Il2CppObjectPK10MethodInfo
Dki:_emscripten_glCompressedTexSubImage2D__wrapper
cif:_HMACRIPEMD160__ctor_m3619191387
ahf:_DSA_FromXmlString_m2141326025
TGh:__ZNK15dense_hashtableINSt3__24pairIK10KeyWrapperINS1_IPK9EventInfoP11Il2CppClassEEEjEES9_17ReflectionMapHashIS8_EN14dense_hash_mapIS9_jSD_NS9_14EqualsComparerINS0_8equal_toIS8_EEEENS0_9allocatorISB_EEE9SelectKeyESI_SK_E5beginEv
Ehd:__ZN5physx2Sc5Scene23postIslandGenSecondPassEPNS_10PxBaseTaskE
ysd:__ZN14PhysicsManagerD0Ev
B7c:__ZN3MBP11shiftOriginERKN5physx6PxVec3E
_yh:__ZN6il2cpp2vmL29SocketPollingThreadEntryPointEPv
Eae:_DateTime_GetNow_m1004310079
Yeb:__ZN10Matrix4x4f8TransferI18StreamedBinaryReadILb0EEEEvRT_
aZe:_SslStreamBase_get_Length_m763159069
Tx:__ZN4FMOD7Channel19getReverbPropertiesEP29FMOD_REVERB_CHANNELPROPERTIES
yee:_StackFrame_GetSecureFileName_m389986943
ecf:_FormatterConverter_ToInt16_m2774942580
O7c:__ZN9BoxPruner9addObjectERK5IAABBjb
wNc:__ZN5physx14NpRigidDynamic11clearTorqueENS_11PxForceMode4EnumE
Q0g:__Z88RuntimeInvoker_Boolean_t3825574718_Int16_t4041245914_Int16_t4041245914_Int32_t2071877448PK10MethodInfoPvPS2_
CZf:_UInt16_System_IConvertible_ToByte_m806893944_AdjustorThunk
bTd:_UTF32Encoding_GetCharCount_m3319809517
oQb:__Z12CancelInvokeR13MonoBehaviourR11ICallString
mAh:__ZN6il2cpp6icalls8mscorlib6System8MonoType13GetInterfacesEP20Il2CppReflectionType
M0a:__ZN5Cache32GetCachingDiskSpaceFreeAndUsableEv
wy:__ZN9AudioClip16EnableLegacyModeEv
Fjb:__ZN14SafeBinaryRead21TransferSTLStyleArrayINSt3__26vectorIi13stl_allocatorIiL18MemLabelIdentifier12ELi16EEEEEEvRT_17TransferMetaFlags
UWe:_RecordProtocol_InternalSendRecordCallback_m3984764857
l_h:__ZN6il2cpp2os6Thread22SetNativeThreadCleanupEPFvPvE
CGc:__ZN5physx2Sc9ClothCore19setVirtualParticlesEjPKjjPKNS_6PxVec3E
rBh:_il2cpp_class_from_system_type
xC:__ZN11UnityEngine15CloudWebService13WWWRestClient6IsDoneEv
n2b:__ZL28HullProjectionCB_SmallConvexRKN5physx2Gu13PolygonalDataERKNS_6PxVec3ERKNS_2Cm8Matrix34ERKNS7_23FastVertex2ShapeScalingERfSE_
Cza:_unity_z_crc32
D4:__ZN6prcoreL17RemapGenericFloatI18TexFormatRGBAFloat16TexFormatRGFloatEEvPKNS_9InnerInfoE
F0b:__ZN5physx3Cct9SweepTest9onReleaseERKNS_6PxBaseE
aCe:_MSCompatUnicodeTable_FillCJKCore_m1100372933
Nzh:__ZN6il2cpp6icalls8mscorlib6System8MonoType8get_NameEP20Il2CppReflectionType
vqb:__ZNSt3__26vectorI10RectOffset13stl_allocatorIS1_L18MemLabelIdentifier1ELi16EEE8__appendEj
Fwd:__ZNK5physx2Gu15HeightFieldUtil16getEdgeFaceIndexEjjjj
u8b:__ZN5physx2Gu15GJKLocalRayCastERNS0_8CapsuleVERNS0_4BoxVERKNS_6shdfnd3aos6FloatVERKNS6_5Vec3VESC_RS7_RSA_SE_fb
_5d:_DateTime_op_Inequality_m1607380213
vph:__ZN6il2cpp2vm5Class12HasAttributeEP11Il2CppClassS3_
oDc:__ZNK5physx2Sc15ClothFabricCore11getNbPhasesEv
m7c:__ZNK5physx16PxsBroadPhaseMBP12getNbRegionsEv
wJc:__ZNK5physx15PxsParticleData13getParticlesVERNS_30PxvParticleSystemStateDataDescEbb
YKf:_Array_InternalArray__ICollection_Contains_TisResourceCacheItem_t333236149_m1769941464_gshared
ieh:_ContextMenu__ctor_m3931483141
Ao:FUNCTION_TABLE_ff
F5b:__ZN5physxL25generatedTriangleContactsERKNS_2Gu9TriangleVEjhRKNS0_13PolygonalDataERKNS0_15HullPolygonDataEPNS0_12SupportLocalEPNS0_21MeshPersistentContactERjRKNS_6shdfnd3aos6FloatVERKNSG_5Vec3VE
Dn:FUNCTION_TABLE_fi
E7h:__ZN6il2cpp2vm16GenericContainer19GetGenericParameterEPK22Il2CppGenericContainert
hZd:_Char_System_IConvertible_ToSingle_m2547558725_AdjustorThunk
ojb:__ZN18StreamedBinaryReadILb0EE21TransferSTLStyleArrayINSt3__26vectorIN15ResourceManager10DependencyE13stl_allocatorIS5_L18MemLabelIdentifier51ELi16EEEEEEvRT_17TransferMetaFlags
ld:_emscripten_glGetAttribLocation
eQ:__ZNSt3__26vectorINS_4pairIiiEE13stl_allocatorIS2_L18MemLabelIdentifier37ELi16EEE6insertENS_11__wrap_iterIPKS2_EERS8_
_w:__ZN4FMOD12ChannelGroup14getParentGroupEPPS0_
e1c:__ZN5physx2Sq17AABBTreeUpdateMap7initMapEjRKNS0_8AABBTreeE
qXe:_SslClientStream_add_ServerCertValidation_m684653638
pd:_emscripten_set_blur_callback
e6h:__GLOBAL__sub_I_MemoryMappedFile_cpp
hhi:___cxa_pure_virtual__wrapper
Xla:__ZNK14ImageReference9ClipImageEiiii
ooc:__ZN5physx6shdfnd4sortIPvNS0_4LessIS2_EENS0_19ReflectionAllocatorINS_2Sc19ParticlePacketShapeEEEEEvPT_jRKT0_RKT1_j
CKa:__ZN10Matrix4x4f30SetPositionAndOrthoNormalBasisERK8Vector3fS2_S2_S2_
H2a:__ZN5RectTIfE8TransferI24GenerateTypeTreeTransferEEvRT_
JBg:_CrossAppDomainSink__cctor_m1547233779
yBe:_TableRange__ctor_m1944319286_AdjustorThunk
nEa:__ZN12FlareManager6UpdateEv
Ehi:_glColorMask__wrapper
dbg:__ZL59_ConstructorInfo_t3269099341_CustomAttributesCacheGeneratorP21CustomAttributesCache
sHf:_Dictionary_2_ContainsKey_m1385349577_gshared
PJe:_X509CertificateEnumerator_MoveNext_m1031936092
X9c:__Z16runNpPCMBatchPPUPN5physx18PxcNpThreadContextEPNS_15PxcNpBatchEntryEjjPjjRjS5_
FSe:_TlsStream__ctor_m2982031560
$1e:_X509EnhancedKeyUsageExtension__ctor_m4050164330
bUc:__ZN5physx7NpScene14resetFilteringERNS_7PxActorE
qyb:__ZN18StreamedBinaryReadILb1EE8TransferI8Vector3fEEvRT_PKc17TransferMetaFlags
HCf:_InternalEnumerator_1_get_Current_m2198364332_AdjustorThunk
X6:__ZN27GenericSlowGarbageCollector16ProcessReferenceEi
waf:_RealProxy_InternalGetProxyType_m858618403
ohe:_FieldAccessException__ctor_m1240495912
Xyg:_Uri_HexUnescapeMultiByte_m25670899
mai:_fopen
dE:__ZN19CloudServiceHandler8SaveFileERKN4core12basic_stringIcNS0_20StringStorageDefaultIcEEEEPKvj
NPh:__ZN6il2cpp2vm9Exception5RaiseEib
s5e:_X509EnhancedKeyUsageExtension_CopyFrom_m1426370958
VVb:__ZN9rapidjson13GenericReaderINS_4UTF8IcEES2_13JSONAllocatorE10ParseValueILj1ENS_25GenericInsituStringStreamIS2_EENS_15GenericDocumentIS2_S3_S3_EEEEvRT0_RT1_
yii:_glFramebufferTexture2D__wrapper
R7h:__ZN6il2cpp6icalls8mscorlib6System7Runtime8Remoting7Proxies9RealProxy27InternalGetTransparentProxyEP12Il2CppObjectP12Il2CppString
nRe:_CipherSuite_DecryptRecord_m1247194570
kRc:__ZN5physx2Sc10NPhaseCore16createFilterPairEv
bZh:__ZN6il2cpp2vm6Method10IsInflatedEPK10MethodInfo
u1h:_GC_remove_header
xed:__ZNK5physx2Gu15HeightFieldUtil12traceSegmentINS0_27TriggerTraceSegmentCallbackELb0ELb0ELb0EEEvRKNS_6PxVec3ES6_PT_PS5_
Tph:__ZN15dense_hashtableINSt3__24pairIK10KeyWrapperIPK11Il2CppClassEPKcEES6_N6il2cpp5utils11PointerHashIS3_EEN14dense_hash_mapIS6_S9_SE_NS6_14EqualsComparerINS0_8equal_toIS5_EEEENS0_9allocatorISA_EEE9SelectKeyESJ_SL_E14squash_deletedEv
m5b:__Z19sweepCCTBox_BoxGeomRKN5physx10PxGeometryERKNS_11PxTransformERKNS_2Gu3BoxERKNS_6PxVec3EfRNS_10PxSweepHitENS_7PxFlagsINS_9PxHitFlag4EnumEtEEf
J1a:__ZNSt3__26vectorI17SortingLayerEntryNS_9allocatorIS1_EEE7reserveEj
BTe:_Context_set_MasterSecret_m1422386411
T5a:__ZN11Tetrahedron8TransferI14SafeBinaryReadEEvRT_
Pvb:__Z19TransferField_ArrayI19StreamedBinaryWriteILb0EE27Converter_UnityEngineObjectEvRK23StaticTransferFieldInfoR31RuntimeSerializationCommandInfoRT0_
aQe:_RSAManaged_ToXmlString_m2606223477
cvg:_CharacterClass__ctor_m1318163925
rjf:_AssemblyName_GetObjectData_m1221677827
PV:__ZN15dense_hashtableINSt3__24pairIKN4core12basic_stringIcNS2_20StringStorageDefaultIcEEEEP11AssetBundleEES6_20StringHash32FunctionIS6_EN14dense_hash_mapIS6_S9_SC_NS0_8equal_toIS6_EENS0_9allocatorISA_EEE9SelectKeyESF_SH_E9copy_fromERKSK_j
cni:_emscripten_glFrontFace__wrapper
Ia:invoke_fiffi
q6h:__ZN6il2cpp5utils6Memory6CallocEjj
yQ:__ZN14SerializedFile14SerializedType8ReadTypeILb1EEEbibRPKhS3_Pi
N2g:__Z126RuntimeInvoker_Int32_t2071877448_Il2CppObject_Int32_t2071877448_Il2CppObject_Il2CppObject_SByte_t454417549_Int32U26_t455636984PK10MethodInfoPvPS2_
Q6c:__ZN15MBP_PairManager12reallocPairsEv
tii:_emscripten_glRenderbufferStorage__wrapper
hN:__ZN13RuntimeStaticI12GraphicsCapsLb0EE16StaticInitializeEPv
f9:__ZN9Texture3D17UploadToGfxDeviceEv
_Yb:__Z18Transfer_BlittableI8JSONReadLb1E8Vector4fEvRK29SerializationCommandArgumentsR31RuntimeSerializationCommandInfo
NY:__ZN13RenderTexture14SetColorFormatE19RenderTextureFormat
tke:_NumberFormatter_Init_m1515770916
txg:_Literal_Compile_m3864266818
PXa:__ZN9Scripting20SendScriptingMessageER10GameObjectPKc18ScriptingObjectPtr
JW:__Z26IsSplashScreenFadeCompletev
Afb:__Z17SendMessageDirectR6ObjectRK17MessageIdentifierR11MessageData
qSb:__Z42Register_UnityEngine_Camera_get_clearFlagsv
oAh:__ZNSt3__26__treeIP11Il2CppClassNS_4lessIS2_EENS_9allocatorIS2_EEED2Ev
uSd:_StringBuilder_set_Chars_m1019094834
aSc:__ZN5physx6shdfnd4sortIPvNS0_4LessIS2_EENS0_19ReflectionAllocatorINS_2Gu31SpherePersistentContactManifoldEEEEEvPT_jRKT0_RKT1_j
DSa:__ZN13RenderManager27UpdatePreviousFrameMatricesEv
cMa:__ZN6Camera10CustomCullERK23CameraCullingParametersR11CullResults
Oth:__ZN15dense_hashtableINSt3__24pairIK10KeyWrapperIPKcEP11Il2CppClassEES5_N6il2cpp5utils11StringUtils12StringHasherIS4_EEN14dense_hash_mapIS5_S8_SE_NS5_14EqualsComparerINSC_21CaseSensitiveComparerEEENS0_9allocatorIS9_EEE9SelectKeyESI_SK_E15insert_noresizeERKS9_
jYd:_Byte_System_IConvertible_ToUInt64_m2667486567
mS:__Z22SetManagerPtrInContextiP6Object
zib:__ZN14PlayerSettings8TransferI19StreamedBinaryWriteILb0EEEEvRT_
PYb:__Z18Transfer_BlittableI8JSONReadLb0E10ColorRGBAfEvRK29SerializationCommandArgumentsR31RuntimeSerializationCommandInfo
cQf:_Array_InternalArray__Insert_TisInt16_t4041245914_m371511339_gshared
Jkf:_ConstructorBuilder_get_next_table_index_m932085784
Bff:_SByte_Equals_m755715567
OJ:__ZN15DirectorManagerD2Ev
BCe:_SortKeyBuffer_AppendNormal_m2554296431
$ed:__ZN5physx17EdgeChangeManager17cleanupEdgeEventsEPij
iAd:__ZN11UnityEngine15PlatformWrapper12GetInfoFlagsEv
_Kg:_Collection_1_InsertItem_m3611385334_gshared
vZg:__Z74RuntimeInvoker_Void_t1841601450_Il2CppObject_Il2CppObject_SByte_t454417549PK10MethodInfoPvPS2_
nQh:__ZN6il2cpp6icalls8mscorlib6System13Globalization11CultureInfo45construct_internal_locale_from_current_localeEP17Il2CppCultureInfo
oNf:_Array_IndexOf_TisCustomAttributeNamedArgument_t94157543_m2205974312_gshared
Bpa:__ZN15TextureTFMethod16BindForRenderingEj
uJf:_DefaultComparer_GetHashCode_m3250641461_gshared
m6e:_Key_ToString_m1129871742
cVd:_Array_Sort_m1417611156
Dyg:_Uri_Merge_m2181117222
Bib:__ZN12AspectRatios8TransferI19StreamedBinaryWriteILb0EEEEvRT_
dyh:__ZN6il2cpp2os19SocketHandleWrapper7ReleaseEv
cXf:_TimeSpan_get_TotalDays_m3496775483_AdjustorThunk
bz:__ZZL31InitializeAudioManagerCallbacksvEN31PostLateUpdateUpdateAudiostruct7ForwardEv
Hhb:__ZNSt3__27__sort4IRNS_6__lessINS_4pairIPKN5Unity4TypeE7Hash128EES8_EEPS8_EEjT0_SC_SC_SC_T_
hnc:__ZN5physx6shdfnd5ArrayIPNS_14PxParticleBaseENS0_19ReflectionAllocatorIS3_EEE15growAndPushBackERKS3_
Ndi:dynCall_fff
eKf:_EqualityComparer_1_System_Collections_IEqualityComparer_Equals_m3463759377_gshared
zwd:__Z37GeomOverlapCallback_ConvexHeightfieldRKN5physx10PxGeometryERKNS_11PxTransformES2_S5_PNS_2Gu12TriggerCacheE
QFb:__ZN9ShaderLab11ShaderState29FindPropsAffectingStateBlocksERK19ShaderPropertySheetR13dynamic_arrayIiLj4EE
qSf:_Array_InternalArray__get_Item_TisDictionaryEntry_t3048875398_m2371191320_gshared
Cyb:__ZN18StreamedBinaryReadILb1EE21TransferSTLStyleArrayI13dynamic_arrayIhLj1EEEEvRT_17TransferMetaFlags
_wf:_InternalEnumerator_1_get_Current_m2351441486_gshared
$Fc:__ZN5physx6shdfnd5ArrayINS_15PxClothParticleENS0_19ReflectionAllocatorIS2_EEE8recreateEj
FYh:__ZL14on_heap_resizem
S9c:__ZL22PxcGenerateVFContacts2RN5physx2Gu13ContactBufferERKNS_11PxTransformERKNS0_13PolygonalDataERKNS_11PxMeshScaleEjPKNS_6PxVec3EfRSD_f
Ufi:dynCall_vidi
_gi:_glVertexAttribPointer__wrapper
Adi:___udivdi3
YGb:__ZN11PlayerPrefs9SetStringERKN4core12basic_stringIcNS0_20StringStorageDefaultIcEEEES6_
BAc:__ZN5physx9NpPhysics11createSceneERKNS_11PxSceneDescE
jwc:__ZN5physx3Scb5Scene16removeRigidNoSimINS0_4BodyELb1ELb1EEEvRT_RNS0_13ObjectTrackerE
Kug:_Regex_InitNewRegex_m692548389
IBd:__ZNSt3__26__treeINS_12__value_typeIN4core12basic_stringIcNS2_20StringStorageDefaultIcEEEEN11UnityEngine7Connect19RemoteSettingsValueEEENS_19__map_value_compareIS6_SA_NS_4lessIS6_EELb1EEE13stl_allocatorISA_L18MemLabelIdentifier5ELi16EEE16__construct_nodeERKNS_4pairIKS6_S9_EE
xia:__ZN4gles16CreateBlendStateER15DeviceStateGLESRK13GfxBlendState
pOe:_ARC4Managed_GenerateIV_m2815460576
gMd:_String_Substring_m2032624251
PLb:__ZN8Material12CleanupClassEv
zae:_DateTime_get_DayOfWeek_m2345429939_AdjustorThunk
JYf:_Type_GetTypeCode_m1044483454
qgc:__ZN5physx6shdfnd5ArrayIPvNS0_15InlineAllocatorILj256ENS0_19ReflectionAllocatorINS_2Sc16ActorElementPairEEEEEE15growAndPushBackERKS2_
Guf:_ResourceSet_GetObjectInternal_m3556256510
Qsb:__Z22TransferField_NonArrayI17RemapPPtrTransfer27Converter_SimpleNativeClassI10RectOffsetEEvRK23StaticTransferFieldInfoR31RuntimeSerializationCommandInfoRT0_
a6d:_DateTimeOffset__ctor_m2870721395
Vx:__ZN20SoundChannelInstance11set3DSpreadEf
CUc:__ZNK5physx7NpScene19getDynamicStructureEv
AKd:_String_ReplaceFallback_m64616664
fsf:_MonoMethod_GetCustomAttributes_m2493833930
kUc:__ZN5physx7NpScene10setGravityERKNS_6PxVec3E
rib:__ZN24GenerateTypeTreeTransfer32TransferSTLStyleArrayWithElementI16SplashScreenLogoEEvRT_17TransferMetaFlags
ADh:__ZN15dense_hashtableINSt3__24pairIK10KeyWrapperINS1_IPK9FieldInfoP11Il2CppClassEEEjEES9_17ReflectionMapHashIS8_EN14dense_hash_mapIS9_jSD_NS9_14EqualsComparerINS0_8equal_toIS8_EEEENS0_9allocatorISB_EEE9SelectKeyESI_SK_E6insertERKSB_
fxc:__ZNK5physx2Sc16ArticulationCore22getSeparationToleranceEv
jBc:__ZN5physx6shdfnd8PoolBaseINS_14NpArticulationENS0_19ReflectionAllocatorIS2_EEE12allocateSlabEv
Aoe:_Int32_System_IConvertible_ToDouble_m3322226667_AdjustorThunk
Uyd:__ZL21CleanupModule_Physicsv
O3b:__ZN5physx2Gu32distanceSegmentSegmentSquaredOLDERKNS_6PxVec3ES3_S3_S3_PfS4_
ydi:_memmove
M0h:_GC_log_printf
Wff:_CodeAccessPermission_ToString_m3345031296
t$e:_FtpWebRequest__ctor_m3003551676
XRb:__Z52Register_UnityEngine_ScriptableObject_CreateInstancev
q4b:__ZN5physx2Gu17contactSphereMeshERKNS0_13GeometryUnionES3_RKNS_11PxTransformES6_RKfRNS0_5CacheERNS0_13ContactBufferE
VHe:_EncryptedPrivateKeyInfo__ctor_m832236482
yyc:__ZNK5physx12NpConstraint8getFlagsEv
PL:__ZN23DefaultMeshVertexFormatC2E17ShaderChannelMask
bxb:__ZL26Transfer_SimpleNativeClassI18StreamedBinaryReadILb1EE8GradientLb1EEvRK29SerializationCommandArgumentsR31RuntimeSerializationCommandInfo
zNd:_Single_Equals_m3359827399
Jid:__ZNK5physx10PxsContext17getCurrentCCDPassEv
xVf:_Thread_FreeLocalSlotValues_m2948667652
rTa:__ZNSt3__26vectorINS_4pairIN4core12basic_stringIcNS2_20StringStorageDefaultIcEEEES6_EE13stl_allocatorIS7_L18MemLabelIdentifier37ELi16EEE12__move_rangeEPS7_SC_SC_
wgd:__ZN5physx29createFinalizeSolverContacts4EPPNS_13PxcNpWorkUnitERNS_18PxcNpThreadContextEPPNS_23PxcSolverConstraintDescEPPKNS_13PxcSolverBodyESB_PPKNS_17PxcSolverBodyDataESF_PPKNS_12PxsRigidCoreESJ_ffffRNS_25PxsConstraintBlockManagerENS_14PxFrictionType4EnumE
UDc:__ZNK5physx7NpCloth13getGlobalPoseEv
iBc:__ZN5physx9NpFactory18createArticulationEv
nMb:__ZZL23RegisterLightPropertiesR22GenericPropertyBindingEN18Wrapper_LightRange13GetFloatValueEPv
QQ:__ZN14FileCacherReadC2ERKN4core12basic_stringIcNS0_20StringStorageDefaultIcEEEEjj
zia:__ZN7ApiGLES10InvalidateERK14GfxContextGLES
PNc:__ZNK5physx14NpRigidDynamic10isSleepingEv
sPg:_InvokableCall_2_Invoke_m1071013389_gshared
N5b:__ZNK5physx2Gu15HeightFieldUtil18computeLocalBoundsERNS_9PxBounds3E
lcd:__ZN5physx9PxTaskMgr13taskCompletedERNS_6PxTaskE
CFe:_ASN1Convert_ToOid_m2695991795
T6h:__ZN6il2cpp2os5Mutex7TryLockEjb
QL:__Z20IsVectorBuiltinParamPKcPi
UVh:__ZN6il2cpp2vm5Field8GetFlagsEP9FieldInfo
j2c:__ZN5physx17PxcNpMemBlockPool7acquireERNS_6shdfnd5ArrayIPNS_13PxcNpMemBlockENS1_19ReflectionAllocatorIS4_EEEEPjS9_b
VBf:_InternalEnumerator_1_get_Current_m727737343_AdjustorThunk
OOh:__ZN6il2cpp6icalls8mscorlib6System10ReflectionL16LoadResourceFileEP24Il2CppReflectionAssembly
Htd:__ZNK12PhysXRaycast7OverlapERK8Vector3fS2_RK4AABBffPN5physx12PxOverlapHitEPS3_j
lg:_emscripten_glGetObjectParameterivARB
wI:__Z13IsFileCreatedRKN4core12basic_stringIcNS_20StringStorageDefaultIcEEEE
Q5h:__ZN6il2cpp6icalls8mscorlib6System21CurrentSystemTimeZone15GetTimeZoneDataEiPP11Il2CppArrayS6_
_Wh:__ZN15dense_hashtableINSt3__24pairIK10KeyWrapperIP12Il2CppObjectEN6il2cpp2gc9CachedCCWEEES5_NS7_5utils11PointerHashIS3_EEN14dense_hash_mapIS5_S9_SD_NS5_14EqualsComparerINS0_8equal_toIS4_EEEENS0_9allocatorISA_EEE9SelectKeyESI_SK_E5eraseE30dense_hashtable_const_iteratorISA_S5_SD_SM_SI_SK_E
PNd:_String__cctor_m710226597
Tbh:_AsyncOperation_InternalDestroy_m3312061823
EXf:_TimeSpan_Negate_m4198463235_AdjustorThunk
m3a:__ZN12FlareManager9AddCameraER6Camera
kpd:__ZN5physx2Gu11WriteHeaderEhhhhjbRNS_14PxOutputStreamE
qtf:_ParameterInfo_GetCustomAttributes_m2985072480
EJb:__ZNK9Transform22GetPositionAndRotationER8Vector3fR11Quaternionf
FBc:__ZNK5physx7PxShape19getConcreteTypeNameEv
Fdi:___divdi3
xDg:_ContextAttribute_GetHashCode_m3646968314
uCe:_SimpleCollator_GetSortKey_m540875593
QEb:__ZN9ShaderLab9IntShader26CreateFromSerializedShaderERKNS_16SerializedShaderERNSt3__26vectorI4PPtrI6ShaderENS4_9allocatorIS8_EEEEbPS7_
iCa:__ZN19ShaderPropertySheet16SetComputeBufferEN9ShaderLab16FastPropertyNameE15ComputeBufferIDNS_8SetFlagsE
e5d:_Convert_ToByte_m1571267017
suc:__ZN5physx2Sc8BodyCore13setBody2WorldERKNS_11PxTransformE
L_h:__ZNK15dense_hashtableINSt3__24pairIK10KeyWrapperIPK19Il2CppGenericMethodEP10MethodInfoEES6_N6il2cpp8metadata23Il2CppGenericMethodHashEN14dense_hash_mapIS6_S9_SD_NS6_14EqualsComparerINSC_26Il2CppGenericMethodCompareEEENS0_9allocatorISA_EEE9SelectKeyESH_SJ_E5beginEv
eLg:_Collection_1_set_Item_m3489932746_gshared
AVf:_Thread_GetCachedCurrentCulture_m450033007
ONa:__ZL12CullGroupJobP20CullingGroupsJobDataj
S1h:_GC_remove_dangling_disappearing_links
QC:__ZN11UnityEngine15CloudWebService14RestDownloader9IsAbortedEv
Fk:_emscripten_glNormalPointer
w7e:_Interval_t2354235237_marshal_pinvoke_back
Fo:FUNCTION_TABLE_i
yde:_Decimal_ToString_m541380585_AdjustorThunk
uV:__ZN11TypeManager12RegisterTypeERK20TypeRegistrationDesc
pn:FUNCTION_TABLE_v
Ieb:__ZNSt3__26vectorI17BlendShapeChannelNS_9allocatorIS1_EEE8__appendEj
Ibh:_AssetBundleCreateRequest_get_assetBundle_m2931245245
muc:__ZN5physx2Sc8BodyCore22addSpatialAccelerationEPNS_6shdfnd4PoolINS0_12SimStateDataENS2_19ReflectionAllocatorIS4_EEEEPKNS_6PxVec3ESB_
Lp:__ZN18StreamedBinaryReadILb0EE21TransferSTLStyleArrayI13dynamic_arrayI8Vector3fLj4EEEEvRT_17TransferMetaFlags
g8:__ZN21LightProbeProxyVolume13GetRenderDataER27LightProbeProxyVolumeSample
Dzh:__ZN6il2cpp2vm7Runtime30CallUnhandledExceptionDelegateEP12Il2CppDomainP14Il2CppDelegateP15Il2CppException
W_c:__ZN5physx13PxsCCDContext7destroyEv
Daf:_RemotingProxy_get_TypeName_m1400928020
mhb:__ZN11TimeManager8TransferI24GenerateTypeTreeTransferEEvRT_
zCe:_SortKeyBuffer_GetResult_m962852575
gCe:_SimpleCollator_Category_m1504096908
KBd:__ZN18UnityConnectClient17InitConnectClientEv
Zvf:_ArrayReadOnlyList_1_ReadOnlyError_m2158247090_gshared
f9h:_memcmp
kVd:_Array_double_swapper_m1175307080
zXc:__ZN5physx6shdfnd5ArrayIPNS_2Sc9ActorPairENS0_19ReflectionAllocatorIS4_EEE6resizeEjRKS4_
Yjh:_Rect_ToString_m2728794442
Bja:__ZN14DataBufferGLES12RecordRenderEv
J6:__ZN9Scripting32GetCachedPtrFromScriptingWrapperE18ScriptingObjectPtr
Pw:__ZN5audio5mixer22CreateAudioMixerMemoryERKNS0_18AudioMixerConstantEPN4FMOD6SystemERN7mecanim6memory9AllocatorEib
S_c:__ZN5physx6shdfnd8PoolBaseINS_2Cm5BlockIPvLj8EEENS0_19ReflectionAllocatorIS5_EEE15disposeElementsEv
$We:_RSASslSignatureDeformatter_VerifySignature_m3138484348
mPf:_Array_InternalArray__ICollection_CopyTo_TisDecimal_t724701077_m1087621311_gshared
MFf:_Enumerator_System_Collections_IDictionaryEnumerator_get_Value_m2325383168_AdjustorThunk
e$c:__ZN5physx17PxcNpMemBlockPool19swapFrictionStreamsEv
d8d:_Convert_ToInt64_m4280008532
tqc:__ZN5physx12_GLOBAL__N_122getImpulseResponseSimdERKNS_9PxcFsDataEjNS_6shdfnd3aos5Vec3VES6_
zca:__ZL20ShaderWarmupFuncImplP6ShaderiPN9ShaderLab4PassERK16ShaderKeywordSetP10DynamicVBOPvR17ShaderPassContext
Shf:_HMAC_set_Key_m1530357889
lxd:__ZN13ProduceHelperI11BoxColliderLb0EE7ProduceE18MemLabelIdentifier18ObjectCreationMode
Zrh:__ZN15dense_hashtableI10KeyWrapperIPK17Il2CppGenericInstES4_N6il2cpp8metadata21Il2CppGenericInstHashEN14dense_hash_setIS4_S7_NS4_14EqualsComparerINS6_24Il2CppGenericInstCompareEEENSt3__29allocatorIS4_EEE8IdentityESB_SE_E6insertERKS4_
SCh:__ZN15dense_hashtableINSt3__24pairIK10KeyWrapperINS1_IPK14Il2CppAssemblyP11Il2CppClassEEEjEES9_17ReflectionMapHashIS8_EN14dense_hash_mapIS9_jSD_NS9_14EqualsComparerINS0_8equal_toIS8_EEEENS0_9allocatorISB_EEE9SelectKeyESI_SK_E3endEv
Cfi:dynCall_iiii
Cja:__ZN14DataBufferGLES12RecordUpdateEv
Utf:_ResourceManager__cctor_m2190112652
Ubd:__ZN5physx2Gu33generateSphereFullContactManifoldERKNS0_8CapsuleVERNS0_13PolygonalDataEPNS0_12SupportLocalEPNS0_17PersistentContactERjRKNS_6shdfnd3aos6FloatVERNSC_5Vec3VEb
KTb:__Z34MonoBehaviour_CUSTOM_StopCoroutineP12Il2CppObjectP12Il2CppString
GOa:__ZN10systeminfo19IsPlatformWebPlayerE15RuntimePlatform
PTh:__ZN6il2cpp2vm12GenericClass12SetupMethodsEP11Il2CppClass
yH:__ZNK20LocalFileSystemPosix18GetApplicationPathEv
D6d:_Decimal__ctor_m3876694886
dnb:__ZN9Scripting30IsSystemCollectionsGenericListE17ScriptingClassPtr
vMb:__ZZL23RegisterLightPropertiesR22GenericPropertyBindingEN28Wrapper_LightShadowNearPlane13GetFloatValueEPv
QKf:_Array_InternalArray__ICollection_Contains_TisIntPtr_t_m3256777387_gshared
Eue:_MemoryStream_WriteByte_m3737173846
RQa:__ZN10GameObject16CheckConsistencyEv
yoc:__ZN5physx9NpPhysics23notifyDeletionListenersEPKNS_6PxBaseEPvNS_19PxDeletionEventFlag4EnumE
RJb:__ZN14RenderSettings15InitializeClassEv
H1e:_AsnEncodedData_set_Oid_m3568255745
Ghc:__ZN5physx6shdfnd5ArrayIPvNS0_19ReflectionAllocatorINS_2Sc24ElementInteractionMarkerEEEE15growAndPushBackERKS2_
elb:__ZN20ArchiveStorageHeader11WriteHeaderER12FileAccessorRKNS_6HeaderE
PXe:_SslClientStream_OnRemoteCertificateValidation2_m3416857045
jcd:__ZN5physx9PxTaskMgr15startSimulationEv
Wef:_RuntimeTypeHandle_Equals_m452760426_AdjustorThunk
zOd:_String_TrimStart_m710830036
dFd:__Z3BoxP11Il2CppClassPv
Hie:_CultureInfo_Clone_m2970753766
R6e:_IntStack_Push_m1259764820
Fpa:__ZN21UniformBufferTFMethodD2Ev
Ase:_FileStream_InitBuffer_m2153931481
lZf:_Type_MakeGenericType_m2765875033
JTb:__ZN13MonoBehaviour14StartCoroutineEPKc18ScriptingObjectPtr
Bkd:__ZN5physx9NpFactory24releaseClothFabricToPoolERNS_13NpClothFabricE
A3:__ZN6prcoreL12RemapGenericI15TexFormatRGB56515TexFormatRGB888EEvPKNS_9InnerInfoE
d5h:__ZN6il2cpp5utils10MemoryPool9AddRegionEj
rje:_NumberFormatter_GetInstance_m2421260460
rBb:__ZNSt3__26vectorIN9ShaderLab26SerializedShaderDependencyENS_9allocatorIS2_EEE8__appendEj
Z6g:__Z113RuntimeInvoker_Boolean_t3825574718_Ray_t2469606224_RaycastHitU26_t1969197280_Single_t2076509932_Int32_t2071877448PK10MethodInfoPvPS2_
fAf:_InternalEnumerator_1_System_Collections_IEnumerator_get_Current_m4242639349_gshared
IR:__ZN32TransformHierarchyChangeDispatch26DispatchSelfAndAllChildrenE15TransformAccessNS_12InterestTypeE
PPd:_UTF32Encoding__ctor_m3199945978
aT:__ZN13RuntimeStaticI22VirtualJoystickManagerLb0EE13StaticDestroyEPv
Ct:__ZN13AudioListener12ApplyFiltersEv
R4c:__ZN5physxL32solveContactCoulomb4_StaticBlockEPKNS_23PxcSolverConstraintDescERNS_16PxcSolverContextE
UGc:__ZN5physx2Sc9ClothCore18addCollisionSphereERKNS_22PxClothCollisionSphereE
_le:_SortKey_GetHashCode_m2534654444
PKf:_Array_InternalArray__ICollection_Contains_TisInt64_t909078037_m1425723755_gshared
BUe:_HandshakeMessage_Update_m1733566706
yfi:dynCall_viiif
F6h:__ZN6il2cpp8metadata27Il2CppGenericContextCompare7CompareEPK20Il2CppGenericContextS4_
Kei:dynCall_viiii
q$d:_ArrayListWrapper_ToArray_m235921330
Kqc:__ZN5physx26PxcArticulationFnsSimdBase16translateInertiaENS_6shdfnd3aos5Vec3VERKNS_12PxcFsInertiaE
Ged:__ZNK23PxsCMDiscreteUpdateTask7getNameEv
kOe:_ARC4Managed_set_Key_m663161993
Zpf:_MemberInfoSerializationHolder_Serialize_m4243060728
Gtd:__ZN12PhysXRaycast7GetAABBER4AABBRKN5physx12PxOverlapHitE
rNh:__ZNSt3__214__split_bufferIN6il2cpp2vm17TypeNameParseInfoERNS_9allocatorIS3_EEED2Ev
cZf:_Type_GetConstructor_m663514781
xpe:_Int64_System_IConvertible_ToDouble_m638786774_AdjustorThunk
ML:__ZN15DirectorManager14ConnectionPool16GrowEmptyBucketsEv
goe:_Int16_ToString_m1247017262
VN:__ZN17PersistentManager32CopyToAwakeFromLoadQueueInternalER18AwakeFromLoadQueue
eee:_Delegate_Combine_m1976351882
U_f:_UInt32_System_IConvertible_ToUInt16_m2798641702
mZb:__ZL26Transfer_SimpleNativeClassI8JSONRead8GradientLb1EEvRK29SerializationCommandArgumentsR31RuntimeSerializationCommandInfo
J9h:_open
Rgc:__ZN5physx2Sc10NPhaseCore33releaseActorPairContactReportDataEPNS0_26ActorPairContactReportDataE
J6d:_Decimal_ThrowInvalidExp_m3430267638
lUb:__Z35Transform_Get_Custom_PropChildCountP12Il2CppObject
KSa:__Z30GetPlayerShouldRunInBackgroundv
R0f:_UnitySerializationHolder__ctor_m2832165173
MSd:_UnicodeEncoding_GetBytes_m4175529985
nL:__ZZN15DirectorManager15InitializeClassEvEN47PreLateUpdateDirectorUpdateAnimationBeginstruct7ForwardEv
u3:__ZN6prcoreL12RemapGenericI11TexFormatI815TexFormatRGB565EEvPKNS_9InnerInfoE
Goc:__ZN5physx6shdfnd8PoolBaseINS_12NpConstraintENS0_19ReflectionAllocatorIS2_EEE17releaseEmptySlabsEv
Dda:__ZNK13TranslateGLES17FramebufferTargetEN2gl17FramebufferTargetE
EYh:__ZL11on_gc_event11GCEventType
SKh:__ZNSt3__214__split_bufferIN6il2cpp8metadata18GenericArrayMethodERNS_9allocatorIS3_EEED2Ev
PMd:_Single_System_IConvertible_ToBoolean_m2661548087_AdjustorThunk
whf:_DSASignatureDeformatter_VerifySignature_m4078616251
aki:b62
$ji:b61
Rii:b60
lki:b67
ZNf:_Array_InternalArray__IndexOf_TisUInt16_t986882611_m390127593_gshared
dki:b65
oPd:_String_Concat_m3881798623
mki:b68
Gmf:_FieldBuilder_IsDefined_m2730324893
kjg:__ZL56FlagsAttribute_t859561169_CustomAttributesCacheGeneratorP21CustomAttributesCache
j0a:__ZN21ArchiveStorageCreator10BeginBlockEb15CompressionType16CompressionLevelj
ugd:__ZN5physx33setupFinalizeExtSolverConstraintsERNS_13PxcNpWorkUnitERKNS_2Gu13ContactBufferERKNS_20PxcCorrelationBufferERKNS_11PxTransformESB_bPhRKNS_16PxsSolverExtBodyESF_RKNS_17PxcSolverBodyDataESI_ffffff
Kzg:_ExternalException__ctor_m1618796018
Dih:_Object_FindSceneObjectsOfType_m1833688338
lX:__Z28SetupPixelCorrectCoordinatesv
sOb:__ZNSt3__218__insertion_sort_3IRN10vector_mapIiiNS_4lessIiEE13stl_allocatorINS_4pairIiiEEL18MemLabelIdentifier1ELi16EEE13value_compareEPS6_EEvT0_SD_T_
eja:__Z5SplitRKN4core12basic_stringIcNS_20StringStorageDefaultIcEEEEcRNSt3__26vectorIS3_NS6_9allocatorIS3_EEEEi
HGc:__ZNK5physx2Sc9ClothCore22getNbCollisionConvexesEv
Qxg:_RegularExpression_Compile_m3944989565
loh:__ZN6il2cpp2vmL10InitLockedEP11Il2CppClassRKNS_2os12FastAutoLockE
CNa:__ZN15LODGroupManager26CollectAllLODGroupManagersEPK6CameraR13dynamic_arrayIPS_Lj4EEb
aCc:__ZNK5physx7NpShape14getNbMaterialsEv
j5b:__Z24sweepBox_HeightFieldGeomRKN5physx10PxGeometryERKNS_11PxTransformERKNS_2Gu3BoxERKNS_6PxVec3EfRNS_10PxSweepHitENS_7PxFlagsINS_9PxHitFlag4EnumEtEEf
XCc:__ZN5physx3Scb5Shape6Access5writeINS0_11ShapeBuffer3FnsILj4ELj0EEEEEvRS1_RNS_2Sc9ShapeCoreENT_3ArgE
Tee:_Double_System_IConvertible_ToType_m4036266196_AdjustorThunk
Jt:__ZN12AudioManagerD0Ev
uhc:__ZN5physx2Sc10NPhaseCore32createActorPairContactReportDataEv
n9h:___fwritex
a7h:__ZN6il2cpp5utils35RegisterRuntimeInitializeAndCleanupC2EPFvvES3_i
wte:_Stream_EndRead_m2148943753
S_a:__ZN17ArchiveFileSystem14UnmountArchiveEP20ArchiveStorageReader
d7g:__Z98RuntimeInvoker_Il2CppObject_Ray_t2469606224_Single_t2076509932_Int32_t2071877448_Int32_t2071877448PK10MethodInfoPvPS2_
IJb:__ZN6ShaderC2E18MemLabelIdentifier18ObjectCreationMode
JVg:__Z99RuntimeInvoker_Int32_t2071877448_Int32_t2071877448_Int32_t2071877448_Int32_t2071877448_Il2CppObjectPK10MethodInfoPvPS2_
ixa:__ZN11TypeManager18InitializeAllTypesEv
Rr:__ZN9AudioClipD0Ev
wBh:_il2cpp_class_from_name
vgh:_RenderPipelineManager_DoRenderLoop_Internal_m2267530247
a$c:__ZN5physx16PxsThreadContextD2Ev
f0f:_UInt64_ToString_m794467354
PHb:__Z13RegisterClassI8GUILayerEvv
mXa:__ZN25ThreadsafeLinearAllocatorC2EiiPKc
UCe:_SimpleCollator_IsSuffix_m740049399
z8e:_ReturnMessage__ctor_m4106714265
zna:__ZN14GfxContextGLES11MakeCurrentER7ApiGLESN2gl13ContextHandleE
IRg:_PKCS12__cctor_m3312759338
LSe:_RecordProtocol_BeginSendRecord_m166940611
$ye:_ShortComparer_Compare_m1398180168
_0b:__ZN5physx2Cm12RenderOutput13outputCapsuleEffRKNS0_8Matrix34E
PLa:__ZNSt3__211__sift_downIR26RenderDeferredObjectSorterP16RenderObjectDataEEvT0_S5_T_NS_15iterator_traitsIS5_E15difference_typeES5_
oih:_Object_Internal_InstantiateSingleWithParent_m509082884
AAa:_UNITY_png_check_IHDR
uca:__ZN16GraphicsSettings22WarmupPreloadedShadersEv
Kue:_MonoIO_get_ConsoleError_m592181393
F3g:__Z59RuntimeInvoker_Il2CppObject_Single_t2076509932_Il2CppObjectPK10MethodInfoPvPS2_
kXe:_SslCipherSuite_prf_m2084589217
Nec:__ZN5physx11NpAggregateD0Ev
tzc:__ZNK5physx10PxMaterial19getConcreteTypeNameEv
aEh:__ZN6il2cpp2gc19AppendOnlyGCHashMapIPK10Il2CppTypeP20Il2CppReflectionTypeNS_8metadata14Il2CppTypeHashENS7_26Il2CppTypeEqualityComparerEE3AddERKS4_S6_
vA:__ZN11UnityEngine15CloudWebService17CloudJobScheduler11ScheduleJobEPFvPvES2_
RQc:__ZN5physx2Cm29ConstraintImmediateVisualizer20visualizeJointFramesERKNS_11PxTransformES4_
Pme:_Guid_Equals_m2389236871_AdjustorThunk
EB:__ZN11UnityEngine15CloudWebService17CloudServiceEvent12ToJsonStringER9JSONWrite
AAc:__ZNK5physx9NpPhysics15getClothFabricsEPPNS_13PxClothFabricEj
yT:__ZNK18VertexChannelsInfoltERKS_
wfg:__ZL93ASCIIEncoding_t3022927988_CustomAttributesCacheGenerator_ASCIIEncoding_GetDecoder_m3693600923P21CustomAttributesCache
jlc:__ZN5physx6shdfnd5ArrayIPNS_2Sc7BodySimENS0_19ReflectionAllocatorIS4_EEE15growAndPushBackERKS4_
Nfa:__ZN13GfxDeviceGLES15UploadTexture3DE9TextureIDPKhiiii13TextureFormati18TextureUploadFlags
Vxc:__ZN5physx2Sq13getGlobalPoseERKNS_3Scb5ShapeERKNS1_5ActorE
Zud:__ZN5physx7profile11EventHeader9streamifyINS0_15EventSerializerINS0_12MemoryBufferINS0_21WrapperNamedAllocatorEEEEEEEvRT_
t6g:__Z71RuntimeInvoker_Single_t2076509932_Single_t2076509932_Single_t2076509932PK10MethodInfoPvPS2_
sVb:__ZN9JSONWrite8TransferIfEEvRT_PKc17TransferMetaFlags
h9b:__ZN5physx2Gu21SweepCapsuleTrianglesEjPKNS_10PxTriangleEbRKNS_17PxCapsuleGeometryERKNS_11PxTransformERKNS_6PxVec3EfPKjRSA_SF_RfRjfNS_7PxFlagsINS_9PxHitFlag4EnumEtEE
Fua:__ZN10MemoryFileD0Ev
Gug:_Regex__ctor_m2794328522
pbd:__ZN5physx2Gu19gjkLocalPenetrationINS0_8CapsuleVENS0_11ConvexHullVEEEjRKT_RKT0_RKNS_6shdfnd3aos6FloatVERNSB_5Vec3VESG_SG_RSC_PhSI_Rhb
Jgf:_DES_set_Key_m2689203108
vOa:__Z23DrawSplashAndWatermarksv
_Qg:_SubjectAltNameExtension_ToString_m1300810903
tIe:_RSAManaged_ImportParameters_m2382611442
Zpb:__ZN13GUIStyleState8TransferI14SafeBinaryReadEEvRT_
zEf:_Comparer_1_System_Collections_IComparer_Compare_m2490067344_gshared
Ttg:_PatternCompiler_EmitSet_m866698437
Hd:_glDrawArrays
Muc:__ZN5physx2Cm8PtrTable15replaceWithLastEjRNS0_22PtrTableStorageManagerE
vzf:_InternalEnumerator_1_System_Collections_IEnumerator_get_Current_m127456009_AdjustorThunk
_Zg:__Z92RuntimeInvoker_Void_t1841601450_DateTime_t693205669_DateTime_t693205669_TimeSpan_t3430258949PK10MethodInfoPvPS2_
gbc:__ZN5physx3Cct26CharacterControllerManager17releaseControllerERNS_12PxControllerE
$Ob:__Z17InstantiateObjectR6ObjectR9TransformRK8Vector3fRK11Quaternionf
BOf:_Array_InternalArray__ICollection_Add_TisInt32_t2071877448_m1775306598_gshared
qLf:_Array_InternalArray__ICollection_Remove_TisChar_t3454481338_m1562002771_gshared
tpe:_Int64_System_IConvertible_ToDateTime_m1002280174_AdjustorThunk
Xeb:__ZN14BlendShapeData8TransferI18StreamedBinaryReadILb0EEEEvRT_
S7h:__ZN6il2cpp6icalls8mscorlib6System7Runtime8Remoting7Proxies9RealProxy20InternalGetProxyTypeEP12Il2CppObject
ICa:__ZN13sorted_vectorINSt3__24pairIiN17InstancedPropInfo12PropertyTypeEEEN10vector_mapIiS3_NS0_4lessIiEE13stl_allocatorIS4_L18MemLabelIdentifier1ELi16EEE13value_compareESA_E21sort_clear_duplicatesEv
Mth:__ZN15dense_hashtableINSt3__24pairIK10KeyWrapperIPK11Il2CppClassEPKcEES6_N6il2cpp5utils11PointerHashIS3_EEN14dense_hash_mapIS6_S9_SE_NS6_14EqualsComparerINS0_8equal_toIS5_EEEENS0_9allocatorISA_EEE9SelectKeyESJ_SL_E12maybe_shrinkEv
mZg:__Z66RuntimeInvoker_Il2CppObject_Il2CppObject_DSAParameters_t1872138834PK10MethodInfoPvPS2_
cdd:__ZN5physx2Sc17ParticleSystemSim21scheduleCollisionPrepERNS0_16InteractionSceneERKNS_6shdfnd5ArrayIPS1_NS4_19ReflectionAllocatorIS6_EEEERNS_10PxBaseTaskE
lZg:__Z103RuntimeInvoker_Boolean_t3825574718_Il2CppObject_Il2CppObject_Il2CppObject_Il2CppObject_SByte_t454417549PK10MethodInfoPvPS2_
n$b:__ZN9rapidjson6WriterI16TempBufferWriterNS_4UTF8IcEES3_13JSONAllocatorE9WriteBoolEb
SSb:__Z35DebugLogHandler_CUSTOM_Internal_Log7LogTypeP12Il2CppStringP12Il2CppObject
Tad:__ZN5physx2Gu25PersistentContactManifold24addBatchManifoldContactsEPKNS0_17PersistentContactEj
Gma:__ZL17ProgramUniform3ivPK7ApiGLESjiihPKv
tfa:__ZN9GfxDevice25GetBackBufferColorSurfaceEv
Xua:__ZN25SingleBlockMemoryFileData9SetLengthEy
EOb:__Z29AwakeAndActivateClonedObjectsPP6ObjectRK10vector_mapIiiNSt3__24lessIiEE13stl_allocatorINS3_4pairIiiEEL18MemLabelIdentifier1ELi16EEE
R5g:__Z91RuntimeInvoker_Void_t1841601450_Il2CppObject_Il2CppObject_SByte_t454417549_SByte_t454417549PK10MethodInfoPvPS2_
BZc:__ZN5physx2Sc5Scene27setCCDContactModifyCallbackEPNS_26PxCCDContactModifyCallbackE
k0g:__Z117RuntimeInvoker_Void_t1841601450_Il2CppObject_Int64_t909078037_Il2CppObject_Int64_t909078037_Il2CppObject_Il2CppObjectPK10MethodInfoPvPS2_
gIb:__Z13RegisterClassI6ShaderEvv
epd:__ZNK5physx17ConvexMeshBuilder4saveERNS_14PxOutputStreamEb
Hne:_Int16_System_IConvertible_ToUInt32_m883204517
muf:_ResourceCacheItem_t333236149_marshal_pinvoke_cleanup
dM:__ZN13RuntimeStaticI11WindManagerLb0EE13StaticDestroyEPv
bXb:__Z18Transfer_BlittableI9JSONWriteLb1EaEvRK29SerializationCommandArgumentsR31RuntimeSerializationCommandInfo
HIh:__ZN13Il2CppHashMapINSt3__24pairIPK10MethodInfoP11Il2CppClassEEj17ReflectionMapHashIS7_ENS0_8equal_toIS7_EENS0_9allocatorINS1_IK10KeyWrapperIS7_EjEEEEEC2EjRKS9_RKSB_
h_d:_ArrayList_set_Item_m1858827078
U8:__ZN9Texture3D23VirtualRedirectTransferER19StreamedBinaryWriteILb0EE
yOe:_HMAC__ctor_m2605930831
oC:__ZN11UnityEngine15CloudWebService10RestClientINS0_16WWWRestHeaderMapEE17GetResponseHeaderERKN4core12basic_stringIcNS4_20StringStorageDefaultIcEEEE
mie:_CompareInfo_internal_index_switch_m3568425406
dKa:__ZNK23ForwardShaderRenderLoop18RenderObjectSorterILb1EEclERK21ForwardRenderPassDataS4_
zth:__ZN15dense_hashtableI10KeyWrapperIPK19Il2CppGenericMethodES4_N6il2cpp8metadata23Il2CppGenericMethodHashEN14dense_hash_setIS4_S7_NS4_14EqualsComparerINS6_26Il2CppGenericMethodCompareEEENSt3__29allocatorIS4_EEE8IdentityESB_SE_E12maybe_shrinkEv
wjd:__ZNK5physx2Sc19ParticlePacketShape13getFilterInfoERjRNS_12PxFilterDataE
uqa:__ZN10BufferGLES10BeginWriteEjj
yth:__ZNK15dense_hashtableI10KeyWrapperIPK19Il2CppGenericMethodES4_N6il2cpp8metadata23Il2CppGenericMethodHashEN14dense_hash_setIS4_S7_NS4_14EqualsComparerINS6_26Il2CppGenericMethodCompareEEENSt3__29allocatorIS4_EEE8IdentityESB_SE_E12test_deletedEj
VJa:__ZN21BillboardBatchManager24AutoBillboardShaderPropsC2ER16ShaderKeywordSetR24BuiltinShaderParamValues
GJh:__GLOBAL__sub_I_ArrayMetadata_cpp
r$f:_UInt64_System_IConvertible_ToByte_m953298241
tqa:__ZN7ApiGLES11FlushBufferEjN2gl12BufferTargetEll
t9d:_Convert_ToUInt64_m1896191125
Tqb:__ZN14SafeBinaryRead21TransferSTLStyleArrayI13dynamic_arrayI8BitFieldLj4EEEEvRT_17TransferMetaFlags
Pna:__ZN12_GLOBAL__N_127PrepareReadback_ResolveMSAAER18GfxFramebufferGLESR7ApiGLESP17RenderSurfaceGLESS5_
Plf:_EnumBuilder_GetAttributeFlagsImpl_m4263246832
lkf:_CustomAttributeData_GetHashCode_m3989739430
rLb:__ZNK24RendererAnimationBinding9BindValueER6ObjectRKN11UnityEngine9Animation14GenericBindingERNS3_10BoundCurveE
Ge:_glBindBuffer
Mzb:__ZN8GUIStyle8TransferI18StreamedBinaryReadILb0EEEEvRT_
fU:__ZNSt3__213__stable_sortIRN10vector_mapIijNS_4lessIiEENS_9allocatorINS_4pairIijEEEEE13value_compareENS_11__wrap_iterIPS6_EEEEvT0_SE_T_NS_15iterator_traitsISE_E15difference_typeEPNSH_10value_typeEi
FOf:_Array_InternalArray__ICollection_Add_TisCustomAttributeNamedArgument_t94157543_m1003067274_gshared
h0c:__ZNK5physx2Sq12BucketPruner10getPayloadERKj
h7c:__ZN9BoxPruner14findOverlapsMTER15MBP_PairManagerPKjPK10MBP_Object
z7:__ZN18LoadSceneOperation13CleanupMemoryEv
U8h:_isupper
fjf:_AssemblyName__ctor_m609734316
mWc:__ZN5physx13NpVolumeCache21setMaxNbDynamicShapesEj
f1:__ZNSt3__26__treeINS_12__value_typeIN9ShaderLab16FastPropertyNameEN18UnityPropertySheet11UnityTexEnvEEENS_19__map_value_compareIS3_S6_NS_4lessIS3_EELb1EEENS_9allocatorIS6_EEE7destroyEPNS_11__tree_nodeIS6_PvEE
qYe:_InternalAsyncResult_get_IsCompleted_m1463732458
znc:__ZN5physx6shdfnd5ArrayINS_6PxVec3ENS0_19ReflectionAllocatorIS2_EEE6resizeEjRKS2_
rbi:_getuid
tIb:__Z13RegisterClassI10MonoScriptEvv
uHe:_AttrListImpl__ctor_m3211398293
H0b:__ZNK5physx3Cct10Controller16getInternalStatsERNS_17PxControllerStatsE
tSd:_StringBuilder_get_Chars_m256627635
SUf:_EventWaitHandle_Set_m2975776670
Lzh:__ZN6il2cpp6icalls8mscorlib6System8MonoType22get_IsGenericParameterEP20Il2CppReflectionType
Gpb:__Z34scripting_class_array_element_size17ScriptingClassPtr
A0c:__ZN5physx2Sq16BucketPrunerNode13classifyBoxesEffjPNS0_9BucketBoxEPKNS0_13PrunerPayloadES3_PS4_bj
Ire:_MonoIO_GetException_m957022672
P1:__ZN18StreamedBinaryReadILb0EE19TransferSTLStyleMapINSt3__23mapIN9ShaderLab16FastPropertyNameE10ColorRGBAfNS2_4lessIS5_EENS2_9allocatorINS2_4pairIKS5_S6_EEEEEEEEvRT_17TransferMetaFlags
Bod:__ZL19ExtractHullPolygonsRjRN5physx2Gu9ContainerERKNS0_17ConvexHullBuilderEPS2_S3_
g3e:_X509Certificate2_GetValueAsString_m1286925493
JZd:_Char_ToLower_m2719897546
qRf:_Array_InternalArray__set_Item_TisHitInfo_t1761367055_m2693590376_gshared
wfc:__ZN5physx2Sc7Element20createLowLevelVolumeEjRKNS_9PxBounds3EjRKNS_9AABBMgrIdE
zze:_MonoType_IsPointerImpl_m648213545
Ske:_InvalidOperationException__ctor_m2801133788
CSa:__ZN13RenderManager28AreCamerasUsingMotionVectorsEv
GZa:__Z24GetAssetBundleFileSystemv
lT:__Z25InitializeLODGroupManagerPv
WOf:_Array_InternalArray__ICollection_Add_TisUriScheme_t1876590943_m3218110478_gshared
wDa:__ZNK12ImageFilters28ApplyAfterTransparentFiltersEv
Fzd:__ZN11UnityEngine7Connect15AppRunningEvent12ToJsonStringER9JSONWrite
jM:__ZN19ShaderPropertySheet5ClearEb
lVe:_TlsServerCertificate_ProcessAsTls1_m3083203628
THa:__ZNK6Camera11GetPositionEv
v4c:__ZNK5physx20PxsSolverCoreGeneral26solveVParallelAndWriteBackEfjjPNS_13PxcSolverBodyEPNS_17PxcSolverBodyDataEjjPNS_25PxcArticulationSolverDescEjPNS_23PxcSolverConstraintDescEjPiS9_S9_S9_PNS_25PxcThresholdStreamElementEjS9_RKNS_6shdfnd5ArrayINS_24PxsConstraintBatchHeaderENSC_19ReflectionAllocatorISE_EEEESJ_RKNSD_IjNSF_IjEEEEPNS_2Cm13SpatialVectorERij
imi:_emscripten_glClearDepth__wrapper
u8d:_Convert_ToSByte_m1880147062
QVa:__ZNK16MemoryFileSystem8FilenameERK13FileEntryData
Lf:_glUniform1fv
Pf:_JS_FileSystem_Sync
JEd:_MD5CryptoServiceProvider_HashCore_m2367253552
dia:__ZNSt3__26__treeINS_12__value_typeI21GLESRenderTargetSetupN2gl6HandleILNS3_10ObjectTypeE9EEEEENS_19__map_value_compareIS2_S7_NS_4lessIS2_EELb1EEENS_9allocatorIS7_EEE7destroyEPNS_11__tree_nodeIS7_PvEE
XSg:_X509StoreManager_get_TrustedRootCertificates_m122138510
DPg:_UnityAction_1_BeginInvoke_m530778538_gshared
f4c:__ZN5physx2Gu22gjkRelativePenetrationINS0_8CapsuleVES2_EEjRKT_RKT0_RKNS_6shdfnd3aos15PsMatTransformVERKNSA_6FloatVERNSA_5Vec3VESI_SI_RSE_PhSK_Rh
bJc:__ZN5physx15NpParticleFluid12setStiffnessEf
Nf:__emscripten_sample_gamepad_data
$Ib:__Z22DelayedDestroyCallbackP6ObjectPv
JNc:__ZN5physx14NpRigidDynamic16setLinearDampingEf
gGc:__ZN5physx2Sc9ClothCore22setSleepLinearVelocityEf
UP:__Z34scripting_class_get_declaring_type17ScriptingClassPtr
ABd:__ZN11UnityEngine7Connect20BasePersistentValues13RestoreValuesER8JSONRead
TPe:_KeyGeneratedEventHandler_Invoke_m1298576133
bhb:__ZN11TimeManagerD0Ev
Pdd:__ZN5physx2Sc10NPhaseCore26createRbElementInteractionERNS0_8ShapeSimES3_
N8a:__ZN9Texture2D16DeleteGfxTextureEv
NG:__ZN20LocalFileSystemPosix4OpenER13FileEntryData14FilePermission16FileAutoBehavior
sOe:_KeyBuilder_get_Rng_m2539978716
Z_c:__ZN5physx6shdfnd8PoolBaseINS_2Gu30LargePersistentContactManifoldENS0_19ReflectionAllocatorIS3_EEE15disposeElementsEv
EQc:__ZN5physx6shdfnd5ArrayIPNS_2Sc17ParticleSystemSimENS0_19ReflectionAllocatorIS4_EEE15growAndPushBackERKS4_
jOb:__Z37GetTransformFromComponentOrGameObjectP6Object
$Ff:_ShimEnumerator_get_Current_m2516732679_gshared
IQa:__ZN23ManagedAttributeManager21GetRequiredComponentsE17ScriptingClassPtr
lCa:__ZL22SetCurrentRenderTargetP13RenderTextureNS_14SetActiveFlagsE11CubemapFace
MTa:__Z23InitializeStdConvertersv
UKb:__ZL33AllowIdentityTransformDestructionv
e2b:__ZNK5physx2Gu15HeightFieldUtil11getTriangleERKNS_11PxTransformERNS_10PxTriangleEPjS7_jbb
Mve:_StreamReader_FindNextEOL_m3591898772
iUh:__ZNK10KeyWrapperINSt3__24pairIPKcS3_EEE14EqualsComparerI26NamespaceAndNamePairEqualsEclERKS5_SA_
Hee:_StackTrace__ctor_m772333217
RBc:__ZNK5physx7NpShape23getTriangleMeshGeometryERNS_22PxTriangleMeshGeometryE
RJe:_X509CertificateEnumerator__ctor_m1500464146
rYf:_Type_get_IsPointer_m3832342327
cQh:__ZN6il2cpp2vm9Exception27GetExecutionEngineExceptionEPKc
dHf:_Dictionary_2_System_Collections_ICollection_CopyTo_m2784181332_gshared
Mjc:__ZN5physx2Sc11Interaction10initializeEv
eTc:__ZN5physx7NpScene7releaseEv
ah:_JS_WebRequest_GetResponseHeaders
GTa:__ZNSt3__26__treeINS_12__value_typeI26SerializedObjectIdentifieriEENS_19__map_value_compareIS2_S3_NS_4lessIS2_EELb1EEENS_9allocatorIS3_EEE7destroyEPNS_11__tree_nodeIS3_PvEE
cDh:__ZN15dense_hashtableINSt3__24pairIK10KeyWrapperINS1_IPK14Il2CppAssemblyP11Il2CppClassEEEjEES9_17ReflectionMapHashIS8_EN14dense_hash_mapIS9_jSD_NS9_14EqualsComparerINS0_8equal_toIS8_EEEENS0_9allocatorISB_EEE9SelectKeyESI_SK_EC2ERKSN_j
g3:__Z19IsHalfTextureFormat13TextureFormat
EPb:__ZN9Scripting18RaiseNullExceptionEPKcz
UU:__ZN13RuntimeStaticI13RendererSceneLb0EE16StaticInitializeEPv
ejd:__ZN5physx2Cm12DelegateTaskINS_2Sc5SceneEXadL_ZNS3_11postCCDPassEPNS_10PxBaseTaskEEEE11runInternalEv
lh:_glCreateProgram
mHh:__ZN6il2cpp2vm10Reflection7IsFieldEP12Il2CppObject
N$d:_SimpleEnumerator_Reset_m3524591211
R1a:__ZN24GenerateTypeTreeTransfer32TransferSTLStyleArrayWithElementI17SortingLayerEntryEEvRT_17TransferMetaFlags
j5g:__Z70RuntimeInvoker_Boolean_t3825574718_Int32_t2071877448_Int16_t4041245914PK10MethodInfoPvPS2_
Rhi:_glUniformMatrix3fv__wrapper
J3a:__ZN5Light9SetupHaloEv
Zwb:__Z18Transfer_BlittableI18StreamedBinaryReadILb1EELb1E12PropertyNameEvRK29SerializationCommandArgumentsR31RuntimeSerializationCommandInfo
zMd:_SecurityFrame__ctor_m3738328608_AdjustorThunk
hIh:__ZN15dense_hashtableINSt3__24pairIK10KeyWrapperIPK22Il2CppGenericParameterEPK24MonoGenericParameterInfoEES6_N6il2cpp5utils11PointerHashIS4_EEN14dense_hash_mapIS6_SA_SF_NS6_14EqualsComparerINS0_8equal_toIS5_EEEENS0_9allocatorISB_EEE9SelectKeyESK_SM_EC2ERKSP_j
omc:__ZN5physx2Sc8RigidSimC2ERNS0_5SceneERNS0_9RigidCoreENS0_14IslandNodeInfo4TypeE
J9b:__ZN5physx6shdfnd10Foundation5errorENS_11PxErrorCode4EnumEPKciS5_z
wyc:__ZN5physx12NpConstraint9markDirtyEv
uS:__ZNSt3__26__treeINS_12__value_typeI18UnityInterfaceGUIDP15IUnityInterfaceEENS_19__map_value_compareIS2_S5_NS_4lessIS2_EELb1EEE13stl_allocatorIS5_L18MemLabelIdentifier6ELi16EEE7destroyEPNS_11__tree_nodeIS5_PvEE
$Kd:_EvidenceEnumerator_get_Current_m632582639
Dbd:__ZN5physx2Gu31generatedCapsuleBoxFaceContactsERKNS0_8CapsuleVERNS0_13PolygonalDataERKNS0_15HullPolygonDataEPNS0_12SupportLocalERKNS_6shdfnd3aos15PsMatTransformVEPNS0_17PersistentContactERjRKNSC_6FloatVERKNSC_5Vec3VE
sMa:__Z15CullLocalLightsR8JobFenceS0_RK22SceneCullingParametersiPK8Vector4fRK13dynamic_arrayIhLj1EER9IndexListSC_PfP5RectTIfEP13TargetEyeMaskPPK5LightRK14ShadowCullData
vMd:_DecoderFallback_get_ReplacementFallback_m2155645318
C_:__ZNK6Camera16GetTargetTextureEv
x6d:_Convert_ToDateTime_m3528521877
kqb:__Z35Transfer_Blittable_SingleValueFieldI14SafeBinaryReadyEvRT_R17GeneralMonoObjectRK23StaticTransferFieldInfo
DFa:__ZN13BatchRenderer12EndLoopFlushEv
Tfe:_Enum_System_IConvertible_ToChar_m1838232954
G4b:__ZN5physx2Gu22barycentricCoordinatesERKNS_6shdfnd3aos5Vec3VES5_S5_S5_RNS2_6FloatVES7_
Xhe:_CultureInfo_CreateTextInfo_m2269397562
G9e:_SerializationInfoEnumerator_get_Current_m173929557
Xuf:_U3CGetEnumeratorU3Ec__Iterator0_MoveNext_m949306872_gshared
jHb:__ZN16MessageForwarder23RegisterMessageCallbackEiPFvPviR11MessageDataEPKN5Unity4TypeE
Wh:_gmtime
bi:_emscripten_glUniform3i
tia:__ZNK7ApiGLES10GetContextEv
$Md:_Single_System_IConvertible_ToInt16_m962677079_AdjustorThunk
SNc:__ZN5physx14NpRigidDynamic25setStabilizationThresholdEf
apb:__Z18Transfer_BlittableI14SafeBinaryReadLb1E5RectTIfEEvRK29SerializationCommandArgumentsR31RuntimeSerializationCommandInfo
Cjd:__ZN5physx2Sc5Scene19addBrokenConstraintEPNS0_14ConstraintCoreE
W7:__ZN15TextureSettings14SetAnisoLimitsEii
oub:__Z19TransferField_ArrayI24GenerateTypeTreeTransfer27Converter_SimpleNativeClassI10RectOffsetEEvRK23StaticTransferFieldInfoR31RuntimeSerializationCommandInfoRT0_
O4:__ZN6prcoreL17RemapGenericFloatI18TexFormatARGBFloat15TexFormatRGHalfEEvPKNS_9InnerInfoE
vCh:_il2cpp_object_unbox
DGd:_String_memcpy2_m2338403668
Lwf:_InternalEnumerator_1_get_Current_m4154615771_AdjustorThunk
w5a:__ZN11LightProbes23VirtualRedirectTransferER24GenerateTypeTreeTransfer
_I:__GLOBAL__sub_I_runtime_graphics_lod_lump_cpp
n0c:__ZNK5physx2Sq16BucketPrunerCore9visualizeERNS_2Cm12RenderOutputEj
PQf:_Array_InternalArray__set_Item_TisDateTime_t693205669_m197118909_gshared
Eof:_ModuleBuilder_GetToken_m4190668737
DXc:__ZN5physx2Sc5Scene27prepareOutOfBoundsCallbacksEv
Fni:_emscripten_glIsProgram__wrapper
ELb:__ZL22PrepareMeshRenderNodesILb1EEvR35RenderNodeQueuePrepareThreadContext
vH:__ZN20LocalFileSystemPosix5TouchER13FileEntryData
jYb:__ZN9JSONWrite8TransferI13dynamic_arrayItLj2EEEEvRT_PKc17TransferMetaFlags
TUf:_NativeEventCalls_SetEvent_internal_m2449488771
ri:_emscripten_glDrawElements
iHd:_RSAPKCS1SignatureDeformatter_SetHashAlgorithm_m894366837
OJe:_X509Certificate_get_DSA_m3959895595
HWd:_Boolean_System_IConvertible_ToDouble_m624978277
Jde:_Delegate_get_Method_m2968370506
zcf:_ObjectReader_ReadObjectGraph_m4290798209
Tsf:_MonoProperty_GetValue_m2150318626
lXf:_TimeSpan_CompareTo_m2891128664
$Rg:_PKCS12_AddCertificate_m3637520737
Woa:__Z33GetMinimumTextureMipSizeForFormat13TextureFormat
lpb:__ZL26Transfer_SimpleNativeClassI14SafeBinaryRead8GradientLb0EEvRK29SerializationCommandArgumentsR31RuntimeSerializationCommandInfo
Vmi:_emscripten_glClientActiveTexture__wrapper
Wth:__ZNK15dense_hashtableI10KeyWrapperIPK17Il2CppGenericInstES4_N6il2cpp8metadata21Il2CppGenericInstHashEN14dense_hash_setIS4_S7_NS4_14EqualsComparerINS6_24Il2CppGenericInstCompareEEENSt3__29allocatorIS4_EEE8IdentityESB_SE_E4findERKS4_
k8g:__Z120RuntimeInvoker_Int32_t2071877448_Il2CppObject_CustomAttributeNamedArgument_t94157543_Int32_t2071877448_Int32_t2071877448PK10MethodInfoPvPS2_
xbd:__ZNK5physx2Gu11ConvexHullV12supportLocalERKNS_6shdfnd3aos5Vec3VERS4_Ri
AEe:_PrimalityTests_RabinMillerTest_m1376858197
a5b:__Z21sweepCapsule_MeshGeomRKN5physx10PxGeometryERKNS_11PxTransformERKNS_2Gu7CapsuleERKNS_6PxVec3EfRNS_10PxSweepHitENS_7PxFlagsINS_9PxHitFlag4EnumEtEEf
Xic:__ZN5physx6shdfnd8PoolBaseINS_16NpConnectorArrayENS0_19ReflectionAllocatorIS2_EEE17releaseEmptySlabsEv
Fgf:_DES_Create_m2705450713
OSg:_X509CertificateCollection_Remove_m2722259192
WNf:_Array_InternalArray__IndexOf_TisSingle_t2076509932_m2151846718_gshared
SBc:__ZNK5physx7NpShape22getHeightFieldGeometryERNS_21PxHeightFieldGeometryE
$Y:__ZN13RenderTexture23VirtualRedirectTransferER18StreamedBinaryReadILb0EE
Kfg:__ZL56StringBuilder_t1221177846_CustomAttributesCacheGeneratorP21CustomAttributesCache
Mje:_NumberFormatter_FormatHexadecimal_m1317851390
j4e:_X509Certificate2Collection_AddRange_m1503879780
Ese:_StreamReader__ctor_m871771009
sla:__ZN4crnd12crn_unpacker12unpack_dxt5aEPPhjjjjjj
chd:__ZN5physx34PxsSolverConstraintPostProcessTask13mergeContactsERNS_25PxsCompoundContactManagerERNS_16PxsThreadContextE
YJh:__ZNK15dense_hashtableINSt3__24pairIK10KeyWrapperINS1_IP11Il2CppClassjEEES4_EES6_N6il2cpp8metadata14ArrayClassHashEN14dense_hash_mapIS6_S4_SB_NS6_14EqualsComparerINSA_17ArrayClassCompareEEENS0_9allocatorIS8_EEE9SelectKeyESF_SH_E3endEv
Zyd:__Z45Physics_CUSTOM_INTERNAL_CALL_Internal_RaycastRK8Vector3fS1_P10RaycastHitfi23QueryTriggerInteraction
iwg:_AnchorInfo_get_Length_m1721106162
$lh:_Transform_get_childCount_m881385315
Kaf:_RemotingConfiguration_RegisterActivatedClientType_m2207611714
cya:__ZZ23InitPlayerLoopCallbacksvEN45EarlyUpdateScriptRunDelayedStartupFramestruct7ForwardEv
Omc:__ZN5physx2Sc8ActorSimD2Ev
Cdh:_GameObject_GetComponentInChildren_m4263325740
OGf:_Transform_1_Invoke_m1224512163_gshared
R6h:__ZN6il2cpp2os5Mutex4LockEb
uyb:__Z29Transfer_Blittable_ArrayFieldI18StreamedBinaryReadILb1EE8Vector2fEvRT_R9ArrayInfoRK23StaticTransferFieldInfo
p6c:__ZN5physx14SapPairManager11RemovePairsERKNS_2Cm10BitMapBaseINS_6shdfnd9AllocatorEEE
DRh:__ZN6il2cpp2vm13LivenessState25FieldCanContainReferencesEP9FieldInfo
zAb:__ZL19RequireCorLibMethodPKcS0_S0_
zhh:_MonoBehaviour_IsInvoking_m1469271462
Jeb:__ZN15SerializeTraitsI13dynamic_arrayI10BlendShapeLj4EEE19ResizeSTLStyleArrayERS2_i18MemLabelIdentifier
BEd:_MD5_Create_m1572997499
xLe:_AppDomain_LoadAssembly_m1537679648
C5:__ZN6prcoreL26RemapGenericIntegerToFloatI17TexFormatARGB888817TexFormatRGBFloatEEvPKNS_9InnerInfoE
WMh:__ZN6il2cpp2vm14TypeNameParser26ParseTypeArgumentsOptionalERi
ENa:__ZN15LODGroupManager27GarbageCollectCameraLODDataEv
g$:__ZN11NamedObjectC2E18MemLabelIdentifier18ObjectCreationMode
GSa:__ZN13ScreenManagerC2Ev
pBe:_OrdinalComparer_GetHashCode_m3400975772
Ftb:__Z18Transfer_BlittableI24GenerateTypeTreeTransferLb0E12PropertyNameEvRK29SerializationCommandArgumentsR31RuntimeSerializationCommandInfo
pia:__ZN7ApiGLES4InitERK14GfxContextGLESR16GfxDeviceLevelGL
C8:__ZNK11LightProbes14LightProbeData33GetLightProbeInterpolationWeightsERK8Vector3fRiR8Vector4fRf
Oka:__ZN17GenericDynamicVBO12EnsureBufferEjj15GfxBufferTargetR13dynamic_arrayIP9GfxBufferLj4EE
j9e:_SoapServices_GetAssemblyName_m2037446159
qpc:__ZN5physx6shdfnd5ArrayIPvNS0_15InlineAllocatorILj256ENS0_19ReflectionAllocatorINS_13NpRigidStaticEEEEEE15growAndPushBackERKS2_
AXa:__ZN21UnityDefaultAllocatorI17LowLevelAllocatorED0Ev
UFc:__ZN5physx6shdfnd5ArrayINS_6PxVec4ENS0_19ReflectionAllocatorIS2_EEE6resizeEjRKS2_
ema:__Z14DecodeBC7BlockP9HDRColorAPKh
pLb:__ZNK24RendererAnimationBinding12GetPPtrValueERKN11UnityEngine9Animation10BoundCurveE
hza:_UNITY_png_set_IHDR
gTe:_ClientSessionCache__cctor_m1134810266
ORc:__ZN5physx2Sc19ShapeInstancePairLL13createManagerEv
exg:_CharacterClass_GetIntervalCost_m2706255216
Mcf:_ObjectReader_ReadGenericArray_m788836286
F3h:_GC_new_proc_inner
bc:invoke_fiiffi
CY:__ZN19RenderBufferManager13GetTempBufferE17RenderTextureDesc
cqd:__ZN5physx6shdfnd5ArrayINS_2Gu10RTreeNodeQENS0_19ReflectionAllocatorIS3_EEE15growAndPushBackERKS3_
zFd:_RijndaelManagedTransform_TransformFinalBlock_m3663752599
kPd:_String_Format_m4262916296
D9:__ZL24stbir__filter_catmullromff
NCe:_SimpleCollator_CompareInternal_m280569710
_8b:__ZN5physx2Gu25computeCapsule_CapsuleMTDERKNS0_7CapsuleES3_RNS_10PxSweepHitE
qNc:__ZN5physx14NpRigidDynamic17setLinearVelocityERKNS_6PxVec3Eb
G3e:_X509ExtensionEnumerator_get_Current_m3926549773
hRh:__ZN6il2cpp6icalls8mscorlib6System4Type29GetGenericTypeDefinition_implEP20Il2CppReflectionType
Xje:_NumberFormatter_IsZeroOnly_m3495795110
boe:_Int32_ValidDigit_m2682121722
eef:_SerializationInfo_AddValue_m2342806462
I2e:_X509BasicConstraintsExtension__ctor_m4017912156
$gi:_glTexStorage3D__wrapper
Ohi:_glShaderSource__wrapper
s6g:__Z88RuntimeInvoker_Void_t1841601450_Single_t2076509932_Single_t2076509932_Single_t2076509932PK10MethodInfoPvPS2_
BGc:__ZNK5physx2Sc9ClothCore21getNbVirtualParticlesEv
$mb:__Z25scripting_field_get_flags17ScriptingFieldPtr
jld:__ZN5physx9readFloatEbRNS_13PxInputStreamE
prf:_MonoEvent_GetObjectData_m4084431065
_Zb:__ZN8JSONRead8TransferIyEEvRT_PKc17TransferMetaFlagsb
Xob:__Z18Transfer_BlittableI14SafeBinaryReadLb0EtEvRK29SerializationCommandArgumentsR31RuntimeSerializationCommandInfo
Ruf:_U3CGetEnumeratorU3Ec__Iterator0_MoveNext_m2489948797_gshared
aNf:_Array_BinarySearch_TisIl2CppObject_m2457435347_gshared
jF:__ZNK20DynamicHeapAllocatorI17LowLevelAllocatorE8ContainsEPKv
ARd:_EncoderReplacementFallbackBuffer_Fallback_m4111893059
s0a:__ZNK13Lz4Compressor14CompressMemoryEPKvjPvPj16CompressionLevel
V0b:__ZNK5physx3Cct17CapsuleController10getCapsuleERNS_17PxExtendedCapsuleE
iQh:__ZN6il2cpp2vm14PlatformInvoke36MarshalCppStringToCSharpStringResultEPKc
pLa:__ZN8Material23GetStencilWriteMaterialEv
PX:__ZNK9ShaderLab11ShaderState16ApplyShaderStateEjPK19ShaderPropertySheetRK17ShaderPassContextP6ShaderPNS_4PassEPNS_11SubProgramsE
zvg:_Assertion__ctor_m1169129098
P1a:__ZN10TagManager8TransferI24GenerateTypeTreeTransferEEvRT_
o7e:_InterpreterFactory_get_GroupCount_m1785101782
XZd:_CharEnumerator_Clone_m3844021309
NFe:_BlockProcessor_Initialize_m3476609078
w1a:__ZN10TagManager23VirtualRedirectTransferER24GenerateTypeTreeTransfer
dgd:__ZN5physx14preprocessRowsEPPNS_14Px1DConstraintES1_jRKNS_17PxcSolverBodyDataES5_RKNS_24PxConstraintInvMassScaleEbb
x9:__ZL23stbir__filter_trapezoidff
tFg:_MethodCall_get_MethodName_m257326115
k6e:_Key_GetHashCode_m345804220
ofe:_Double_System_IConvertible_ToUInt16_m286326038
st:__ZNK13AudioListener26GetTypeInfoVirtualInternalEv
ZFa:__ZN23ScriptableRenderContextD2Ev
ula:__ZN4crnd12crn_unpacker11unpack_dxt1EPPhjjjjjj
fmd:__ZNK5physx2Gu11HeightField22getConvexEdgeThresholdEv
kJe:_PKCS12__ctor_m3492967071
i5a:__ZN14ShadowSettings8TransferI18StreamedBinaryReadILb0EEEEvRT_
NEh:__ZN15dense_hashtableINSt3__24pairIK10KeyWrapperINS1_IPK10MethodInfoP11Il2CppClassEEEjEES9_17ReflectionMapHashIS8_EN14dense_hash_mapIS9_jSD_NS9_14EqualsComparerINS0_8equal_toIS8_EEEENS0_9allocatorISB_EEE9SelectKeyESI_SK_E15insert_noresizeERKSB_
sPh:__ZN6il2cpp6icalls8mscorlib6System19ExtractWidenedValueE14Il2CppTypeEnumPv
CCf:_InternalEnumerator_1_get_Current_m2198364332_gshared
l3h:_GC_invoke_finalizers
dIf:_Dictionary_2_ContainsKey_m416495915_gshared
Sjb:__ZNSt3__26vectorIN30RuntimeInitializeOnLoadManager9ClassInfoE13stl_allocatorIS2_L18MemLabelIdentifier12ELi16EEE6assignINS_11__wrap_iterIPS2_EEEENS_9enable_ifIXaasr21__is_forward_iteratorIT_EE5valuesr16is_constructibleIS2_NS_15iterator_traitsISC_E9referenceEEE5valueEvE4typeESC_SC_
fpb:__Z18Transfer_BlittableI14SafeBinaryReadLb0E8BitFieldEvRK29SerializationCommandArgumentsR31RuntimeSerializationCommandInfo
Lof:_OpCode_GetHashCode_m2974727122_AdjustorThunk
nkf:_CustomAttributeNamedArgument_GetHashCode_m3715408876
CYd:_Byte_ToString_m1309661918_AdjustorThunk
rZc:__ZN5physx18NpArticulationLink14visualizeJointERNS_22PxConstraintVisualizerE
Dre:_Directory_CreateDirectoriesInternal_m2817848291
Eoe:_Int32_System_IConvertible_ToInt64_m3790029067
Bxf:_InternalEnumerator_1_System_Collections_IEnumerator_get_Current_m3546309124_gshared
Iuc:__ZN5physx14NpShapeManager11detachShapeERNS_7NpShapeERNS_12PxRigidActorEb
VPa:__ZNK10GameObject25QueryComponentByExactTypeEPKN5Unity4TypeE
RTf:_UTF7Encoding_GetDecoder_m396865028
x$:__ZNK9ShaderLab22ShaderStencilStateDesc17ToGfxStencilStateEPK19ShaderPropertySheetS3_RK14GfxRasterStateR15GfxStencilState
WGe:_SmallXmlParser_ReadContent_m4038164984
JTg:_X509Extension_WriteLine_m364247613
zWa:__ZN15GUIEventManager10QueueEventERK10InputEvent
fma:__Z15DecodeBC6HBlockP9HDRColorAPKh
Voe:_Int32_Equals_m753832628_AdjustorThunk
s3h:_GC_malloc_uncollectable
PVa:__ZNK16MemoryFileSystem6ParentERK13FileEntryDataRN4core12basic_stringIcNS3_20StringStorageDefaultIcEEEE
Mkb:__ZN20ArchiveStorageHeader13IsArchiveFileER12FileAccessor
nT:__ZN15LODGroupManagerD2Ev
Dif:_Assembly_IsDefined_m2841897391
HOg:_Nullable_1_ToString_m1238126148_gshared
sua:__ZN12IFileAdapter9SetLengthER13FileEntryDatay
$vd:__ZN5physx6shdfnd8PoolBaseINS_24NpPtrTableStorageManager8PtrBlockILi4EEENS0_19ReflectionAllocatorIS4_EEE12allocateSlabEv
Zd:_Mix_PlayMusic
Qxc:__ZNK5physx2Sq17SceneQueryManager10getPayloadEPKNS0_10ActorShapeE
c6b:__ZNK5physx2Gu5Facet15getClosestPointEPKNS_6shdfnd3aos5Vec3VES6_RS4_S7_
M5:__ZN19RuntimeSceneManager24PrepareNewBootstrapSceneEv
nRf:_Array_InternalArray__set_Item_TisContactPoint_t1376425630_m618872604_gshared
QTd:_Array_GetLongLength_m3005360186
cPa:__ZN10SpookyHash7Hash128EPKvjPyS2_
UMa:__ZL60CombineDirectionalShadowCasterCullingIndexListsAndDestroyJobP20ShadowCullingJobData
bne:_Guid_ToString_m3858592945_AdjustorThunk
Wc:_emscripten_get_now_is_monotonic
dLd:_Hash_GetData_m3416116641
Thf:_HMAC_get_Block_m1367204253
xDb:__ZN9ShaderLab18SerializedPropertyC2ERKS0_
Nce:_Decimal_System_IConvertible_ToInt64_m2504363272_AdjustorThunk
Yih:_Physics_Raycast_m2667915561
fuf:_ResourceReader_LoadResourceValues_m1346096618
bKb:__ZN16ReflectionProbes20DidChangeActiveSceneEP10UnitySceneS1_
Uje:_NumberFormatter_RoundDecimal_m176606570
Seh:_Debug_LogError_m3715728798
M7e:_Interval_Contains_m3209397137_AdjustorThunk
Acb:__ZN16SpriteRenderData8TransferI14SafeBinaryReadEEvRT_
f7d:_Convert_ToDouble_m1714698801
Qza:_init_block
uXg:__Z88RuntimeInvoker_Int32_t2071877448_Il2CppObject_Il2CppObject_Il2CppObject_SByte_t454417549PK10MethodInfoPvPS2_
MCf:_InternalEnumerator_1_get_Current_m35328337_gshared
iNb:__ZN6CameraC2E18MemLabelIdentifier18ObjectCreationMode
c5c:__ZN5physx18solveFrictionBlockEPKNS_23PxcSolverConstraintDescEjRNS_16PxcSolverContextE
Kad:__ZN5physx2Gu25PersistentContactManifold20refreshContactPointsERKNS_6shdfnd3aos15PsMatTransformVERKNS3_6FloatVES9_
OPg:_UnityAction_1_Invoke_m3061904506_gshared
mqe:_Int64_ToString_m1544341651
oI:__ZN20LocalFileSystemPosix4CopyER13FileEntryDataS1_
gLa:__ZL31SetRenderStateForStencilMarkingR9GfxDeviceR17ShaderPassContextjj
cxa:__ZN20ArchiveStorageReader20FillChunkCachedBlockEPNS_11CachedBlockE
Kqb:__ZNSt3__26vectorI17AnimationCurveTplIfE13stl_allocatorIS2_L18MemLabelIdentifier1ELi16EEE7reserveEj
pNe:_BigInteger_op_Inequality_m4286929594
XLd:_SecurityException__ctor_m230238597
Ad:_glClearColor
Pje:_CustomInfo_Parse_m3558073058
DQh:_KeyValuePair_2_get_Value_m1916631176_gshared
vEb:__ZN9ShaderLab16SerializedTagMap8TransferI19StreamedBinaryWriteILb0EEEEvRT_
Yec:__ZN5physx11NpAggregate15exportExtraDataERNS_22PxSerializationContextE
byc:__ZN16PxOverflowBufferIN5physx10PxSweepHitEE14processTouchesEPKS1_j
zOh:__ZN6il2cpp6icalls8mscorlib6System9Threading6Thread25SetCachedCurrentUICultureEP12Il2CppThreadP12Il2CppObject
rni:_glIsVertexArray__wrapper
kaf:_RemotingServices_DisposeIdentity_m266836454
_Gd:_RSAPKCS1KeyExchangeFormatter_SetRSAKey_m3575964424
L5d:_DateTimeUtils_GetStandardPattern_m4198947977
VMa:__Z22CullDirectionalShadowsR9IndexListPK9SceneNodePK4AABBR22DirectionalCullContext
TSf:_Array_InternalArray__get_Item_TisUInt16_t986882611_m2599215710_gshared
Ljf:_Default_IsArrayAssignable_m3862319150
gZc:__ZN5physx18PxsMaterialManager6resizeEj
puh:__ZN15dense_hashtableINSt3__24pairIK10KeyWrapperIPK11Il2CppClassEPKcEES6_N6il2cpp5utils11PointerHashIS3_EEN14dense_hash_mapIS6_S9_SE_NS6_14EqualsComparerINS0_8equal_toIS5_EEEENS0_9allocatorISA_EEE9SelectKeyESJ_SL_E4findERS7_
xje:_NumberFormatter_FastAppendDigits_m2324805728
bD:__ZN11UnityEngine15CloudWebService14RestDownloader7OnAbortEv
bdf:_FormatterServices_GetUninitializedObject_m1786947853
G6:__ZN13MonoBehaviour26WillUnloadScriptableObjectEv
SCa:__Z13VFormatBufferPciPKcPi
pub:__Z19TransferField_ArrayI24GenerateTypeTreeTransfer27Converter_SimpleNativeClassI8GradientEEvRK23StaticTransferFieldInfoR31RuntimeSerializationCommandInfoRT0_
quf:_ResourceEnumerator_get_Value_m2384033057
_Dd:_KeyedHashAlgorithm__ctor_m2868676404
eB:__ZN11UnityEngine15CloudWebService16SessionContainer16MarkAsDispatchedERKN4core12basic_stringIcNS2_20StringStorageDefaultIcEEEE
G6b:__ZNK5physx2Gu29EPASupportMapPairRelativeImplINS0_11ConvexHullVES2_E18doWarmStartSupportEiiRNS_6shdfnd3aos5Vec3VES7_S7_
UMb:__ZN16GraphicsSettings15InitializeClassEv
RAa:__Z16FindCameraStacksRKNSt3__24listI4PPtrI6CameraENS_9allocatorIS3_EEEERNS_6vectorI11CameraStackNS4_ISA_EEEE
uid:__ZN5physx2Sc5Scene18updateCCDMultiPassEPNS_10PxBaseTaskE
lEe:_BigInteger_op_Subtraction_m2941563507
sLb:__ZN13ProduceHelperI11PreloadDataLb0EE7ProduceE18MemLabelIdentifier18ObjectCreationMode
wrh:__ZNK15dense_hashtableI10KeyWrapperIPK17Il2CppGenericInstES4_N6il2cpp8metadata21Il2CppGenericInstHashEN14dense_hash_setIS4_S7_NS4_14EqualsComparerINS6_24Il2CppGenericInstCompareEEENSt3__29allocatorIS4_EEE8IdentityESB_SE_E10test_emptyEj
DFf:_Enumerator_Reset_m3129803197_gshared
uea:__ZNK13GfxDeviceGLES11GetViewportEv
rxd:__ZN19CharacterController23CreateControllerManagerEv
U$:__ZNK9ShaderLab11ShaderState34ShouldRemoveAnyUnsupportedProgramsEv
Lcc:__ZN5physx3Cct15ObstacleContext11addObstacleERKNS_10PxObstacleE
qnh:__ZN13Il2CppHashMapIPK22Il2CppGenericParameterP11Il2CppClassN6il2cpp5utils11PointerHashIS1_EENSt3__28equal_toIS2_EENS9_9allocatorINS9_4pairIK10KeyWrapperIS2_ES4_EEEEEC2EjRKS8_RKSB_
GCa:__ZN19ShaderPropertySheet29PreallocateArrayUninitializedEN9ShaderLab16FastPropertyNameENS_12PropertyTypeEj
Rqc:__ZN5physx6shdfnd5ArrayINS_14PxcSIMDSpatialENS0_19ReflectionAllocatorIS2_EEE6resizeEjRKS2_
V_a:__ZN17ArchiveFileSystem13RemoveStorageEP20ArchiveStorageReader
CBg:_CrossAppDomainData__ctor_m899931420
hud:__ZN5physx7profile8ZoneImplINS_28PxProfileNameProviderForwardEE12removeClientERNS_19PxProfileZoneClientE
jvh:__ZL32InitializeCustomAttributesCachesPv
ava:__ZN20ArchiveStorageReaderD0Ev
ZAb:__ZN6Shader23VirtualRedirectTransferER19StreamedBinaryWriteILb0EE
O_d:_ArrayListWrapper__ctor_m3783588291
nFg:_MethodCall_get_MethodBase_m688041003
a9a:__ZNK9Texture2D26GetTypeInfoVirtualInternalEv
ltg:_Match_NextMatch_m1088868049
VVg:__Z63RuntimeInvoker_Il2CppObject_Int16_t4041245914_Int16_t4041245914PK10MethodInfoPvPS2_
gib:__ZN10VRSettings9Cardboard8TransferI14SafeBinaryReadEEvRT_
Ogb:__ZNSt3__214__split_bufferI9InputAxisRNS_9allocatorIS1_EEED2Ev
tfh:_InvokableCall_add_Delegate_m1598143083
zH:__ZNK20LocalFileSystemPosix20GetApplicationFolderEv
gB:__ZN11UnityEngine15CloudWebService14DataDispatcher31SetupSessionContainerToDispatchEv
Eac:__ZN5physx2Gu29intersectRayTriangleNoCullingERKNS_6PxVec3ES3_S3_S3_S3_RfS4_S4_f
KUb:__Z68Register_UnityEngine_Object_INTERNAL_CALL_Internal_InstantiateSinglev
uAb:__Z29Transfer_Blittable_ArrayFieldI18StreamedBinaryReadILb0EE8Vector3fEvRT_R9ArrayInfoRK23StaticTransferFieldInfo
NLf:_Array_InternalArray__ICollection_Remove_TisResourceInfo_t3933049236_m1768394498_gshared
UPe:_RSAManaged_get_KeySize_m3478823737
bcc:__ZN5physx3Cct26CharacterControllerManager13getControllerEj
I$:__ZN9ShaderLab11shaderprops9GetVectorEPK19ShaderPropertySheetS3_NS_16FastPropertyNameE
tu:__ZN4FMOD12ChannelGroup10getDSPHeadEPPNS_3DSPE
aHg:_Enumerator_System_Collections_IEnumerator_Reset_m610822832_gshared
Kt:__ZN12AudioManager17MainThreadCleanupEv
jTd:_UTF32Encoding_GetByteCount_m77034086
KJa:__ZNK6Camera18ScreenToWorldPointERK8Vector3f
mOh:__ZN6il2cpp6icalls8mscorlib6System9Threading6Thread11GetDomainIDEv
Tva:__ZN17ArchiveFileSystemD0Ev
vVf:_Thread_get_CurrentContext_m3123598616
nnh:__ZL22div192by96to32withRestPyS_S_jjj
TJa:__ZN14qsort_internal5QSortIP20ShadowCasterSortDatai26ShadowCasterSortDataSorterEEvT_S4_T0_T1_
mD:__ZN11UnityEngine15CloudWebService19SessionEventManager5StartERKN4core12basic_stringIcNS2_20StringStorageDefaultIcEEEEii
z3b:__ZN5physx2Gu17computeMTD_BoxBoxERNS_6PxVec3ERfRKNS0_3BoxES6_
bdd:__ZN5physx20PxsParticleSystemSim22scheduleDynamicsUpdateERNS_10PxBaseTaskE
Fqb:__Z22TransferField_NonArrayI14SafeBinaryRead27Converter_SimpleNativeClassI8GradientEEvRK23StaticTransferFieldInfoR31RuntimeSerializationCommandInfoRT0_
uf:_emscripten_glBufferData
Gfc:__ZNK5physx14PxsAABBManager13promoteBitmapEPNS_2Cm10BitMapBaseINS_6shdfnd9AllocatorEEEjjjj
gvd:__ZN5physx7profile11EventBufferINS_24PxDefaultContextProviderENS_6shdfnd6MutexTINS0_26WrapperReflectionAllocatorIhEEEENS0_14ScopedLockImplIS7_EENS_24PxProfileNullEventFilterEE17doAddProfileEventINS0_10StartEventEEEvtRKT_
AOf:_Array_InternalArray__ICollection_Add_TisInt16_t4041245914_m321723604_gshared
FVf:_Thread_SetCachedCurrentUICulture_m1504514384
fbi:_fwrite
kmb:__ZN13MonoBehaviourD0Ev
IKe:_X509CertificateEnumerator_Reset_m3421070487
UZd:_CharEnumerator_System_Collections_IEnumerator_get_Current_m1338581333
QQd:_DecoderFallback__cctor_m215821245
fOg:_Func_2_Invoke_m2968608789_gshared
lZc:__ZN5physx14NpRigidDynamic9visualizeERNS_2Cm12RenderOutputEPNS_7NpSceneE
nDb:__ZNSt3__26vectorIN9ShaderLab19SerializedSubShaderENS_9allocatorIS2_EEE6resizeEj
jde:_Decimal_Multiply_m1884379383
iTa:__ZN4FileC2Ev
rDg:_Context_GetNamedDataSlot_m372993642
TEh:__ZN15dense_hashtableINSt3__24pairIK10KeyWrapperINS1_IPK10MethodInfoP11Il2CppClassEEEjEES9_17ReflectionMapHashIS8_EN14dense_hash_mapIS9_jSD_NS9_14EqualsComparerINS0_8equal_toIS8_EEEENS0_9allocatorISB_EEE9SelectKeyESI_SK_E12maybe_shrinkEv
vaa:__ZN14BatchAllocator16AllocateInternalEPPvijjj
hIb:__Z13RegisterClassI6SpriteEvv
irh:__ZN14dense_hash_setI10KeyWrapperIPK17Il2CppGenericInstEN6il2cpp8metadata21Il2CppGenericInstHashENS4_14EqualsComparerINS6_24Il2CppGenericInstCompareEEENSt3__29allocatorIS4_EEEC2EjRKS7_RKSA_
n1h:_min_bytes_allocd
Vxb:__ZN17AnimationCurveTplIfE15InvalidateCacheEv
Ycb:__ZN6Sprite8TransferI19StreamedBinaryWriteILb0EEEEvRT_
Aih:_Object_get_hideFlags_m4158950869
cLc:__ZN5physx2Sc18ParticleSystemCoreC2ERKNS_11PxActorType4EnumEjb
A5b:__ZN5physx2Gu32PCMConvexVsMeshContactGeneration35generateTriangleFullContactManifoldERNS0_9TriangleVEjhRKNS0_13PolygonalDataEPNS0_16SupportLocalImplIS2_EEPNS0_12SupportLocalEPNS0_21MeshPersistentContactERjRKNS_6shdfnd3aos6FloatVERNSG_5Vec3VE
quc:__ZN5physx2Sc8BodyCore14setInverseMassEf
Gth:__ZN15dense_hashtableINSt3__24pairIK10KeyWrapperIPKcEP11Il2CppClassEES5_N6il2cpp5utils11StringUtils12StringHasherIS4_EEN14dense_hash_mapIS5_S8_SE_NS5_14EqualsComparerINSC_21CaseSensitiveComparerEEENS0_9allocatorIS9_EEE9SelectKeyESI_SK_E6insertERKS9_
B$:__ZNK9ShaderLab6TexEnv11PrepareDataEiiP15GfxTextureParam
bie:_CompareInfo_internal_compare_managed_m1173317301
Pzb:__Z22TransferField_NonArrayI18StreamedBinaryReadILb0EE27Converter_SimpleNativeClassI8GUIStyleEEvRK23StaticTransferFieldInfoR31RuntimeSerializationCommandInfoRT0_
yMb:__ZZL23RegisterLightPropertiesR22GenericPropertyBindingEN22Wrapper_LightSpotAngle13SetFloatValueEPvf
NEa:__ZNK19StereoRenderTexture7IsEmptyEv
aae:_DateTime_System_IConvertible_ToInt32_m2789391054
Vqf:_MonoMethodInfo_GetCallingConvention_m3095860872
bw:__ZN29AudioEffectInternalDefinition9CreateDSPEPN4FMOD6SystemEPvPfPP25UnityAudioSpatializerData
Sxa:__ZZ23InitPlayerLoopCallbacksvEN35PostLateUpdateBatchModeUpdatestruct7ForwardEv
WFe:_CryptoConvert_ToCapiPrivateKeyBlob_m850465939
i_h:__ZN6il2cpp2os6Thread5SleepEjb
zxb:__ZN18StreamedBinaryReadILb1EE21TransferSTLStyleArrayIN4core12basic_stringIcNS2_20StringStorageDefaultIcEEEEEEvRT_17TransferMetaFlags
dL:__ZN15DirectorManagerC2Ev
Zce:_Decimal_Add_m1535064574
Hbd:__ZN5physx2Gu25PersistentContactManifold31addBatchManifoldContactsClusterEPKNS0_17PersistentContactEj
Xgi:_emscripten_glUniform3f__wrapper
nrb:__ZN14SafeBinaryRead21TransferSTLStyleArrayI13dynamic_arrayI10ColorRGBAfLj4EEEEvRT_17TransferMetaFlags
xBd:__ZN11UnityEngine7Connect20BasePersistentValuesD2Ev
XQg:_SubjectAltNameExtension_Decode_m3676245240
X_h:__ZN15dense_hashtableINSt3__24pairIK10KeyWrapperIPK19Il2CppGenericMethodEP10MethodInfoEES6_N6il2cpp8metadata23Il2CppGenericMethodHashEN14dense_hash_mapIS6_S9_SD_NS6_14EqualsComparerINSC_26Il2CppGenericMethodCompareEEENS0_9allocatorISA_EEE9SelectKeyESH_SJ_E4findERS7_
jqc:__ZNK5physx14NpArticulation16createDriveCacheEfj
Sne:_Int16_Parse_m4244889614
D1a:__ZN10TagManager23AddDefaultLayerIfNeededEv
j3a:__ZN10FlareLayer12AddToManagerEv
L5c:__ZN5physx23PxsBroadPhaseContextSapC2ERNS_19PxcScratchAllocatorERNS_2Cm13EventProfilerE
R$h:__ZN6il2cpp6icalls8mscorlib6System10Reflection10MethodBase31GetMethodFromHandleInternalTypeE12Il2CppIntPtrS5_
YFd:_RIPEMD160Managed_HHH_m1385141959
jLh:__ZNK15dense_hashtableINSt3__24pairIK10KeyWrapperINS1_IP11Il2CppClassjEEES4_EES6_N6il2cpp8metadata14ArrayClassHashEN14dense_hash_mapIS6_S4_SB_NS6_14EqualsComparerINSA_17ArrayClassCompareEEENS0_9allocatorIS8_EEE9SelectKeyESF_SH_E12test_deletedEj
S1c:__ZN5physx6shdfnd5ArrayINS_16PxsCCDBlockArrayINS_11PxsCCDShapeELi128EE9BlockInfoENS0_19ReflectionAllocatorIS5_EEE15growAndPushBackERKS5_
Tlg:__ZL79X509Chain_t777637347_CustomAttributesCacheGenerator_X509Chain_Build_m2341271288P21CustomAttributesCache
qVc:__ZNK5physx2Sc5Scene18getSolverBatchSizeEv
whb:__ZN13BuildSettings23VirtualRedirectTransferER24GenerateTypeTreeTransfer
fub:__ZN24GenerateTypeTreeTransfer21TransferSTLStyleArrayINSt3__26vectorI8GUIStyle13stl_allocatorIS3_L18MemLabelIdentifier1ELi16EEEEEEvRT_17TransferMetaFlags
jL:__ZZN15DirectorManager15InitializeClassEvEN26UpdateDirectorUpdatestruct7ForwardEv
Flb:__ZN10MonoScriptD0Ev
gIa:__Z16ApplySHConstantsI28ApplyBuiltinInstancePropertyEvRT_RK20SphericalHarmonicsL2
iZc:__ZN5physx6shdfnd5ArrayINS_3Scb13MaterialEventENS0_19ReflectionAllocatorIS3_EEE8recreateEj
MYb:__Z18Transfer_BlittableI8JSONReadLb1E8Vector2fEvRK29SerializationCommandArgumentsR31RuntimeSerializationCommandInfo
Zwa:__ZN20ArchiveStorageReader15ReadFromStorageEyyPvPy
V1:__ZN8Material43AddDefaultShaderPropertiesToSavedPropertiesEv
Tqd:__ZN11BoxColliderD2Ev
fHa:__Z19DoPrePassRenderLoopR17RenderLoopContextR13dynamic_arrayI16RenderObjectDataLj4EES4_RK11CullResultsRP13RenderTextureSA_Pb
GF:__ZN13MemoryManager12LowLevelFreeEPvj
Gya:__Z16PresentAfterDrawN9GfxDevice11PresentModeE
Rka:__ZN10DynamicVBO19FillQuadIndexBufferER21DynamicVBOChunkHandle
KFf:_Enumerator_System_Collections_IDictionaryEnumerator_get_Value_m2325383168_gshared
bji:_glGenFramebuffers__wrapper
wli:_glBindBufferBase__wrapper
Kgf:_DESCryptoServiceProvider__ctor_m3979608654
Oj:_emscripten_glBlendColor
FB:__ZN9JSONWrite8TransferIyEEvRT_PKc17TransferMetaFlags
FOg:_Nullable_1_GetHashCode_m1791015856_gshared
zHa:__ZN22MotionVectorRenderLoop16PerformRenderingER8JobFence
oGe:_DSAManaged_ImportParameters_m987307570
LC:__ZN11UnityEngine15CloudWebService18RestFileDownloader13OnReceiveDataEPKvj
mVc:__ZN5physx14PxsAABBManager11shiftOriginERKNS_6PxVec3E
aed:__ZN5physx2Sc35ParticleElementRbElementInteraction10initializeEj
BFe:_ASN1Convert_ToInt32_m2828871616
zyf:_InternalEnumerator_1_System_Collections_IEnumerator_get_Current_m1025729343_AdjustorThunk
Vfi:dynCall_iiiiiiiii
tJ:__ZL25InitializeUnityWebStreamsPv
SAb:__ZN6ShaderD0Ev
nbd:__ZN5physx2Gu23pcmContactCapsuleConvexERKNS0_13GeometryUnionES3_RKNS_11PxTransformES6_RKfRNS0_5CacheERNS0_13ContactBufferE
Ade:_Decimal_ToString_m759431975_AdjustorThunk
UAa:__ZN25CameraStackRenderingState18EndStereoRenderingEv
VG:__ZN20LocalFileSystemPosix9SetLengthER13FileEntryDatay
Pfe:_Enum__cctor_m3214832791
NZe:_HybridDictionary_set_Item_m4049906479
nwf:_InternalEnumerator_1_System_Collections_IEnumerator_get_Current_m1335784110_AdjustorThunk
rOd:_String_IndexOf_m1887352430
oib:__ZN26PlayerSettingsSplashScreen8TransferI24GenerateTypeTreeTransferEEvRT_
G4:__ZN6prcoreL17RemapGenericFloatI18TexFormatRGBAFloat14TexFormatRHalfEEvPKNS_9InnerInfoE
qkc:__ZN5physx6shdfnd4sortIPvNS0_4LessIS2_EENS0_19ReflectionAllocatorINS_2Cm5BlockIS2_Lj32EEEEEEEvPT_jRKT0_RKT1_j
sg:_glScissor
BTa:__ZNSt3__26vectorI10vector_mapIiiNS_4lessIiEE13stl_allocatorINS_4pairIiiEEL18MemLabelIdentifier37ELi16EEES4_IS9_LS7_37ELi16EEE21__push_back_slow_pathIKS9_EEvRT_
khf:_DSACryptoServiceProvider_ExportParameters_m2503144019
Oif:_Assembly_GetName_m790410837
k8c:__ZN5physx6shdfnd5ArrayIPvNS0_19ReflectionAllocatorIS2_EEE15growAndPushBackERKS2_
Ifa:__ZN13GfxDeviceGLES21RegisterNativeTextureE9TextureIDi16TextureDimension
cfd:__ZN5physx2Sc19ShapeInstancePairLL15managerNewTouchEjb
Szc:__ZN5physx6shdfnd8PoolBaseINS_10NpMaterialENS0_19ReflectionAllocatorIS2_EEE17releaseEmptySlabsEv
_m:FUNCTION_TABLE_iiiiiiif
Egh:_Gradient_Init_m4156899649
tMd:_DecoderExceptionFallback__ctor_m3330792769
XAg:_ConstructionCall_set_IsContextOk_m90795526
Vxf:_InternalEnumerator_1_System_Collections_IEnumerator_get_Current_m4259662004_gshared
Uli:_emscripten_glUniform4fv__wrapper
Wm:FUNCTION_TABLE_iiiiiiii
uFd:_RijndaelManaged_CreateEncryptor_m315737265
wze:_MonoType_HasElementTypeImpl_m1040892148
bee:_DelegateEntry__ctor_m2996191962
jRf:_Array_InternalArray__set_Item_TisUInt16_t986882611_m59367493_gshared
vec:__ZN19ControllerHitReportD2Ev
_Mg:_ReadOnlyCollection_1_System_Collections_Generic_ICollectionU3CTU3E_Clear_m388357963_gshared
N7b:__ZNK5physx2Gu5RTree11traverseRayILi1EEEvRKNS_6PxVec3ES5_jPjPNS1_15CallbackRaycastEPS4_f
SLh:_GenericEqualityComparer_1_Equals_m2469044952_gshared
Z$c:__ZNK5physx2Sq11PruningPool10getPayloadERKj
uae:_DateTime_System_IConvertible_ToUInt64_m2788957482
zkh:_SymmetricTransform_CheckInput_m1287204652
UYf:_Type_GetProperty_m1510204374
b1d:_CollectionBase_System_Collections_IList_Remove_m2931078938
Nug:_Parser__ctor_m1719025083
tUh:__ZN15dense_hashtableINSt3__24pairIK10KeyWrapperINS1_IPKcS4_EEEiEES6_24NamespaceAndNamePairHashN14dense_hash_mapIS6_iS9_NS6_14EqualsComparerI26NamespaceAndNamePairEqualsEENS0_9allocatorIS8_EEE9SelectKeyESD_SF_EC2ERKSI_j
X4b:__Z23sweepCapsule_SphereGeomRKN5physx10PxGeometryERKNS_11PxTransformERKNS_2Gu7CapsuleERKNS_6PxVec3EfRNS_10PxSweepHitENS_7PxFlagsINS_9PxHitFlag4EnumEtEEf
WJ:__ZN15DirectorManager12RegisterJobsEP13PlayableGraph
hD:__ZN11UnityEngine15CloudWebService14DataDispatcher10InitializeERKN4core12basic_stringIcNS2_20StringStorageDefaultIcEEEEPvjRNS0_18ICloudJobSchedulerE
mDd:__ZN22CrashReportingSettingsC2Ev
nSb:__Z41Register_UnityEngine_Camera_get_eventMaskv
_ei:dynCall_vifiiii
ydf:_ObjectManager_GetObject_m2241027343
YD:__ZN11UnityEngine15CloudWebService14DataDispatcher17PlayerLoopHandlerEv
PUc:__ZNK5physx7NpScene22getNbBroadPhaseRegionsEv
Utc:__ZN5physx16PxsIslandManager12setKinematicERKNS_20PxsIslandManagerHookIjLj4294967295EEEb
mqg:__ZL96Collision_t2876846408_CustomAttributesCacheGenerator_Collision_t2876846408____other_PropertyInfoP21CustomAttributesCache
Wce:_Decimal_System_IConvertible_ToUInt64_m2457277336
Dzd:__ZN11UnityEngine7Connect15AppRunningEventC2Ejjjj
GUc:__ZN5physx7NpScene29setDynamicTreeRebuildRateHintEj
Rdi:dynCall_iiiiifii
FP:__Z26GetManagedAttributeManagerv
EFf:_Enumerator_System_Collections_IEnumerator_Reset_m3225937576_AdjustorThunk
OBe:_MSCompatUnicodeTable_Category_m3854768527
z8h:__ZN6il2cpp6icalls8mscorlib6System8DateTime16GetTimeMonotonicEv
xCa:__ZN19ComputeShaderKernelC2ERKS_
fWf:_Timer__cctor_m3277205579
xfb:__ZN4Mesh14ClearSkinCacheEv
cXb:__Z18Transfer_BlittableI9JSONWriteLb0EjEvRK29SerializationCommandArgumentsR31RuntimeSerializationCommandInfo
KEb:__ZL15GetIndexForNameRNSt3__23mapIN4core12basic_stringIcNS1_20StringStorageDefaultIcEEEEiNS_4lessIS5_EENS_9allocatorINS_4pairIKS5_iEEEEEERSA_
Hg:__exit
vE:__ZNK13EmscriptenWWW6GetETAEv
HSg:_X509CertificateCollection_AddRange_m3644738604
ZCd:__ZN11UnityEngine7Connect13ConnectConfigC2Ev
TXa:__ZL31FindActiveTransformWithPathImplPKcR10GameObjectb
EFe:_BitConverterLE_UShortFromBytes_m2795078058
Thi:_glViewport__wrapper
XNc:__ZN5physx14NpRigidDynamic10putToSleepEv
Hrg:__ZL68SerializePrivateVariables_t2241034664_CustomAttributesCacheGeneratorP21CustomAttributesCache
uYc:__ZNK5physx2Sc8BodyCore10isSleepingEv
$fi:b4
cgi:b5
dgi:b6
egi:b7
Xfi:b0
Yfi:b1
wcd:__ZN5physx9PxTaskMgr13decrReferenceEj
Neb:__ZN4Mesh8TransferI24GenerateTypeTreeTransferEEvRT_
rYb:__ZN9JSONWrite8TransferI13dynamic_arrayI10ColorRGBAfLj4EEEEvRT_PKc17TransferMetaFlags
fgi:b8
ggi:b9
Xyh:__ZN6il2cpp2vm21ThreadPoolCompartmentC2Ev
v1:__Z14resize_trimmedINSt3__26vectorIN4core12basic_stringIcNS2_20StringStorageDefaultIcEEEE13stl_allocatorIS6_L18MemLabelIdentifier1ELi16EEEEEvRT_j
cB:__ZN11UnityEngine15CloudWebService16SessionContainer13DeleteArchiveERKN4core12basic_stringIcNS2_20StringStorageDefaultIcEEEE
B_d:_ArrayList_CopyTo_m1348662971
Jne:_Int16_System_IConvertible_ToUInt64_m2064691861
sEh:__ZN15dense_hashtableINSt3__24pairIK10KeyWrapperIPK10Il2CppTypeEjEES6_N6il2cpp8metadata14Il2CppTypeHashEN14dense_hash_mapIS6_jSB_NS6_14EqualsComparerINSA_26Il2CppTypeEqualityComparerEEENS0_9allocatorIS8_EEE9SelectKeyESF_SH_E9copy_fromERKSK_j
alh:_AesTransform__cctor_m619532760
o4c:__ZN5physx18PxsDynamicsContextC2EPNS_10PxsContextE
nD:__ZN19CloudServiceHandler17PauseEventHandlerEb
tsh:__ZN15dense_hashtableINSt3__24pairIK10KeyWrapperI13dynamic_arrayIPK10Il2CppTypeLj4EEEPFvvEEES8_N6il2cpp8metadata19Il2CppSignatureHashEN14dense_hash_mapIS8_SB_SF_NS8_14EqualsComparerINSE_22Il2CppSignatureCompareEEENS0_9allocatorISC_EEE9SelectKeyESJ_SL_E3endEv
uM:__ZN19ShaderPropertySheetD0Ev
awd:__ZN5physx6shdfnd8PoolBaseINS_24NpPtrTableStorageManager8PtrBlockILi16EEENS0_19ReflectionAllocatorIS4_EEE12allocateSlabEv
dLf:_Array_InternalArray__ICollection_Contains_TisTimeSpan_t3430258949_m802614527_gshared
Ntb:__Z18Transfer_BlittableI24GenerateTypeTreeTransferLb0EaEvRK29SerializationCommandArgumentsR31RuntimeSerializationCommandInfo
kad:__ZN5physx19PxcPCMContactBoxBoxERKNS_2Gu13GeometryUnionES3_RKNS_11PxTransformES6_RKfRNS_10PxcNpCacheERNS0_13ContactBufferE
IRb:__Z50AsyncOperation_Get_Custom_PropAllowSceneActivationP12Il2CppObject
WUe:_TlsClientFinished_ProcessAsSsl3_m1576972610
LA:__ZN11UnityEngine15CloudWebService18CloudServiceConfigD2Ev
X4:__ZN6prcoreL17RemapGenericFloatI15TexFormatRGHalf15TexFormatRFloatEEvPKNS_9InnerInfoE
$nb:__ZN11MonoManagerD2Ev
nKe:_PKCS12_Clone_m4018301141
$Mc:__ZN5physx14NpRigidDynamic13setGlobalPoseERKNS_11PxTransformEb
$$g:__Z128RuntimeInvoker_Void_t1841601450_Il2CppObject_Il2CppObject_Int64_t909078037_ObjectU26_t597476745_SerializationInfoU26_t4051840202PK10MethodInfoPvPS2_
tta:__ZN20ArchiveStorageReader18DestroyCachedBlockEPNS_11CachedBlockE
yPb:__Z18MatrixToQuaternionRK10Matrix4x4fR11Quaternionf
NOf:_Array_InternalArray__ICollection_Add_TisTypeTag_t141209596_m1991820054_gshared
IRf:_Array_Sort_TisIl2CppObject_m3717288230_gshared
XEb:__ZN9ShaderLab4Pass24CreateFromSerializedPassERKNS_14SerializedPassEPK6Shader
hl:_emscripten_set_deviceorientation_callback
N_e:_KeysCollection_System_Collections_ICollection_CopyTo_m1079819835
Vjb:__Z14resize_trimmedINSt3__26vectorIN4core12basic_stringIcNS2_20StringStorageDefaultIcEEEE13stl_allocatorIS6_L18MemLabelIdentifier12ELi16EEEEEvRT_j
Xjg:__ZL61StringSplitOptions_t2996162939_CustomAttributesCacheGeneratorP21CustomAttributesCache
KYd:_Char_System_IConvertible_ToBoolean_m1492656201
cHh:__ZN6il2cpp2vm10Reflection15GetParamObjectsEPK10MethodInfoP11Il2CppClass
dK:__ZN8Playable16ProcessPlayStateERK19DirectorVisitorInfo
yPh:__ZN6il2cpp2vm9Exception11FromNameMsgEPK11Il2CppImagePKcS6_RKNS_5utils10StringViewIDsEE
BRh:__ZN6il2cpp2vm13LivenessState14TraverseObjectEP12Il2CppObjectPS1_
xb:invoke_viifiii
Skb:__ZN23ArchiveStorageConverter21FinalizeTargetArchiveEPj
vwe:_SynchronizedReader_ReadLine_m723354621
c0f:_UInt64_ToString_m446228920_AdjustorThunk
lqd:__ZN5physx27InternalTriangleMeshBuilderC2EPNS_20InternalTriangleMeshERKNS_15PxCookingParamsE
src:__ZN5physx19NpArticulationJoint17setTargetVelocityERKNS_6PxVec3E
Ala:__ZN4crnd12crn_unpacker22decode_alpha_selectorsEv
N9h:_scanexp
AI:__ZNK10FileSystem9EnumerateEPKcP13dynamic_arrayI13FileEntryInfoLj8EEb19FileEnumerationFlag
UQb:__ZN9Scripting30CreateScriptableObjectWithTypeE28ScriptingSystemTypeObjectPtrb
yUc:__ZNK5physx7NpScene26getVisualizationCullingBoxEv
dea:__ZN13GfxDeviceGLES19SetUserBackfaceModeEb
The:_CompareInfo_System_Runtime_Serialization_IDeserializationCallback_OnDeserialization_m3125905389
e6d:_DateTimeOffset_get_UtcDateTime_m3162550774
Pde:_Delegate_CreateDelegate_m3052767705
Mah:__Z83RuntimeInvoker_Il2CppObject_Il2CppObject_SByte_t454417549_Il2CppObject_Il2CppObjectPK10MethodInfoPvPS2_
ymf:_FieldBuilder_get_FieldHandle_m1845846823
s0c:__ZNK5physx2Sq16BucketPrunerCore7overlapERKNS0_9ShapeDataERNS0_14PrunerCallbackE
T9d:_DateTime_System_IConvertible_ToChar_m2489529194
yRh:__ZN6il2cpp2vm13LivenessState21TraverseGenericObjectEP12Il2CppObjectPS1_
Euf:_ResourceSet_Dispose_m2615980752
XBd:__ZN20UnityConnectSettingsD0Ev
$9c:__ZN5physx26PxcPCMContactSphereCapsuleERKNS_2Gu13GeometryUnionES3_RKNS_11PxTransformES6_RKfRNS_10PxcNpCacheERNS0_13ContactBufferE
nMa:__Z15GetLightManagerv
Vdh:_Component_CompareTag_m3443292365
jZ:__ZNK13RenderTexture20GetTextureLayerCountEv
Pmd:__ZN5physx9readChunkERaS0_S0_S0_RNS_13PxInputStreamE
s_c:__ZN5physx2Sc5SceneD2Ev
$gf:_DSA_ZeroizePrivateKey_m86428970
h0f:_UInt64_ToString_m794467354_AdjustorThunk
$jh:_ReapplyDrivenProperties_Invoke_m1090213637
NDa:__ZN13MonoBehaviour30InvokeMethodOrCoroutineCheckedE18ScriptingMethodPtr18ScriptingObjectPtrP21ScriptingExceptionPtr
zba:__ZNSt3__27__sort3IRN18AssetBundleManager27SortPreloadDataByIdentifierEPNS1_11PreloadDataEEEjT0_S6_S6_T_
hea:__ZN9GfxDevice21SetWorldMatrixAndTypeERK10Matrix4x4f13TransformType
fqc:__ZN5physx14NpArticulation7setNameEPKc
Dc:emscriptenWebGLComputeImageSize
Jxg:_PositionAssertion_Compile_m519727600
JNf:_Array_InternalArray__IndexOf_TisIntPtr_t_m1629926061_gshared
A5c:__ZN5physx20solveContactPreBlockEPKNS_23PxcSolverConstraintDescEjRNS_16PxcSolverContextE
dre:_ObjectDisposedException__ctor_m2844841908
xRa:__ZN17SharedTextureData17GetImageReferenceEP14ImageReferenceii
Jlg:__ZL99X509Certificate2_t4056456767_CustomAttributesCacheGenerator_X509Certificate2_GetNameInfo_m402390219P21CustomAttributesCache
dQ:__ZNK14SerializedFile12GetHighestIDEv
MXh:__ZN6il2cpp6icalls8mscorlib6System9AppDomain15getFriendlyNameEP15Il2CppAppDomain
i2d:_Hashtable_get_Keys_m4273499121
HVc:__ZN5physx6shdfnd13ReadWriteLock12unlockReaderEv
_we:_TextWriter_Write_m3202446297
idb:__ZN14Texture2DArray13AwakeFromLoadE17AwakeFromLoadMode
YEa:__ZL18ReplacementPassJobPN21GfxDeviceAsyncCommand10ArgScratchEPKNS_3ArgE
cea:__ZN13GfxDeviceGLES12GetSRGBWriteEv
mAd:__ZN11UnityEngine15PlatformWrapper15GetBuildVersionEv
yNd:_Single_CompareTo_m1534635028_AdjustorThunk
kab:__ZN18StreamedBinaryReadILb0EE21TransferSTLStyleArrayI13dynamic_arrayI33EnlightenTerrainChunksInformationLj4EEEEvRT_17TransferMetaFlags
cbe:_DateTimeUtils_GetStandardPattern_m32972750
p4d:_Stack_Peek_m2790636182
k1f:_Version__ctor_m85867749
fhd:__ZN5physx6shdfnd8internal9partitionINS_23PxcSolverConstraintDescEKNS_14ConstraintLessEEEiPT_iiRT0_
fEa:__ZN18ScriptingArguments9AddIntPtrEPv
n3d:_SyncHashtable_GetEnumerator_m2934066942
Oxd:__ZN12MemoryStreamC2EPhj18MemLabelIdentifier
tN:__ZNSt3__26__treeINS_12__value_typeINS_4pairIPcS3_EEPFbPvR14SafeBinaryReadEEENS_19__map_value_compareIS4_SA_20smaller_tstring_pairIPKcELb1EEENS_9allocatorISA_EEE7destroyEPNS_11__tree_nodeISA_S5_EE
RZc:__ZN5physx14NpShapeManager21teardownAllSceneQueryERNS_2Sq17SceneQueryManagerE
_K:__ZN19ScriptingInvocationC2E18ScriptingMethodPtr
$kh:_AesManaged_Dispose_m2144430298
tVc:__ZN5physx10PxsContext18setSolverBatchSizeEj
gie:_CompareInfo_Equals_m1849093104
GAg:_ActivatedClientTypeEntry__ctor_m2437890002
s6a:__ZN11LightProbes14LightProbeDataD2Ev
PYa:__ZN11AssetBundle23VirtualRedirectTransferER18StreamedBinaryReadILb0EE
S4g:__Z100RuntimeInvoker_Void_t1841601450_SByte_t454417549_SByte_t454417549_Int32_t2071877448_SByte_t454417549PK10MethodInfoPvPS2_
qHd:_SHA1_Create_m139442991
Pib:__ZN14SafeBinaryRead19TransferSTLStyleMapINSt3__28multimapIN4core12basic_stringIcNS3_20StringStorageDefaultIcEEEE4PPtrI6ObjectENS1_4lessIS7_EE13stl_allocatorINS1_4pairIKS7_SA_EEL18MemLabelIdentifier51ELi16EEEEEEvRT_17TransferMetaFlags
gph:__ZN6il2cpp2vm5Class9IsGenericEPK11Il2CppClass
Fob:__Z18Transfer_BlittableI14SafeBinaryReadLb0EfEvRK29SerializationCommandArgumentsR31RuntimeSerializationCommandInfo
PQg:_KeyUsageExtension_Encode_m1269721630
cCa:__Z11CopyTextureP7TextureiiiiiiS0_iiii
Py:__ZN12AudioManagerC2E18MemLabelIdentifier18ObjectCreationMode
kGe:_DSAManaged_get_KeySize_m3029954771
Dii:_glFramebufferTextureLayer__wrapper
iV:__ZNSt3__26__treeINS_12__value_typeIPK6CameraNS_6vectorIfNS_9allocatorIfEEEEEENS_19__map_value_compareIS4_S9_NS_4lessIS4_EELb1EEENS6_IS9_EEE7destroyEPNS_11__tree_nodeIS9_PvEE
f1b:__ZN5physx6shdfnd5ArrayINS_17PxExtendedCapsuleENS0_19ReflectionAllocatorIS2_EEE6resizeEjRKS2_
ECd:__ZN16UnityAdsSettings5ResetEv
cCd:__ZN20UnityConnectSettings23VirtualRedirectTransferER24GenerateTypeTreeTransfer
bkf:_CustomAttributeData_GetCustomAttributes_m119332220
cs:__ZN9AudioClip8TransferI24GenerateTypeTreeTransferEEvRT_
Gd:_pthread_getspecific
Whb:__ZN14PlayerSettings5ResetEv
ZJ:__Z18GetDirectorManagerv
K4d:_Convert_ToBase64String_m1259091507
N9c:__ZL28PxcBruteForceOverlapBackfaceRKN5physx9PxBounds3ES2_RKNS_2Gu13PolygonalDataES6_RKNS_2Cm8Matrix34ESA_RKNS7_23FastVertex2ShapeScalingESD_SA_SA_RKNS_6PxVec3ERjSH_RfRSE_RNS3_14PxcSepAxisTypeEf
H_c:__ZN5physx6shdfnd5ArrayIPNS_10PxBaseTaskENS0_15InlineAllocatorILj16ENS0_19ReflectionAllocatorIS3_EEEEE15growAndPushBackERKS3_
ZQg:_SubjectAltNameExtension_get_IPAddresses_m3207151211
yve:_StreamReader__ctor_m4193167698
R6a:__ZN14RenderSettings8TransferI17RemapPPtrTransferEEvRT_
L:Math_acos
Oph:__ZN14dense_hash_mapI10KeyWrapperIPK11Il2CppClassEPKcN6il2cpp5utils11PointerHashIS1_EENS4_14EqualsComparerINSt3__28equal_toIS3_EEEENSC_9allocatorINSC_4pairIKS4_S6_EEEEEC2EjRKSA_RKSF_
Ejf:_Default_BindToMethod_m1132635736
fEh:__ZN15dense_hashtableINSt3__24pairIK10KeyWrapperIPK10Il2CppTypeEjEES6_N6il2cpp8metadata14Il2CppTypeHashEN14dense_hash_mapIS6_jSB_NS6_14EqualsComparerINSA_26Il2CppTypeEqualityComparerEEENS0_9allocatorIS8_EEE9SelectKeyESF_SH_E12resize_deltaEjj
RPf:_Array_InternalArray__Insert_TisBoolean_t3825574718_m1732360951_gshared
z6d:_Convert_ToDateTime_m1626410554
o4d:_Enumerator__ctor_m2494147503
eVb:__ZN13MonoBehaviour14GetOrCreateDSPEv
zWe:_TlsStream_get_EOF_m1728604576
Bqa:__ZN19ConstantBuffersGLES8UpdateCBENS_8BufferIDEiPKv
BVe:_TlsServerFinished__cctor_m3702151001
lXb:__Z30TransferField_LinearCollectionI9JSONWriteEvRK29SerializationCommandArgumentsR31RuntimeSerializationCommandInfo
Smb:__ZN17MessageIdentifier24GetOptimizedMessageCountEv
YCc:__ZN5physx3Scb5Shape11setGeometryERKNS_10PxGeometryE
Mhf:_HashAlgorithm_TransformFinalBlock_m3071802428
Fr:__ZNK10SampleClip26GetTypeInfoVirtualInternalEv
Es:__ZN12SoundManager10UnloadClipEP10SampleClip
OQb:__ZN9Scripting27SendScriptingMessageUpwardsER10GameObjectRKN4core12basic_stringIcNS2_20StringStorageDefaultIcEEEE18ScriptingObjectPtri
dAd:__ZN11UnityEngine15PlatformWrapper16GetVideoMemoryMBEv
eZb:__Z18Transfer_BlittableI8JSONReadLb1E11ColorRGBA32EvRK29SerializationCommandArgumentsR31RuntimeSerializationCommandInfo
Cxg:_Parser_IsIgnorePatternWhitespace_m2555790826
xmi:_glDepthMask__wrapper
ycf:_ObjectReader__ctor_m1523640331
Fda:__ZNK13TranslateGLES13GetFormatDescEN2gl9TexFormatE
lD:__ZN19CloudServiceHandler17StartEventHandlerERKN4core12basic_stringIcNS0_20StringStorageDefaultIcEEEEii
fJc:__ZN5physx15NpParticleFluid23setRestParticleDistanceEf
rxb:__Z26Transfer_UnityEngineObjectI18StreamedBinaryReadILb1EELb1EEvRK29SerializationCommandArgumentsR31RuntimeSerializationCommandInfo
SYa:__ZN11AssetBundle23VirtualRedirectTransferER14SafeBinaryRead
Y8c:__ZN5physx14SingleAABBTask11runInternalEv
IMe:_BigInteger_op_Equality_m3089846781
FGa:__Z26BeginRenderQueueExtractionR15RenderNodeQueuePK16RendererCullDataRK13CullingOutputPK12LODDataArray15ExtractionFlagsP18JobBatchDispatcher
Se:_JS_Eval_SetTimeout
GO:__ZN14SafeBinaryReadC2Ev
Jpe:_Int64_System_IConvertible_ToType_m189452160_AdjustorThunk
M3d:_SortedList_Add_m3160058320
O1g:__Z51RuntimeInvoker_Double_t4078015681_Int16_t4041245914PK10MethodInfoPvPS2_
Rba:__ZN13LoadOperation19IntegrateMainThreadEv
mle:_NumberFormatInfo__ctor_m1404688648
Zee:_Double_System_IConvertible_ToChar_m398636054_AdjustorThunk
L6e:_Interpreter_EvalChar_m1135512271
arf:_MonoCMethod_GetCustomAttributes_m2886701175
tYh:__ZN6il2cpp2os10ThreadImpl24CheckForUserAPCAndHandleEv
Tof:_OpCodeNames__cctor_m2437275178
W9h:_setlocale
Nrf:_MonoField_GetObjectData_m3571455087
vSb:__Z54Register_UnityEngine_Camera_INTERNAL_CALL_RaycastTry2Dv
s6:__Z20MarkInstanceIDAsRootiR21GarbageCollectorState
cGa:__Z27scripting_array_element_ptr17ScriptingArrayPtrij
Rxf:_InternalEnumerator_1_get_Current_m3444791149_AdjustorThunk
Elh:_SendMouseEvents_SendEvents_m2738043830
lXd:_Boolean_Equals_m294106711
efb:__ZN16BlendShapeVertex8TransferI18StreamedBinaryReadILb0EEEEvRT_
fic:__ZL26GeomOverlapCallback_BoxBoxRKN5physx10PxGeometryERKNS_11PxTransformES2_S5_PNS_2Gu12TriggerCacheE
mOa:__ZN25CameraStackRenderingStateC2Ev
x9b:__ZN5physx17PxMeshOverlapUtil11findOverlapERKNS_10PxGeometryERKNS_11PxTransformERKNS_21PxHeightFieldGeometryES6_
syc:__ZNK5physx12PxConstraint8isKindOfEPKc
Bvc:__ZN5physx6shdfnd4sortIPvNS0_4LessIS2_EENS0_19ReflectionAllocatorINS_2Cm5BlockIhLj384EEEEEEEvPT_jRKT0_RKT1_j
_s:__ZN9AudioClip8WWWCloseEPvS0_
kua:__ZN12IFileAdapter4OpenER13FileEntryData14FilePermission16FileAutoBehavior
Xtd:__ZN5physx7profile8ZoneImplINS_28PxProfileNameProviderForwardEED2Ev
_Tf:_UTF8Encoding__ctor_m3476740866
Q5c:__ZN5physx23PxsBroadPhaseContextSap11batchUpdateEjRPNS_17PxcBroadPhasePairERjS4_
eDa:__ZN14SharedMeshDataD2Ev
l1h:_GC_try_to_collect_inner
zR:__ZL19PreDestroyRecursiveR10GameObjectPj
Vle:_SortKey_Compare_m2911165038
hLh:__ZN15dense_hashtableINSt3__24pairIK10KeyWrapperINS1_IP11Il2CppClassjEEES4_EES6_N6il2cpp8metadata14ArrayClassHashEN14dense_hash_mapIS6_S4_SB_NS6_14EqualsComparerINSA_17ArrayClassCompareEEENS0_9allocatorIS8_EEE9SelectKeyESF_SH_E15insert_noresizeERKS8_
xKh:__ZNK15dense_hashtableINSt3__24pairIK10KeyWrapperIP11Il2CppClassES4_EES5_N6il2cpp8metadata16SZArrayClassHashEN14dense_hash_mapIS5_S4_SA_NS5_14EqualsComparerINS9_19SZArrayClassCompareEEENS0_9allocatorIS7_EEE9SelectKeyESE_SG_E3endEv
COd:_String_Compare_m2851607672
DUf:_CompressedStack_CreateCopy_m3321727874
dpd:__ZN5physx17ConvexMeshBuilder12loadFromDescERKNS_16PxConvexMeshDescENS_10PxPlatform4EnumE
XB:__ZN11UnityEngine15CloudWebService16SessionContainer17CreateAndOpenFileERKN4core12basic_stringIcNS2_20StringStorageDefaultIcEEEES8_R12FileAccessor
bEf:_DefaultComparer_Compare_m265474847_gshared
s1f:_Version_Equals_m637934620
dqe:_Int64_ToString_m689375889
Daa:__Z9RecordJobPFvPvES_R21SingleThreadedJobInfo
AZf:_UInt16_System_IConvertible_ToBoolean_m887616848_AdjustorThunk
IYh:__ZN6il2cpp2gc16GarbageCollector7DisableEv
ZKa:__ZN18DeferredRenderLoop24AddReflectionsToEmissionEP13RenderTextureS1_
Zqc:__ZN5physx6shdfnd5ArrayINS_14PxcSIMDSpatialENS0_19ReflectionAllocatorIS2_EEE8recreateEj
upa:__Z19UnsignedIntToStringj
sdi:_i64Subtract
dvg:_Parser_ParseEscape_m2516946817
ifb:__ZN13BoneInfluence8TransferI19StreamedBinaryWriteILb0EEEEvRT_
TKh:__ZN6il2cpp8metadata18GenericArrayMethodC2EOS1_
Nvd:__ZN5physx6shdfnd5ArrayIPvNS0_19ReflectionAllocatorINS_24NpPtrTableStorageManager8PtrBlockILi64EEEEEE15growAndPushBackERKS2_
E8c:__ZN5physx13ActorAABBTaskC2Ev
PLd:_SecurityElement__cctor_m256761998
aKd:_X509Certificate_Import_m562956152
gBg:_ChannelData_get_ClientProviders_m648877347
TAe:_NumberFormatter_NumberToString_m4251434822
u9h:_frexpl
IAa:_UNITY_png_free_jmpbuf
fMe:_ArgumentOutOfRangeException__ctor_m2861707692
YHa:__ZN6Skybox16RenderSingleFaceEP8Materiali
rvb:__Z18Transfer_BlittableI19StreamedBinaryWriteILb0EELb1E12PropertyNameEvRK29SerializationCommandArgumentsR31RuntimeSerializationCommandInfo
zmf:_FieldBuilder_CreateNotSupportedException_m3999938861
hif:_OutOfMemoryException__ctor_m1340150080
opd:__ZN5physx2Gu12StoreIndicesEtjPKtRNS_14PxOutputStreamEb
eI:__Z23EndsWithCaseInsensitivePKcjS0_j
AHb:__Z20RegisterBuiltinTypesv
fod:__ZN5physx7Cooking15cookHeightFieldERKNS_17PxHeightFieldDescERNS_14PxOutputStreamE
$_f:_UInt32_Equals_m3998179817
Pyc:__ZN5physx2Sc13ConstraintSim14postFlagChangeENS_7PxFlagsINS_16PxConstraintFlag4EnumEtEES5_
jPd:_String_Format_m1811873526
